
/home/henr7381/pico/pico-examples-eclipse/usb/host/tinyusb_host_examples/msc_file_explorer/tinyusb_host_msc_file_explorer.elf:     file format elf32-littlearm

Sections:
Idx Name          Size      VMA       LMA       File off  Algn
  0 .boot2        00000100  10000000  10000000  00001000  2**0
                  CONTENTS, ALLOC, LOAD, READONLY, CODE
  1 .text         0000ba44  10000100  10000100  00001100  2**3
                  CONTENTS, ALLOC, LOAD, READONLY, CODE
  2 .rodata       00001edc  1000bb48  1000bb48  0000cb48  2**3
                  CONTENTS, ALLOC, LOAD, READONLY, DATA
  3 .binary_info  00000020  1000da24  1000da24  0000ea24  2**2
                  CONTENTS, ALLOC, LOAD, READONLY, DATA
  4 .ram_vector_table 000000c0  20000000  20000000  00011000  2**2
                  ALLOC
  5 .uninitialized_data 00000000  200000c0  200000c0  00010270  2**0
                  CONTENTS
  6 .data         000011b0  200000c0  1000da44  0000f0c0  2**4
                  CONTENTS, ALLOC, LOAD, READONLY, CODE
  7 .tdata        00000000  20001270  20001270  00010270  2**0
                  CONTENTS, ALLOC, LOAD, DATA, THREAD_LOCAL
  8 .tbss         00000000  20001270  20001270  00000000  2**0
                  ALLOC, THREAD_LOCAL
  9 .bss          00001a00  20001270  1000ebf4  00010270  2**3
                  ALLOC
 10 .heap         0003d390  20002c70  1000ebf4  00010c70  2**2
                  ALLOC, READONLY
 11 .scratch_x    00000000  20040000  20040000  00010270  2**0
                  CONTENTS
 12 .scratch_y    00000000  20041000  20041000  00010270  2**0
                  CONTENTS
 13 .stack_dummy  00000800  20041000  20041000  00010280  2**5
                  CONTENTS, READONLY
 14 .ARM.attributes 00000028  00000000  00000000  00010a80  2**0
                  CONTENTS, READONLY
 15 .comment      00000033  00000000  00000000  00010aa8  2**0
                  CONTENTS, READONLY
 16 .debug_info   00041353  00000000  00000000  00010adb  2**0
                  CONTENTS, READONLY, DEBUGGING, OCTETS
 17 .debug_abbrev 0000b31d  00000000  00000000  00051e2e  2**0
                  CONTENTS, READONLY, DEBUGGING, OCTETS
 18 .debug_loc    00026a73  00000000  00000000  0005d14b  2**0
                  CONTENTS, READONLY, DEBUGGING, OCTETS
 19 .debug_aranges 00001eb8  00000000  00000000  00083bc0  2**3
                  CONTENTS, READONLY, DEBUGGING, OCTETS
 20 .debug_ranges 000050c8  00000000  00000000  00085a78  2**3
                  CONTENTS, READONLY, DEBUGGING, OCTETS
 21 .debug_line   000227df  00000000  00000000  0008ab40  2**0
                  CONTENTS, READONLY, DEBUGGING, OCTETS
 22 .debug_str    00009f81  00000000  00000000  000ad31f  2**0
                  CONTENTS, READONLY, DEBUGGING, OCTETS
 23 .debug_frame  00004724  00000000  00000000  000b72a0  2**2
                  CONTENTS, READONLY, DEBUGGING, OCTETS

/home/henr7381/pico/pico-examples-eclipse/usb/host/tinyusb_host_examples/msc_file_explorer/tinyusb_host_msc_file_explorer.elf:     file format elf32-littlearm


Disassembly of section .boot2:

10000000 <__boot2_start__>:
10000000:	4b32b500 	.word	0x4b32b500
10000004:	60582021 	.word	0x60582021
10000008:	21026898 	.word	0x21026898
1000000c:	60984388 	.word	0x60984388
10000010:	611860d8 	.word	0x611860d8
10000014:	4b2e6158 	.word	0x4b2e6158
10000018:	60992100 	.word	0x60992100
1000001c:	61592102 	.word	0x61592102
10000020:	22f02101 	.word	0x22f02101
10000024:	492b5099 	.word	0x492b5099
10000028:	21016019 	.word	0x21016019
1000002c:	20356099 	.word	0x20356099
10000030:	f844f000 	.word	0xf844f000
10000034:	42902202 	.word	0x42902202
10000038:	2106d014 	.word	0x2106d014
1000003c:	f0006619 	.word	0xf0006619
10000040:	6e19f834 	.word	0x6e19f834
10000044:	66192101 	.word	0x66192101
10000048:	66182000 	.word	0x66182000
1000004c:	f000661a 	.word	0xf000661a
10000050:	6e19f82c 	.word	0x6e19f82c
10000054:	6e196e19 	.word	0x6e196e19
10000058:	f0002005 	.word	0xf0002005
1000005c:	2101f82f 	.word	0x2101f82f
10000060:	d1f94208 	.word	0xd1f94208
10000064:	60992100 	.word	0x60992100
10000068:	6019491b 	.word	0x6019491b
1000006c:	60592100 	.word	0x60592100
10000070:	481b491a 	.word	0x481b491a
10000074:	21016001 	.word	0x21016001
10000078:	21eb6099 	.word	0x21eb6099
1000007c:	21a06619 	.word	0x21a06619
10000080:	f0006619 	.word	0xf0006619
10000084:	2100f812 	.word	0x2100f812
10000088:	49166099 	.word	0x49166099
1000008c:	60014814 	.word	0x60014814
10000090:	60992101 	.word	0x60992101
10000094:	2800bc01 	.word	0x2800bc01
10000098:	4700d000 	.word	0x4700d000
1000009c:	49134812 	.word	0x49134812
100000a0:	c8036008 	.word	0xc8036008
100000a4:	8808f380 	.word	0x8808f380
100000a8:	b5034708 	.word	0xb5034708
100000ac:	20046a99 	.word	0x20046a99
100000b0:	d0fb4201 	.word	0xd0fb4201
100000b4:	42012001 	.word	0x42012001
100000b8:	bd03d1f8 	.word	0xbd03d1f8
100000bc:	6618b502 	.word	0x6618b502
100000c0:	f7ff6618 	.word	0xf7ff6618
100000c4:	6e18fff2 	.word	0x6e18fff2
100000c8:	bd026e18 	.word	0xbd026e18
100000cc:	40020000 	.word	0x40020000
100000d0:	18000000 	.word	0x18000000
100000d4:	00070000 	.word	0x00070000
100000d8:	005f0300 	.word	0x005f0300
100000dc:	00002221 	.word	0x00002221
100000e0:	180000f4 	.word	0x180000f4
100000e4:	a0002022 	.word	0xa0002022
100000e8:	10000100 	.word	0x10000100
100000ec:	e000ed08 	.word	0xe000ed08
	...
100000fc:	7a4eb274 	.word	0x7a4eb274

Disassembly of section .text:

10000100 <__VECTOR_TABLE>:
10000100:	20042000 	.word	0x20042000
10000104:	100001f7 	.word	0x100001f7
10000108:	100001c3 	.word	0x100001c3
1000010c:	100001c5 	.word	0x100001c5
10000110:	100001c1 	.word	0x100001c1
10000114:	100001c1 	.word	0x100001c1
10000118:	100001c1 	.word	0x100001c1
1000011c:	100001c1 	.word	0x100001c1
10000120:	100001c1 	.word	0x100001c1
10000124:	100001c1 	.word	0x100001c1
10000128:	100001c1 	.word	0x100001c1
1000012c:	100001c7 	.word	0x100001c7
10000130:	100001c1 	.word	0x100001c1
10000134:	100001c1 	.word	0x100001c1
10000138:	100001c9 	.word	0x100001c9
1000013c:	100001cb 	.word	0x100001cb
10000140:	100001cd 	.word	0x100001cd
10000144:	100001cd 	.word	0x100001cd
10000148:	100001cd 	.word	0x100001cd
1000014c:	100001cd 	.word	0x100001cd
10000150:	100001cd 	.word	0x100001cd
10000154:	100001cd 	.word	0x100001cd
10000158:	100001cd 	.word	0x100001cd
1000015c:	100001cd 	.word	0x100001cd
10000160:	100001cd 	.word	0x100001cd
10000164:	100001cd 	.word	0x100001cd
10000168:	100001cd 	.word	0x100001cd
1000016c:	100001cd 	.word	0x100001cd
10000170:	100001cd 	.word	0x100001cd
10000174:	100001cd 	.word	0x100001cd
10000178:	100001cd 	.word	0x100001cd
1000017c:	100001cd 	.word	0x100001cd
10000180:	100001cd 	.word	0x100001cd
10000184:	100001cd 	.word	0x100001cd
10000188:	100001cd 	.word	0x100001cd
1000018c:	100001cd 	.word	0x100001cd
10000190:	100001cd 	.word	0x100001cd
10000194:	100001cd 	.word	0x100001cd
10000198:	100001cd 	.word	0x100001cd
1000019c:	100001cd 	.word	0x100001cd
100001a0:	100001cd 	.word	0x100001cd
100001a4:	100001cd 	.word	0x100001cd
100001a8:	100001cd 	.word	0x100001cd
100001ac:	100001cd 	.word	0x100001cd
100001b0:	100001cd 	.word	0x100001cd
100001b4:	100001cd 	.word	0x100001cd
100001b8:	100001cd 	.word	0x100001cd
100001bc:	100001cd 	.word	0x100001cd

100001c0 <isr_invalid>:
100001c0:	be00      	bkpt	0x0000

100001c2 <isr_nmi>:
100001c2:	be00      	bkpt	0x0000

100001c4 <isr_hardfault>:
100001c4:	be00      	bkpt	0x0000

100001c6 <isr_svcall>:
100001c6:	be00      	bkpt	0x0000

100001c8 <isr_pendsv>:
100001c8:	be00      	bkpt	0x0000

100001ca <isr_systick>:
100001ca:	be00      	bkpt	0x0000

100001cc <__unhandled_user_irq>:
100001cc:	f3ef 8005 	mrs	r0, IPSR
100001d0:	3810      	subs	r0, #16

100001d2 <unhandled_user_irq_num_in_r0>:
100001d2:	be00      	bkpt	0x0000

100001d4 <binary_info_header>:
100001d4:	7188ebf2 	.word	0x7188ebf2
100001d8:	1000da24 	.word	0x1000da24
100001dc:	1000da44 	.word	0x1000da44
100001e0:	10000238 	.word	0x10000238
100001e4:	e71aa390 	.word	0xe71aa390

100001e8 <_entry_point>:
100001e8:	481e      	ldr	r0, [pc, #120]	; (10000264 <data_cpy_table+0x2c>)

100001ea <_enter_vtable_in_r0>:
100001ea:	491f      	ldr	r1, [pc, #124]	; (10000268 <data_cpy_table+0x30>)
100001ec:	6008      	str	r0, [r1, #0]
100001ee:	c806      	ldmia	r0!, {r1, r2}
100001f0:	f381 8808 	msr	MSP, r1
100001f4:	4710      	bx	r2

100001f6 <_reset_handler>:
100001f6:	481d      	ldr	r0, [pc, #116]	; (1000026c <data_cpy_table+0x34>)
100001f8:	6800      	ldr	r0, [r0, #0]
100001fa:	2800      	cmp	r0, #0
100001fc:	d001      	beq.n	10000202 <hold_non_core0_in_bootrom+0x4>

100001fe <hold_non_core0_in_bootrom>:
100001fe:	4819      	ldr	r0, [pc, #100]	; (10000264 <data_cpy_table+0x2c>)
10000200:	e7f3      	b.n	100001ea <_enter_vtable_in_r0>
10000202:	a40d      	add	r4, pc, #52	; (adr r4, 10000238 <data_cpy_table>)
10000204:	cc0e      	ldmia	r4!, {r1, r2, r3}
10000206:	2900      	cmp	r1, #0
10000208:	d002      	beq.n	10000210 <hold_non_core0_in_bootrom+0x12>
1000020a:	f000 f812 	bl	10000232 <data_cpy>
1000020e:	e7f9      	b.n	10000204 <hold_non_core0_in_bootrom+0x6>
10000210:	4917      	ldr	r1, [pc, #92]	; (10000270 <data_cpy_table+0x38>)
10000212:	4a18      	ldr	r2, [pc, #96]	; (10000274 <data_cpy_table+0x3c>)
10000214:	2000      	movs	r0, #0
10000216:	e000      	b.n	1000021a <bss_fill_test>

10000218 <bss_fill_loop>:
10000218:	c101      	stmia	r1!, {r0}

1000021a <bss_fill_test>:
1000021a:	4291      	cmp	r1, r2
1000021c:	d1fc      	bne.n	10000218 <bss_fill_loop>

1000021e <platform_entry>:
1000021e:	4916      	ldr	r1, [pc, #88]	; (10000278 <data_cpy_table+0x40>)
10000220:	4788      	blx	r1
10000222:	4916      	ldr	r1, [pc, #88]	; (1000027c <data_cpy_table+0x44>)
10000224:	4788      	blx	r1
10000226:	4916      	ldr	r1, [pc, #88]	; (10000280 <data_cpy_table+0x48>)
10000228:	4788      	blx	r1
1000022a:	be00      	bkpt	0x0000
1000022c:	e7fd      	b.n	1000022a <platform_entry+0xc>

1000022e <data_cpy_loop>:
1000022e:	c901      	ldmia	r1!, {r0}
10000230:	c201      	stmia	r2!, {r0}

10000232 <data_cpy>:
10000232:	429a      	cmp	r2, r3
10000234:	d3fb      	bcc.n	1000022e <data_cpy_loop>
10000236:	4770      	bx	lr

10000238 <data_cpy_table>:
10000238:	1000da44 	.word	0x1000da44
1000023c:	200000c0 	.word	0x200000c0
10000240:	20001270 	.word	0x20001270
10000244:	1000ebf4 	.word	0x1000ebf4
10000248:	20040000 	.word	0x20040000
1000024c:	20040000 	.word	0x20040000
10000250:	1000ebf4 	.word	0x1000ebf4
10000254:	20041000 	.word	0x20041000
10000258:	20041000 	.word	0x20041000
1000025c:	00000000 	.word	0x00000000
10000260:	4770      	bx	lr
10000262:	0000      	.short	0x0000
10000264:	00000000 	.word	0x00000000
10000268:	e000ed08 	.word	0xe000ed08
1000026c:	d0000000 	.word	0xd0000000
10000270:	20001270 	.word	0x20001270
10000274:	20002c70 	.word	0x20002c70
10000278:	100073a5 	.word	0x100073a5
1000027c:	10000375 	.word	0x10000375
10000280:	10007361 	.word	0x10007361

10000284 <_init>:
10000284:	b5f8      	push	{r3, r4, r5, r6, r7, lr}
10000286:	46c0      	nop			; (mov r8, r8)

10000288 <deregister_tm_clones>:
10000288:	4804      	ldr	r0, [pc, #16]	; (1000029c <deregister_tm_clones+0x14>)
1000028a:	4b05      	ldr	r3, [pc, #20]	; (100002a0 <deregister_tm_clones+0x18>)
1000028c:	b510      	push	{r4, lr}
1000028e:	4283      	cmp	r3, r0
10000290:	d003      	beq.n	1000029a <deregister_tm_clones+0x12>
10000292:	4b04      	ldr	r3, [pc, #16]	; (100002a4 <deregister_tm_clones+0x1c>)
10000294:	2b00      	cmp	r3, #0
10000296:	d000      	beq.n	1000029a <deregister_tm_clones+0x12>
10000298:	4798      	blx	r3
1000029a:	bd10      	pop	{r4, pc}
1000029c:	20001270 	.word	0x20001270
100002a0:	20001270 	.word	0x20001270
100002a4:	00000000 	.word	0x00000000

100002a8 <register_tm_clones>:
100002a8:	4806      	ldr	r0, [pc, #24]	; (100002c4 <register_tm_clones+0x1c>)
100002aa:	4907      	ldr	r1, [pc, #28]	; (100002c8 <register_tm_clones+0x20>)
100002ac:	1a09      	subs	r1, r1, r0
100002ae:	108b      	asrs	r3, r1, #2
100002b0:	0fc9      	lsrs	r1, r1, #31
100002b2:	18c9      	adds	r1, r1, r3
100002b4:	b510      	push	{r4, lr}
100002b6:	1049      	asrs	r1, r1, #1
100002b8:	d003      	beq.n	100002c2 <register_tm_clones+0x1a>
100002ba:	4b04      	ldr	r3, [pc, #16]	; (100002cc <register_tm_clones+0x24>)
100002bc:	2b00      	cmp	r3, #0
100002be:	d000      	beq.n	100002c2 <register_tm_clones+0x1a>
100002c0:	4798      	blx	r3
100002c2:	bd10      	pop	{r4, pc}
100002c4:	20001270 	.word	0x20001270
100002c8:	20001270 	.word	0x20001270
100002cc:	00000000 	.word	0x00000000

100002d0 <__do_global_dtors_aux>:
100002d0:	b510      	push	{r4, lr}
100002d2:	4c07      	ldr	r4, [pc, #28]	; (100002f0 <__do_global_dtors_aux+0x20>)
100002d4:	7823      	ldrb	r3, [r4, #0]
100002d6:	2b00      	cmp	r3, #0
100002d8:	d109      	bne.n	100002ee <__do_global_dtors_aux+0x1e>
100002da:	f7ff ffd5 	bl	10000288 <deregister_tm_clones>
100002de:	4b05      	ldr	r3, [pc, #20]	; (100002f4 <__do_global_dtors_aux+0x24>)
100002e0:	2b00      	cmp	r3, #0
100002e2:	d002      	beq.n	100002ea <__do_global_dtors_aux+0x1a>
100002e4:	4804      	ldr	r0, [pc, #16]	; (100002f8 <__do_global_dtors_aux+0x28>)
100002e6:	e000      	b.n	100002ea <__do_global_dtors_aux+0x1a>
100002e8:	bf00      	nop
100002ea:	2301      	movs	r3, #1
100002ec:	7023      	strb	r3, [r4, #0]
100002ee:	bd10      	pop	{r4, pc}
100002f0:	200013f0 	.word	0x200013f0
100002f4:	00000000 	.word	0x00000000
100002f8:	1000bb44 	.word	0x1000bb44

100002fc <frame_dummy>:
100002fc:	4b05      	ldr	r3, [pc, #20]	; (10000314 <frame_dummy+0x18>)
100002fe:	b510      	push	{r4, lr}
10000300:	2b00      	cmp	r3, #0
10000302:	d003      	beq.n	1000030c <frame_dummy+0x10>
10000304:	4904      	ldr	r1, [pc, #16]	; (10000318 <frame_dummy+0x1c>)
10000306:	4805      	ldr	r0, [pc, #20]	; (1000031c <frame_dummy+0x20>)
10000308:	e000      	b.n	1000030c <frame_dummy+0x10>
1000030a:	bf00      	nop
1000030c:	f7ff ffcc 	bl	100002a8 <register_tm_clones>
10000310:	bd10      	pop	{r4, pc}
10000312:	46c0      	nop			; (mov r8, r8)
10000314:	00000000 	.word	0x00000000
10000318:	200013f4 	.word	0x200013f4
1000031c:	1000bb44 	.word	0x1000bb44

10000320 <tuh_mount_cb>:
10000320:	4770      	bx	lr

10000322 <tuh_umount_cb>:
10000322:	4770      	bx	lr

10000324 <led_blinking_task>:
10000324:	b510      	push	{r4, lr}
10000326:	f004 fcd7 	bl	10004cd8 <time_us_64>
1000032a:	2900      	cmp	r1, #0
1000032c:	d005      	beq.n	1000033a <led_blinking_task+0x16>
1000032e:	22fa      	movs	r2, #250	; 0xfa
10000330:	0092      	lsls	r2, r2, #2
10000332:	2300      	movs	r3, #0
10000334:	f005 f850 	bl	100053d8 <__wrap___aeabi_uldivmod>
10000338:	e003      	b.n	10000342 <led_blinking_task+0x1e>
1000033a:	21fa      	movs	r1, #250	; 0xfa
1000033c:	0089      	lsls	r1, r1, #2
1000033e:	f005 f80d 	bl	1000535c <__wrap___aeabi_uidiv>
10000342:	4b0a      	ldr	r3, [pc, #40]	; (1000036c <led_blinking_task+0x48>)
10000344:	681b      	ldr	r3, [r3, #0]
10000346:	1ac0      	subs	r0, r0, r3
10000348:	22fa      	movs	r2, #250	; 0xfa
1000034a:	0092      	lsls	r2, r2, #2
1000034c:	4290      	cmp	r0, r2
1000034e:	d200      	bcs.n	10000352 <led_blinking_task+0x2e>
10000350:	bd10      	pop	{r4, pc}
10000352:	4694      	mov	ip, r2
10000354:	4463      	add	r3, ip
10000356:	4a05      	ldr	r2, [pc, #20]	; (1000036c <led_blinking_task+0x48>)
10000358:	6013      	str	r3, [r2, #0]
1000035a:	4c05      	ldr	r4, [pc, #20]	; (10000370 <led_blinking_task+0x4c>)
1000035c:	7820      	ldrb	r0, [r4, #0]
1000035e:	f007 fb0f 	bl	10007980 <board_led_write>
10000362:	7823      	ldrb	r3, [r4, #0]
10000364:	2201      	movs	r2, #1
10000366:	4053      	eors	r3, r2
10000368:	7023      	strb	r3, [r4, #0]
1000036a:	e7f1      	b.n	10000350 <led_blinking_task+0x2c>
1000036c:	20002c58 	.word	0x20002c58
10000370:	20002c6f 	.word	0x20002c6f

10000374 <main>:
10000374:	b510      	push	{r4, lr}
10000376:	f007 faeb 	bl	10007950 <board_init>
1000037a:	480b      	ldr	r0, [pc, #44]	; (100003a8 <main+0x34>)
1000037c:	f007 f9ac 	bl	100076d8 <__wrap_puts>
10000380:	2000      	movs	r0, #0
10000382:	f008 f86d 	bl	10008460 <tuh_init>
10000386:	4b09      	ldr	r3, [pc, #36]	; (100003ac <main+0x38>)
10000388:	2b00      	cmp	r3, #0
1000038a:	d001      	beq.n	10000390 <main+0x1c>
1000038c:	e000      	b.n	10000390 <main+0x1c>
1000038e:	bf00      	nop
10000390:	f001 f99e 	bl	100016d0 <msc_app_init>
10000394:	2001      	movs	r0, #1
10000396:	2100      	movs	r1, #0
10000398:	4240      	negs	r0, r0
1000039a:	f008 fd41 	bl	10008e20 <tuh_task_ext>
1000039e:	f001 f801 	bl	100013a4 <msc_app_task>
100003a2:	f7ff ffbf 	bl	10000324 <led_blinking_task>
100003a6:	e7f5      	b.n	10000394 <main+0x20>
100003a8:	1000bb48 	.word	0x1000bb48
100003ac:	00000000 	.word	0x00000000

100003b0 <onCharInput>:
100003b0:	b570      	push	{r4, r5, r6, lr}
100003b2:	68c3      	ldr	r3, [r0, #12]
100003b4:	8c1a      	ldrh	r2, [r3, #32]
100003b6:	1c95      	adds	r5, r2, #2
100003b8:	8c5c      	ldrh	r4, [r3, #34]	; 0x22
100003ba:	42a5      	cmp	r5, r4
100003bc:	da0b      	bge.n	100003d6 <onCharInput+0x26>
100003be:	69dc      	ldr	r4, [r3, #28]
100003c0:	54a1      	strb	r1, [r4, r2]
100003c2:	8c1a      	ldrh	r2, [r3, #32]
100003c4:	3201      	adds	r2, #1
100003c6:	b292      	uxth	r2, r2
100003c8:	841a      	strh	r2, [r3, #32]
100003ca:	69db      	ldr	r3, [r3, #28]
100003cc:	189a      	adds	r2, r3, r2
100003ce:	2300      	movs	r3, #0
100003d0:	7013      	strb	r3, [r2, #0]
100003d2:	6803      	ldr	r3, [r0, #0]
100003d4:	4798      	blx	r3
100003d6:	bd70      	pop	{r4, r5, r6, pc}

100003d8 <isControlChar>:
100003d8:	280d      	cmp	r0, #13
100003da:	d00b      	beq.n	100003f4 <isControlChar+0x1c>
100003dc:	280a      	cmp	r0, #10
100003de:	d00b      	beq.n	100003f8 <isControlChar+0x20>
100003e0:	2808      	cmp	r0, #8
100003e2:	d00b      	beq.n	100003fc <isControlChar+0x24>
100003e4:	2809      	cmp	r0, #9
100003e6:	d00b      	beq.n	10000400 <isControlChar+0x28>
100003e8:	287f      	cmp	r0, #127	; 0x7f
100003ea:	d001      	beq.n	100003f0 <isControlChar+0x18>
100003ec:	2000      	movs	r0, #0
100003ee:	e002      	b.n	100003f6 <isControlChar+0x1e>
100003f0:	387e      	subs	r0, #126	; 0x7e
100003f2:	e000      	b.n	100003f6 <isControlChar+0x1e>
100003f4:	2001      	movs	r0, #1
100003f6:	4770      	bx	lr
100003f8:	2001      	movs	r0, #1
100003fa:	e7fc      	b.n	100003f6 <isControlChar+0x1e>
100003fc:	2001      	movs	r0, #1
100003fe:	e7fa      	b.n	100003f6 <isControlChar+0x1e>
10000400:	2001      	movs	r0, #1
10000402:	e7f8      	b.n	100003f6 <isControlChar+0x1e>

10000404 <isDisplayableChar>:
10000404:	0003      	movs	r3, r0
10000406:	3b20      	subs	r3, #32
10000408:	b2db      	uxtb	r3, r3
1000040a:	2000      	movs	r0, #0
1000040c:	225e      	movs	r2, #94	; 0x5e
1000040e:	429a      	cmp	r2, r3
10000410:	4140      	adcs	r0, r0
10000412:	b2c0      	uxtb	r0, r0
10000414:	4770      	bx	lr

10000416 <fifoBufAvailable>:
10000416:	88c3      	ldrh	r3, [r0, #6]
10000418:	8882      	ldrh	r2, [r0, #4]
1000041a:	4293      	cmp	r3, r2
1000041c:	d302      	bcc.n	10000424 <fifoBufAvailable+0xe>
1000041e:	1a9b      	subs	r3, r3, r2
10000420:	b298      	uxth	r0, r3
10000422:	4770      	bx	lr
10000424:	8900      	ldrh	r0, [r0, #8]
10000426:	1a80      	subs	r0, r0, r2
10000428:	b280      	uxth	r0, r0
1000042a:	1818      	adds	r0, r3, r0
1000042c:	b280      	uxth	r0, r0
1000042e:	e7f8      	b.n	10000422 <fifoBufAvailable+0xc>

10000430 <fifoBufPop>:
10000430:	b570      	push	{r4, r5, r6, lr}
10000432:	0004      	movs	r4, r0
10000434:	8880      	ldrh	r0, [r0, #4]
10000436:	88e3      	ldrh	r3, [r4, #6]
10000438:	4298      	cmp	r0, r3
1000043a:	d009      	beq.n	10000450 <fifoBufPop+0x20>
1000043c:	6823      	ldr	r3, [r4, #0]
1000043e:	5c1d      	ldrb	r5, [r3, r0]
10000440:	3001      	adds	r0, #1
10000442:	b280      	uxth	r0, r0
10000444:	8921      	ldrh	r1, [r4, #8]
10000446:	f004 ff89 	bl	1000535c <__wrap___aeabi_uidiv>
1000044a:	80a1      	strh	r1, [r4, #4]
1000044c:	0028      	movs	r0, r5
1000044e:	bd70      	pop	{r4, r5, r6, pc}
10000450:	2500      	movs	r5, #0
10000452:	e7fb      	b.n	1000044c <fifoBufPop+0x1c>

10000454 <fifoBufPush>:
10000454:	b570      	push	{r4, r5, r6, lr}
10000456:	0004      	movs	r4, r0
10000458:	000d      	movs	r5, r1
1000045a:	88c6      	ldrh	r6, [r0, #6]
1000045c:	1c70      	adds	r0, r6, #1
1000045e:	b280      	uxth	r0, r0
10000460:	8921      	ldrh	r1, [r4, #8]
10000462:	f004 ff7b 	bl	1000535c <__wrap___aeabi_uidiv>
10000466:	b289      	uxth	r1, r1
10000468:	88a2      	ldrh	r2, [r4, #4]
1000046a:	428a      	cmp	r2, r1
1000046c:	d004      	beq.n	10000478 <fifoBufPush+0x24>
1000046e:	6823      	ldr	r3, [r4, #0]
10000470:	559d      	strb	r5, [r3, r6]
10000472:	80e1      	strh	r1, [r4, #6]
10000474:	2001      	movs	r0, #1
10000476:	bd70      	pop	{r4, r5, r6, pc}
10000478:	2000      	movs	r0, #0
1000047a:	e7fc      	b.n	10000476 <fifoBufPush+0x22>

1000047c <getTokenPosition>:
1000047c:	b510      	push	{r4, lr}
1000047e:	1e02      	subs	r2, r0, #0
10000480:	d015      	beq.n	100004ae <getTokenPosition+0x32>
10000482:	2900      	cmp	r1, #0
10000484:	d015      	beq.n	100004b2 <getTokenPosition+0x36>
10000486:	2301      	movs	r3, #1
10000488:	2000      	movs	r0, #0
1000048a:	e001      	b.n	10000490 <getTokenPosition+0x14>
1000048c:	3001      	adds	r0, #1
1000048e:	b280      	uxth	r0, r0
10000490:	428b      	cmp	r3, r1
10000492:	d008      	beq.n	100004a6 <getTokenPosition+0x2a>
10000494:	5c14      	ldrb	r4, [r2, r0]
10000496:	2c00      	cmp	r4, #0
10000498:	d1f8      	bne.n	1000048c <getTokenPosition+0x10>
1000049a:	3301      	adds	r3, #1
1000049c:	b29b      	uxth	r3, r3
1000049e:	1814      	adds	r4, r2, r0
100004a0:	7864      	ldrb	r4, [r4, #1]
100004a2:	2c00      	cmp	r4, #0
100004a4:	d1f2      	bne.n	1000048c <getTokenPosition+0x10>
100004a6:	5c13      	ldrb	r3, [r2, r0]
100004a8:	2b00      	cmp	r3, #0
100004aa:	d004      	beq.n	100004b6 <getTokenPosition+0x3a>
100004ac:	bd10      	pop	{r4, pc}
100004ae:	4803      	ldr	r0, [pc, #12]	; (100004bc <getTokenPosition+0x40>)
100004b0:	e7fc      	b.n	100004ac <getTokenPosition+0x30>
100004b2:	4802      	ldr	r0, [pc, #8]	; (100004bc <getTokenPosition+0x40>)
100004b4:	e7fa      	b.n	100004ac <getTokenPosition+0x30>
100004b6:	4801      	ldr	r0, [pc, #4]	; (100004bc <getTokenPosition+0x40>)
100004b8:	e7f8      	b.n	100004ac <getTokenPosition+0x30>
100004ba:	46c0      	nop			; (mov r8, r8)
100004bc:	0000ffff 	.word	0x0000ffff

100004c0 <disk_io_complete>:
100004c0:	3801      	subs	r0, #1
100004c2:	4b02      	ldr	r3, [pc, #8]	; (100004cc <disk_io_complete+0xc>)
100004c4:	2200      	movs	r2, #0
100004c6:	541a      	strb	r2, [r3, r0]
100004c8:	2001      	movs	r0, #1
100004ca:	4770      	bx	lr
100004cc:	20001678 	.word	0x20001678

100004d0 <writeToOutput>:
100004d0:	b5f8      	push	{r3, r4, r5, r6, r7, lr}
100004d2:	0005      	movs	r5, r0
100004d4:	000f      	movs	r7, r1
100004d6:	0008      	movs	r0, r1
100004d8:	f00a fd34 	bl	1000af44 <strlen>
100004dc:	0006      	movs	r6, r0
100004de:	2400      	movs	r4, #0
100004e0:	e004      	b.n	100004ec <writeToOutput+0x1c>
100004e2:	5d39      	ldrb	r1, [r7, r4]
100004e4:	0028      	movs	r0, r5
100004e6:	682b      	ldr	r3, [r5, #0]
100004e8:	4798      	blx	r3
100004ea:	3401      	adds	r4, #1
100004ec:	42b4      	cmp	r4, r6
100004ee:	d3f8      	bcc.n	100004e2 <writeToOutput+0x12>
100004f0:	bdf8      	pop	{r3, r4, r5, r6, r7, pc}
	...

100004f4 <onUnknownCommand>:
100004f4:	b570      	push	{r4, r5, r6, lr}
100004f6:	0004      	movs	r4, r0
100004f8:	000d      	movs	r5, r1
100004fa:	4908      	ldr	r1, [pc, #32]	; (1000051c <onUnknownCommand+0x28>)
100004fc:	f7ff ffe8 	bl	100004d0 <writeToOutput>
10000500:	0029      	movs	r1, r5
10000502:	0020      	movs	r0, r4
10000504:	f7ff ffe4 	bl	100004d0 <writeToOutput>
10000508:	4905      	ldr	r1, [pc, #20]	; (10000520 <onUnknownCommand+0x2c>)
1000050a:	0020      	movs	r0, r4
1000050c:	f7ff ffe0 	bl	100004d0 <writeToOutput>
10000510:	4904      	ldr	r1, [pc, #16]	; (10000524 <onUnknownCommand+0x30>)
10000512:	0020      	movs	r0, r4
10000514:	f7ff ffdc 	bl	100004d0 <writeToOutput>
10000518:	bd70      	pop	{r4, r5, r6, pc}
1000051a:	46c0      	nop			; (mov r8, r8)
1000051c:	1000bdb8 	.word	0x1000bdb8
10000520:	1000bdcc 	.word	0x1000bdcc
10000524:	1000bf34 	.word	0x1000bf34

10000528 <clearCurrentLine>:
10000528:	b5f8      	push	{r3, r4, r5, r6, r7, lr}
1000052a:	0005      	movs	r5, r0
1000052c:	68c7      	ldr	r7, [r0, #12]
1000052e:	8e3e      	ldrh	r6, [r7, #48]	; 0x30
10000530:	6838      	ldr	r0, [r7, #0]
10000532:	f00a fd07 	bl	1000af44 <strlen>
10000536:	1836      	adds	r6, r6, r0
10000538:	210d      	movs	r1, #13
1000053a:	0028      	movs	r0, r5
1000053c:	682b      	ldr	r3, [r5, #0]
1000053e:	4798      	blx	r3
10000540:	2400      	movs	r4, #0
10000542:	e004      	b.n	1000054e <clearCurrentLine+0x26>
10000544:	2120      	movs	r1, #32
10000546:	0028      	movs	r0, r5
10000548:	682b      	ldr	r3, [r5, #0]
1000054a:	4798      	blx	r3
1000054c:	3401      	adds	r4, #1
1000054e:	42b4      	cmp	r4, r6
10000550:	d3f8      	bcc.n	10000544 <clearCurrentLine+0x1c>
10000552:	682b      	ldr	r3, [r5, #0]
10000554:	210d      	movs	r1, #13
10000556:	0028      	movs	r0, r5
10000558:	4798      	blx	r3
1000055a:	2300      	movs	r3, #0
1000055c:	863b      	strh	r3, [r7, #48]	; 0x30
1000055e:	bdf8      	pop	{r3, r4, r5, r6, r7, pc}

10000560 <getAutocompletedCommand>:
10000560:	b5f0      	push	{r4, r5, r6, r7, lr}
10000562:	46d6      	mov	lr, sl
10000564:	464f      	mov	r7, r9
10000566:	b580      	push	{r7, lr}
10000568:	b083      	sub	sp, #12
1000056a:	0007      	movs	r7, r0
1000056c:	000c      	movs	r4, r1
1000056e:	4691      	mov	r9, r2
10000570:	2300      	movs	r3, #0
10000572:	6003      	str	r3, [r0, #0]
10000574:	8083      	strh	r3, [r0, #4]
10000576:	80c3      	strh	r3, [r0, #6]
10000578:	0010      	movs	r0, r2
1000057a:	f00a fce3 	bl	1000af44 <strlen>
1000057e:	0006      	movs	r6, r0
10000580:	68e3      	ldr	r3, [r4, #12]
10000582:	469a      	mov	sl, r3
10000584:	8d9b      	ldrh	r3, [r3, #44]	; 0x2c
10000586:	2b00      	cmp	r3, #0
10000588:	d04e      	beq.n	10000628 <getAutocompletedCommand+0xc8>
1000058a:	2800      	cmp	r0, #0
1000058c:	d04c      	beq.n	10000628 <getAutocompletedCommand+0xc8>
1000058e:	2400      	movs	r4, #0
10000590:	e01e      	b.n	100005d0 <getAutocompletedCommand+0x70>
10000592:	2301      	movs	r3, #1
10000594:	2b00      	cmp	r3, #0
10000596:	d01a      	beq.n	100005ce <getAutocompletedCommand+0x6e>
10000598:	4653      	mov	r3, sl
1000059a:	6a9a      	ldr	r2, [r3, #40]	; 0x28
1000059c:	9b00      	ldr	r3, [sp, #0]
1000059e:	5cd3      	ldrb	r3, [r2, r3]
100005a0:	2101      	movs	r1, #1
100005a2:	430b      	orrs	r3, r1
100005a4:	9900      	ldr	r1, [sp, #0]
100005a6:	5453      	strb	r3, [r2, r1]
100005a8:	88fb      	ldrh	r3, [r7, #6]
100005aa:	2b00      	cmp	r3, #0
100005ac:	d002      	beq.n	100005b4 <getAutocompletedCommand+0x54>
100005ae:	88ba      	ldrh	r2, [r7, #4]
100005b0:	4282      	cmp	r2, r0
100005b2:	d901      	bls.n	100005b8 <getAutocompletedCommand+0x58>
100005b4:	9a01      	ldr	r2, [sp, #4]
100005b6:	80ba      	strh	r2, [r7, #4]
100005b8:	3301      	adds	r3, #1
100005ba:	b29b      	uxth	r3, r3
100005bc:	80fb      	strh	r3, [r7, #6]
100005be:	2b01      	cmp	r3, #1
100005c0:	d004      	beq.n	100005cc <getAutocompletedCommand+0x6c>
100005c2:	4653      	mov	r3, sl
100005c4:	8c1b      	ldrh	r3, [r3, #32]
100005c6:	e025      	b.n	10000614 <getAutocompletedCommand+0xb4>
100005c8:	2300      	movs	r3, #0
100005ca:	e7e3      	b.n	10000594 <getAutocompletedCommand+0x34>
100005cc:	603d      	str	r5, [r7, #0]
100005ce:	3401      	adds	r4, #1
100005d0:	4653      	mov	r3, sl
100005d2:	8d9b      	ldrh	r3, [r3, #44]	; 0x2c
100005d4:	42a3      	cmp	r3, r4
100005d6:	dd27      	ble.n	10000628 <getAutocompletedCommand+0xc8>
100005d8:	9400      	str	r4, [sp, #0]
100005da:	00a3      	lsls	r3, r4, #2
100005dc:	191b      	adds	r3, r3, r4
100005de:	009b      	lsls	r3, r3, #2
100005e0:	4652      	mov	r2, sl
100005e2:	6a52      	ldr	r2, [r2, #36]	; 0x24
100005e4:	58d5      	ldr	r5, [r2, r3]
100005e6:	0028      	movs	r0, r5
100005e8:	f00a fcac 	bl	1000af44 <strlen>
100005ec:	9001      	str	r0, [sp, #4]
100005ee:	4653      	mov	r3, sl
100005f0:	6a9a      	ldr	r2, [r3, #40]	; 0x28
100005f2:	5d13      	ldrb	r3, [r2, r4]
100005f4:	2101      	movs	r1, #1
100005f6:	438b      	bics	r3, r1
100005f8:	5513      	strb	r3, [r2, r4]
100005fa:	4286      	cmp	r6, r0
100005fc:	d8e7      	bhi.n	100005ce <getAutocompletedCommand+0x6e>
100005fe:	2300      	movs	r3, #0
10000600:	42b3      	cmp	r3, r6
10000602:	d2c6      	bcs.n	10000592 <getAutocompletedCommand+0x32>
10000604:	464a      	mov	r2, r9
10000606:	5cd1      	ldrb	r1, [r2, r3]
10000608:	5cea      	ldrb	r2, [r5, r3]
1000060a:	4291      	cmp	r1, r2
1000060c:	d1dc      	bne.n	100005c8 <getAutocompletedCommand+0x68>
1000060e:	3301      	adds	r3, #1
10000610:	e7f6      	b.n	10000600 <getAutocompletedCommand+0xa0>
10000612:	3301      	adds	r3, #1
10000614:	88ba      	ldrh	r2, [r7, #4]
10000616:	429a      	cmp	r2, r3
10000618:	d9d9      	bls.n	100005ce <getAutocompletedCommand+0x6e>
1000061a:	683a      	ldr	r2, [r7, #0]
1000061c:	5cd1      	ldrb	r1, [r2, r3]
1000061e:	5cea      	ldrb	r2, [r5, r3]
10000620:	4291      	cmp	r1, r2
10000622:	d0f6      	beq.n	10000612 <getAutocompletedCommand+0xb2>
10000624:	80bb      	strh	r3, [r7, #4]
10000626:	e7d2      	b.n	100005ce <getAutocompletedCommand+0x6e>
10000628:	0038      	movs	r0, r7
1000062a:	b003      	add	sp, #12
1000062c:	bcc0      	pop	{r6, r7}
1000062e:	46ba      	mov	sl, r7
10000630:	46b1      	mov	r9, r6
10000632:	bdf0      	pop	{r4, r5, r6, r7, pc}

10000634 <printLiveAutocompletion>:
10000634:	b5f0      	push	{r4, r5, r6, r7, lr}
10000636:	46c6      	mov	lr, r8
10000638:	b500      	push	{lr}
1000063a:	b082      	sub	sp, #8
1000063c:	0004      	movs	r4, r0
1000063e:	68c3      	ldr	r3, [r0, #12]
10000640:	4698      	mov	r8, r3
10000642:	2333      	movs	r3, #51	; 0x33
10000644:	4642      	mov	r2, r8
10000646:	5cd3      	ldrb	r3, [r2, r3]
10000648:	069b      	lsls	r3, r3, #26
1000064a:	d403      	bmi.n	10000654 <printLiveAutocompletion+0x20>
1000064c:	b002      	add	sp, #8
1000064e:	bc80      	pop	{r7}
10000650:	46b8      	mov	r8, r7
10000652:	bdf0      	pop	{r4, r5, r6, r7, pc}
10000654:	69d2      	ldr	r2, [r2, #28]
10000656:	0001      	movs	r1, r0
10000658:	4668      	mov	r0, sp
1000065a:	f7ff ff81 	bl	10000560 <getAutocompletedCommand>
1000065e:	466b      	mov	r3, sp
10000660:	88db      	ldrh	r3, [r3, #6]
10000662:	2b00      	cmp	r3, #0
10000664:	d103      	bne.n	1000066e <printLiveAutocompletion+0x3a>
10000666:	4643      	mov	r3, r8
10000668:	8c1b      	ldrh	r3, [r3, #32]
1000066a:	466a      	mov	r2, sp
1000066c:	8093      	strh	r3, [r2, #4]
1000066e:	4643      	mov	r3, r8
10000670:	8c1e      	ldrh	r6, [r3, #32]
10000672:	e005      	b.n	10000680 <printLiveAutocompletion+0x4c>
10000674:	9b00      	ldr	r3, [sp, #0]
10000676:	5d99      	ldrb	r1, [r3, r6]
10000678:	0020      	movs	r0, r4
1000067a:	6823      	ldr	r3, [r4, #0]
1000067c:	4798      	blx	r3
1000067e:	3601      	adds	r6, #1
10000680:	466b      	mov	r3, sp
10000682:	889f      	ldrh	r7, [r3, #4]
10000684:	003d      	movs	r5, r7
10000686:	42b7      	cmp	r7, r6
10000688:	d8f4      	bhi.n	10000674 <printLiveAutocompletion+0x40>
1000068a:	e004      	b.n	10000696 <printLiveAutocompletion+0x62>
1000068c:	2120      	movs	r1, #32
1000068e:	0020      	movs	r0, r4
10000690:	6823      	ldr	r3, [r4, #0]
10000692:	4798      	blx	r3
10000694:	3501      	adds	r5, #1
10000696:	4643      	mov	r3, r8
10000698:	8e1b      	ldrh	r3, [r3, #48]	; 0x30
1000069a:	42ab      	cmp	r3, r5
1000069c:	d8f6      	bhi.n	1000068c <printLiveAutocompletion+0x58>
1000069e:	4643      	mov	r3, r8
100006a0:	861f      	strh	r7, [r3, #48]	; 0x30
100006a2:	210d      	movs	r1, #13
100006a4:	0020      	movs	r0, r4
100006a6:	6823      	ldr	r3, [r4, #0]
100006a8:	4798      	blx	r3
100006aa:	4643      	mov	r3, r8
100006ac:	6819      	ldr	r1, [r3, #0]
100006ae:	0020      	movs	r0, r4
100006b0:	f7ff ff0e 	bl	100004d0 <writeToOutput>
100006b4:	4643      	mov	r3, r8
100006b6:	69d9      	ldr	r1, [r3, #28]
100006b8:	0020      	movs	r0, r4
100006ba:	f7ff ff09 	bl	100004d0 <writeToOutput>
100006be:	e7c5      	b.n	1000064c <printLiveAutocompletion+0x18>

100006c0 <onAutocompleteRequest>:
100006c0:	b5f0      	push	{r4, r5, r6, r7, lr}
100006c2:	b083      	sub	sp, #12
100006c4:	0006      	movs	r6, r0
100006c6:	68c4      	ldr	r4, [r0, #12]
100006c8:	69e2      	ldr	r2, [r4, #28]
100006ca:	0001      	movs	r1, r0
100006cc:	4668      	mov	r0, sp
100006ce:	f7ff ff47 	bl	10000560 <getAutocompletedCommand>
100006d2:	466b      	mov	r3, sp
100006d4:	88dd      	ldrh	r5, [r3, #6]
100006d6:	2d00      	cmp	r5, #0
100006d8:	d01d      	beq.n	10000716 <onAutocompleteRequest+0x56>
100006da:	2d01      	cmp	r5, #1
100006dc:	d003      	beq.n	100006e6 <onAutocompleteRequest+0x26>
100006de:	889a      	ldrh	r2, [r3, #4]
100006e0:	8c23      	ldrh	r3, [r4, #32]
100006e2:	429a      	cmp	r2, r3
100006e4:	d920      	bls.n	10000728 <onAutocompleteRequest+0x68>
100006e6:	466b      	mov	r3, sp
100006e8:	889f      	ldrh	r7, [r3, #4]
100006ea:	003a      	movs	r2, r7
100006ec:	9900      	ldr	r1, [sp, #0]
100006ee:	69e0      	ldr	r0, [r4, #28]
100006f0:	f005 fd40 	bl	10006174 <__wrap___aeabi_memcpy>
100006f4:	2d01      	cmp	r5, #1
100006f6:	d010      	beq.n	1000071a <onAutocompleteRequest+0x5a>
100006f8:	466b      	mov	r3, sp
100006fa:	889d      	ldrh	r5, [r3, #4]
100006fc:	69e3      	ldr	r3, [r4, #28]
100006fe:	195b      	adds	r3, r3, r5
10000700:	2200      	movs	r2, #0
10000702:	701a      	strb	r2, [r3, #0]
10000704:	8c21      	ldrh	r1, [r4, #32]
10000706:	69e3      	ldr	r3, [r4, #28]
10000708:	469c      	mov	ip, r3
1000070a:	4461      	add	r1, ip
1000070c:	0030      	movs	r0, r6
1000070e:	f7ff fedf 	bl	100004d0 <writeToOutput>
10000712:	8425      	strh	r5, [r4, #32]
10000714:	8625      	strh	r5, [r4, #48]	; 0x30
10000716:	b003      	add	sp, #12
10000718:	bdf0      	pop	{r4, r5, r6, r7, pc}
1000071a:	2320      	movs	r3, #32
1000071c:	69e2      	ldr	r2, [r4, #28]
1000071e:	55d3      	strb	r3, [r2, r7]
10000720:	3701      	adds	r7, #1
10000722:	466b      	mov	r3, sp
10000724:	809f      	strh	r7, [r3, #4]
10000726:	e7e7      	b.n	100006f8 <onAutocompleteRequest+0x38>
10000728:	0030      	movs	r0, r6
1000072a:	f7ff fefd 	bl	10000528 <clearCurrentLine>
1000072e:	2500      	movs	r5, #0
10000730:	e000      	b.n	10000734 <onAutocompleteRequest+0x74>
10000732:	3501      	adds	r5, #1
10000734:	8da3      	ldrh	r3, [r4, #44]	; 0x2c
10000736:	42ab      	cmp	r3, r5
10000738:	dd10      	ble.n	1000075c <onAutocompleteRequest+0x9c>
1000073a:	6aa3      	ldr	r3, [r4, #40]	; 0x28
1000073c:	5d5b      	ldrb	r3, [r3, r5]
1000073e:	07db      	lsls	r3, r3, #31
10000740:	d5f7      	bpl.n	10000732 <onAutocompleteRequest+0x72>
10000742:	00ab      	lsls	r3, r5, #2
10000744:	195b      	adds	r3, r3, r5
10000746:	009b      	lsls	r3, r3, #2
10000748:	6a62      	ldr	r2, [r4, #36]	; 0x24
1000074a:	58d1      	ldr	r1, [r2, r3]
1000074c:	0030      	movs	r0, r6
1000074e:	f7ff febf 	bl	100004d0 <writeToOutput>
10000752:	4908      	ldr	r1, [pc, #32]	; (10000774 <onAutocompleteRequest+0xb4>)
10000754:	0030      	movs	r0, r6
10000756:	f7ff febb 	bl	100004d0 <writeToOutput>
1000075a:	e7ea      	b.n	10000732 <onAutocompleteRequest+0x72>
1000075c:	6821      	ldr	r1, [r4, #0]
1000075e:	0030      	movs	r0, r6
10000760:	f7ff feb6 	bl	100004d0 <writeToOutput>
10000764:	69e1      	ldr	r1, [r4, #28]
10000766:	0030      	movs	r0, r6
10000768:	f7ff feb2 	bl	100004d0 <writeToOutput>
1000076c:	8c23      	ldrh	r3, [r4, #32]
1000076e:	8623      	strh	r3, [r4, #48]	; 0x30
10000770:	e7d1      	b.n	10000716 <onAutocompleteRequest+0x56>
10000772:	46c0      	nop			; (mov r8, r8)
10000774:	1000bf34 	.word	0x1000bf34

10000778 <inquiry_complete_cb>:
10000778:	b570      	push	{r4, r5, r6, lr}
1000077a:	b082      	sub	sp, #8
1000077c:	0004      	movs	r4, r0
1000077e:	680e      	ldr	r6, [r1, #0]
10000780:	684b      	ldr	r3, [r1, #4]
10000782:	7b1b      	ldrb	r3, [r3, #12]
10000784:	2b00      	cmp	r3, #0
10000786:	d13b      	bne.n	10000800 <inquiry_complete_cb+0x88>
10000788:	4922      	ldr	r1, [pc, #136]	; (10000814 <inquiry_complete_cb+0x9c>)
1000078a:	000b      	movs	r3, r1
1000078c:	3320      	adds	r3, #32
1000078e:	000a      	movs	r2, r1
10000790:	3210      	adds	r2, #16
10000792:	3108      	adds	r1, #8
10000794:	4820      	ldr	r0, [pc, #128]	; (10000818 <inquiry_complete_cb+0xa0>)
10000796:	f006 ffcf 	bl	10007738 <__wrap_printf>
1000079a:	7b71      	ldrb	r1, [r6, #13]
1000079c:	0020      	movs	r0, r4
1000079e:	f009 f951 	bl	10009a44 <tuh_msc_get_block_count>
100007a2:	0005      	movs	r5, r0
100007a4:	7b71      	ldrb	r1, [r6, #13]
100007a6:	0020      	movs	r0, r4
100007a8:	f009 f95a 	bl	10009a60 <tuh_msc_get_block_size>
100007ac:	0001      	movs	r1, r0
100007ae:	2080      	movs	r0, #128	; 0x80
100007b0:	0340      	lsls	r0, r0, #13
100007b2:	f004 fdd3 	bl	1000535c <__wrap___aeabi_uidiv>
100007b6:	0001      	movs	r1, r0
100007b8:	0028      	movs	r0, r5
100007ba:	f004 fdcf 	bl	1000535c <__wrap___aeabi_uidiv>
100007be:	0001      	movs	r1, r0
100007c0:	4816      	ldr	r0, [pc, #88]	; (1000081c <inquiry_complete_cb+0xa4>)
100007c2:	f006 ffb9 	bl	10007738 <__wrap_printf>
100007c6:	3c01      	subs	r4, #1
100007c8:	b2e4      	uxtb	r4, r4
100007ca:	a901      	add	r1, sp, #4
100007cc:	4a14      	ldr	r2, [pc, #80]	; (10000820 <inquiry_complete_cb+0xa8>)
100007ce:	8810      	ldrh	r0, [r2, #0]
100007d0:	8008      	strh	r0, [r1, #0]
100007d2:	7892      	ldrb	r2, [r2, #2]
100007d4:	708a      	strb	r2, [r1, #2]
100007d6:	0022      	movs	r2, r4
100007d8:	3230      	adds	r2, #48	; 0x30
100007da:	700a      	strb	r2, [r1, #0]
100007dc:	00e0      	lsls	r0, r4, #3
100007de:	1900      	adds	r0, r0, r4
100007e0:	00c0      	lsls	r0, r0, #3
100007e2:	1b00      	subs	r0, r0, r4
100007e4:	00c0      	lsls	r0, r0, #3
100007e6:	4b0f      	ldr	r3, [pc, #60]	; (10000824 <inquiry_complete_cb+0xac>)
100007e8:	18c0      	adds	r0, r0, r3
100007ea:	2201      	movs	r2, #1
100007ec:	f002 fb98 	bl	10002f20 <f_mount>
100007f0:	2800      	cmp	r0, #0
100007f2:	d10a      	bne.n	1000080a <inquiry_complete_cb+0x92>
100007f4:	a801      	add	r0, sp, #4
100007f6:	f002 fefd 	bl	100035f4 <f_chdir>
100007fa:	2001      	movs	r0, #1
100007fc:	b002      	add	sp, #8
100007fe:	bd70      	pop	{r4, r5, r6, pc}
10000800:	4809      	ldr	r0, [pc, #36]	; (10000828 <inquiry_complete_cb+0xb0>)
10000802:	f006 ff69 	bl	100076d8 <__wrap_puts>
10000806:	2000      	movs	r0, #0
10000808:	e7f8      	b.n	100007fc <inquiry_complete_cb+0x84>
1000080a:	4808      	ldr	r0, [pc, #32]	; (1000082c <inquiry_complete_cb+0xb4>)
1000080c:	f006 ff64 	bl	100076d8 <__wrap_puts>
10000810:	e7f0      	b.n	100007f4 <inquiry_complete_cb+0x7c>
10000812:	46c0      	nop			; (mov r8, r8)
10000814:	20002a14 	.word	0x20002a14
10000818:	1000be10 	.word	0x1000be10
1000081c:	1000be28 	.word	0x1000be28
10000820:	1000be4c 	.word	0x1000be4c
10000824:	2000211c 	.word	0x2000211c
10000828:	1000be00 	.word	0x1000be00
1000082c:	1000be3c 	.word	0x1000be3c

10000830 <wait_for_disk_io>:
10000830:	b510      	push	{r4, lr}
10000832:	0004      	movs	r4, r0
10000834:	e004      	b.n	10000840 <wait_for_disk_io+0x10>
10000836:	2001      	movs	r0, #1
10000838:	2100      	movs	r1, #0
1000083a:	4240      	negs	r0, r0
1000083c:	f008 faf0 	bl	10008e20 <tuh_task_ext>
10000840:	4b02      	ldr	r3, [pc, #8]	; (1000084c <wait_for_disk_io+0x1c>)
10000842:	5d1b      	ldrb	r3, [r3, r4]
10000844:	2b00      	cmp	r3, #0
10000846:	d1f6      	bne.n	10000836 <wait_for_disk_io+0x6>
10000848:	bd10      	pop	{r4, pc}
1000084a:	46c0      	nop			; (mov r8, r8)
1000084c:	20001678 	.word	0x20001678

10000850 <cli_write_char>:
10000850:	b510      	push	{r4, lr}
10000852:	0008      	movs	r0, r1
10000854:	f006 ff32 	bl	100076bc <__wrap_putchar>
10000858:	bd10      	pop	{r4, pc}
	...

1000085c <embeddedCliDefaultConfig>:
1000085c:	4806      	ldr	r0, [pc, #24]	; (10000878 <embeddedCliDefaultConfig+0x1c>)
1000085e:	2340      	movs	r3, #64	; 0x40
10000860:	8003      	strh	r3, [r0, #0]
10000862:	8043      	strh	r3, [r0, #2]
10000864:	3340      	adds	r3, #64	; 0x40
10000866:	8083      	strh	r3, [r0, #4]
10000868:	2300      	movs	r3, #0
1000086a:	6083      	str	r3, [r0, #8]
1000086c:	8183      	strh	r3, [r0, #12]
1000086e:	3308      	adds	r3, #8
10000870:	80c3      	strh	r3, [r0, #6]
10000872:	3b07      	subs	r3, #7
10000874:	7383      	strb	r3, [r0, #14]
10000876:	4770      	bx	lr
10000878:	20001f04 	.word	0x20001f04

1000087c <embeddedCliRequiredSize>:
1000087c:	0002      	movs	r2, r0
1000087e:	88c3      	ldrh	r3, [r0, #6]
10000880:	3301      	adds	r3, #1
10000882:	b29b      	uxth	r3, r3
10000884:	8800      	ldrh	r0, [r0, #0]
10000886:	3003      	adds	r0, #3
10000888:	0880      	lsrs	r0, r0, #2
1000088a:	8851      	ldrh	r1, [r2, #2]
1000088c:	3103      	adds	r1, #3
1000088e:	0889      	lsrs	r1, r1, #2
10000890:	1840      	adds	r0, r0, r1
10000892:	8892      	ldrh	r2, [r2, #4]
10000894:	3203      	adds	r2, #3
10000896:	0892      	lsrs	r2, r2, #2
10000898:	1880      	adds	r0, r0, r2
1000089a:	009a      	lsls	r2, r3, #2
1000089c:	18d2      	adds	r2, r2, r3
1000089e:	1880      	adds	r0, r0, r2
100008a0:	3303      	adds	r3, #3
100008a2:	089b      	lsrs	r3, r3, #2
100008a4:	18c0      	adds	r0, r0, r3
100008a6:	3011      	adds	r0, #17
100008a8:	0080      	lsls	r0, r0, #2
100008aa:	b280      	uxth	r0, r0
100008ac:	4770      	bx	lr

100008ae <embeddedCliReceiveChar>:
100008ae:	b510      	push	{r4, lr}
100008b0:	68c4      	ldr	r4, [r0, #12]
100008b2:	0020      	movs	r0, r4
100008b4:	3010      	adds	r0, #16
100008b6:	f7ff fdcd 	bl	10000454 <fifoBufPush>
100008ba:	2800      	cmp	r0, #0
100008bc:	d104      	bne.n	100008c8 <embeddedCliReceiveChar+0x1a>
100008be:	2233      	movs	r2, #51	; 0x33
100008c0:	5ca3      	ldrb	r3, [r4, r2]
100008c2:	2101      	movs	r1, #1
100008c4:	430b      	orrs	r3, r1
100008c6:	54a3      	strb	r3, [r4, r2]
100008c8:	bd10      	pop	{r4, pc}

100008ca <embeddedCliAddBinding>:
100008ca:	b084      	sub	sp, #16
100008cc:	b530      	push	{r4, r5, lr}
100008ce:	9104      	str	r1, [sp, #16]
100008d0:	9205      	str	r2, [sp, #20]
100008d2:	9306      	str	r3, [sp, #24]
100008d4:	68c1      	ldr	r1, [r0, #12]
100008d6:	8d8b      	ldrh	r3, [r1, #44]	; 0x2c
100008d8:	8dca      	ldrh	r2, [r1, #46]	; 0x2e
100008da:	4293      	cmp	r3, r2
100008dc:	d013      	beq.n	10000906 <embeddedCliAddBinding+0x3c>
100008de:	009a      	lsls	r2, r3, #2
100008e0:	18d2      	adds	r2, r2, r3
100008e2:	0092      	lsls	r2, r2, #2
100008e4:	6a4b      	ldr	r3, [r1, #36]	; 0x24
100008e6:	469c      	mov	ip, r3
100008e8:	4462      	add	r2, ip
100008ea:	ab04      	add	r3, sp, #16
100008ec:	cb31      	ldmia	r3!, {r0, r4, r5}
100008ee:	c231      	stmia	r2!, {r0, r4, r5}
100008f0:	0010      	movs	r0, r2
100008f2:	cb14      	ldmia	r3!, {r2, r4}
100008f4:	c014      	stmia	r0!, {r2, r4}
100008f6:	8d8b      	ldrh	r3, [r1, #44]	; 0x2c
100008f8:	3301      	adds	r3, #1
100008fa:	858b      	strh	r3, [r1, #44]	; 0x2c
100008fc:	2001      	movs	r0, #1
100008fe:	bc30      	pop	{r4, r5}
10000900:	bc08      	pop	{r3}
10000902:	b004      	add	sp, #16
10000904:	4718      	bx	r3
10000906:	2000      	movs	r0, #0
10000908:	e7f9      	b.n	100008fe <embeddedCliAddBinding+0x34>
	...

1000090c <initInternalBindings>:
1000090c:	b570      	push	{r4, r5, r6, lr}
1000090e:	b088      	sub	sp, #32
10000910:	ac03      	add	r4, sp, #12
10000912:	4b08      	ldr	r3, [pc, #32]	; (10000934 <initInternalBindings+0x28>)
10000914:	0022      	movs	r2, r4
10000916:	cb62      	ldmia	r3!, {r1, r5, r6}
10000918:	c262      	stmia	r2!, {r1, r5, r6}
1000091a:	cb22      	ldmia	r3!, {r1, r5}
1000091c:	c222      	stmia	r2!, {r1, r5}
1000091e:	ab06      	add	r3, sp, #24
10000920:	466a      	mov	r2, sp
10000922:	cb22      	ldmia	r3!, {r1, r5}
10000924:	c222      	stmia	r2!, {r1, r5}
10000926:	9903      	ldr	r1, [sp, #12]
10000928:	9a04      	ldr	r2, [sp, #16]
1000092a:	9b05      	ldr	r3, [sp, #20]
1000092c:	f7ff ffcd 	bl	100008ca <embeddedCliAddBinding>
10000930:	b008      	add	sp, #32
10000932:	bd70      	pop	{r4, r5, r6, pc}
10000934:	1000c080 	.word	0x1000c080

10000938 <embeddedCliNew>:
10000938:	b570      	push	{r4, r5, r6, lr}
1000093a:	0004      	movs	r4, r0
1000093c:	88c5      	ldrh	r5, [r0, #6]
1000093e:	3501      	adds	r5, #1
10000940:	b2ad      	uxth	r5, r5
10000942:	f7ff ff9b 	bl	1000087c <embeddedCliRequiredSize>
10000946:	0002      	movs	r2, r0
10000948:	68a6      	ldr	r6, [r4, #8]
1000094a:	2e00      	cmp	r6, #0
1000094c:	d03f      	beq.n	100009ce <embeddedCliNew+0x96>
1000094e:	89a1      	ldrh	r1, [r4, #12]
10000950:	4288      	cmp	r0, r1
10000952:	d83e      	bhi.n	100009d2 <embeddedCliNew+0x9a>
10000954:	2100      	movs	r1, #0
10000956:	0030      	movs	r0, r6
10000958:	f005 fc06 	bl	10006168 <__wrap_memset>
1000095c:	0033      	movs	r3, r6
1000095e:	3310      	adds	r3, #16
10000960:	60f3      	str	r3, [r6, #12]
10000962:	0032      	movs	r2, r6
10000964:	3244      	adds	r2, #68	; 0x44
10000966:	611a      	str	r2, [r3, #16]
10000968:	8821      	ldrh	r1, [r4, #0]
1000096a:	3103      	adds	r1, #3
1000096c:	2003      	movs	r0, #3
1000096e:	4381      	bics	r1, r0
10000970:	1852      	adds	r2, r2, r1
10000972:	61da      	str	r2, [r3, #28]
10000974:	8861      	ldrh	r1, [r4, #2]
10000976:	3103      	adds	r1, #3
10000978:	4381      	bics	r1, r0
1000097a:	1852      	adds	r2, r2, r1
1000097c:	625a      	str	r2, [r3, #36]	; 0x24
1000097e:	00a9      	lsls	r1, r5, #2
10000980:	1949      	adds	r1, r1, r5
10000982:	0089      	lsls	r1, r1, #2
10000984:	3103      	adds	r1, #3
10000986:	4381      	bics	r1, r0
10000988:	1852      	adds	r2, r2, r1
1000098a:	629a      	str	r2, [r3, #40]	; 0x28
1000098c:	3503      	adds	r5, #3
1000098e:	4385      	bics	r5, r0
10000990:	1952      	adds	r2, r2, r5
10000992:	605a      	str	r2, [r3, #4]
10000994:	88a2      	ldrh	r2, [r4, #4]
10000996:	811a      	strh	r2, [r3, #8]
10000998:	7ba2      	ldrb	r2, [r4, #14]
1000099a:	2a00      	cmp	r2, #0
1000099c:	d004      	beq.n	100009a8 <embeddedCliNew+0x70>
1000099e:	2133      	movs	r1, #51	; 0x33
100009a0:	5c5a      	ldrb	r2, [r3, r1]
100009a2:	2020      	movs	r0, #32
100009a4:	4302      	orrs	r2, r0
100009a6:	545a      	strb	r2, [r3, r1]
100009a8:	8822      	ldrh	r2, [r4, #0]
100009aa:	831a      	strh	r2, [r3, #24]
100009ac:	2200      	movs	r2, #0
100009ae:	829a      	strh	r2, [r3, #20]
100009b0:	82da      	strh	r2, [r3, #22]
100009b2:	8861      	ldrh	r1, [r4, #2]
100009b4:	8459      	strh	r1, [r3, #34]	; 0x22
100009b6:	859a      	strh	r2, [r3, #44]	; 0x2c
100009b8:	88e2      	ldrh	r2, [r4, #6]
100009ba:	3201      	adds	r2, #1
100009bc:	85da      	strh	r2, [r3, #46]	; 0x2e
100009be:	2100      	movs	r1, #0
100009c0:	2232      	movs	r2, #50	; 0x32
100009c2:	5499      	strb	r1, [r3, r2]
100009c4:	4a04      	ldr	r2, [pc, #16]	; (100009d8 <embeddedCliNew+0xa0>)
100009c6:	601a      	str	r2, [r3, #0]
100009c8:	0030      	movs	r0, r6
100009ca:	f7ff ff9f 	bl	1000090c <initInternalBindings>
100009ce:	0030      	movs	r0, r6
100009d0:	bd70      	pop	{r4, r5, r6, pc}
100009d2:	2600      	movs	r6, #0
100009d4:	e7fb      	b.n	100009ce <embeddedCliNew+0x96>
100009d6:	46c0      	nop			; (mov r8, r8)
100009d8:	1000be50 	.word	0x1000be50

100009dc <embeddedCliTokenizeArgs>:
100009dc:	b5f8      	push	{r3, r4, r5, r6, r7, lr}
100009de:	46ce      	mov	lr, r9
100009e0:	4647      	mov	r7, r8
100009e2:	b580      	push	{r7, lr}
100009e4:	1e07      	subs	r7, r0, #0
100009e6:	d038      	beq.n	10000a5a <embeddedCliTokenizeArgs+0x7e>
100009e8:	2500      	movs	r5, #0
100009ea:	2600      	movs	r6, #0
100009ec:	2300      	movs	r3, #0
100009ee:	4698      	mov	r8, r3
100009f0:	4699      	mov	r9, r3
100009f2:	e013      	b.n	10000a1c <embeddedCliTokenizeArgs+0x40>
100009f4:	2301      	movs	r3, #1
100009f6:	464a      	mov	r2, r9
100009f8:	405a      	eors	r2, r3
100009fa:	b2d3      	uxtb	r3, r2
100009fc:	4699      	mov	r9, r3
100009fe:	2400      	movs	r4, #0
10000a00:	e001      	b.n	10000a06 <embeddedCliTokenizeArgs+0x2a>
10000a02:	2300      	movs	r3, #0
10000a04:	4698      	mov	r8, r3
10000a06:	2c00      	cmp	r4, #0
10000a08:	d106      	bne.n	10000a18 <embeddedCliTokenizeArgs+0x3c>
10000a0a:	2e00      	cmp	r6, #0
10000a0c:	dd06      	ble.n	10000a1c <embeddedCliTokenizeArgs+0x40>
10000a0e:	19bb      	adds	r3, r7, r6
10000a10:	3b01      	subs	r3, #1
10000a12:	781b      	ldrb	r3, [r3, #0]
10000a14:	2b00      	cmp	r3, #0
10000a16:	d001      	beq.n	10000a1c <embeddedCliTokenizeArgs+0x40>
10000a18:	55bc      	strb	r4, [r7, r6]
10000a1a:	3601      	adds	r6, #1
10000a1c:	5d7c      	ldrb	r4, [r7, r5]
10000a1e:	2c00      	cmp	r4, #0
10000a20:	d015      	beq.n	10000a4e <embeddedCliTokenizeArgs+0x72>
10000a22:	3501      	adds	r5, #1
10000a24:	4643      	mov	r3, r8
10000a26:	2b00      	cmp	r3, #0
10000a28:	d1eb      	bne.n	10000a02 <embeddedCliTokenizeArgs+0x26>
10000a2a:	2c5c      	cmp	r4, #92	; 0x5c
10000a2c:	d00c      	beq.n	10000a48 <embeddedCliTokenizeArgs+0x6c>
10000a2e:	2c22      	cmp	r4, #34	; 0x22
10000a30:	d0e0      	beq.n	100009f4 <embeddedCliTokenizeArgs+0x18>
10000a32:	464b      	mov	r3, r9
10000a34:	2b00      	cmp	r3, #0
10000a36:	d1e6      	bne.n	10000a06 <embeddedCliTokenizeArgs+0x2a>
10000a38:	0021      	movs	r1, r4
10000a3a:	480a      	ldr	r0, [pc, #40]	; (10000a64 <embeddedCliTokenizeArgs+0x88>)
10000a3c:	f00a f9de 	bl	1000adfc <strchr>
10000a40:	2800      	cmp	r0, #0
10000a42:	d0e0      	beq.n	10000a06 <embeddedCliTokenizeArgs+0x2a>
10000a44:	2400      	movs	r4, #0
10000a46:	e7de      	b.n	10000a06 <embeddedCliTokenizeArgs+0x2a>
10000a48:	2301      	movs	r3, #1
10000a4a:	4698      	mov	r8, r3
10000a4c:	e7e6      	b.n	10000a1c <embeddedCliTokenizeArgs+0x40>
10000a4e:	19ba      	adds	r2, r7, r6
10000a50:	2300      	movs	r3, #0
10000a52:	7013      	strb	r3, [r2, #0]
10000a54:	3601      	adds	r6, #1
10000a56:	19be      	adds	r6, r7, r6
10000a58:	7033      	strb	r3, [r6, #0]
10000a5a:	bcc0      	pop	{r6, r7}
10000a5c:	46b9      	mov	r9, r7
10000a5e:	46b0      	mov	r8, r6
10000a60:	bdf8      	pop	{r3, r4, r5, r6, r7, pc}
10000a62:	46c0      	nop			; (mov r8, r8)
10000a64:	1000be54 	.word	0x1000be54

10000a68 <embeddedCliGetToken>:
10000a68:	b510      	push	{r4, lr}
10000a6a:	0004      	movs	r4, r0
10000a6c:	f7ff fd06 	bl	1000047c <getTokenPosition>
10000a70:	4b03      	ldr	r3, [pc, #12]	; (10000a80 <embeddedCliGetToken+0x18>)
10000a72:	4298      	cmp	r0, r3
10000a74:	d001      	beq.n	10000a7a <embeddedCliGetToken+0x12>
10000a76:	1820      	adds	r0, r4, r0
10000a78:	bd10      	pop	{r4, pc}
10000a7a:	2000      	movs	r0, #0
10000a7c:	e7fc      	b.n	10000a78 <embeddedCliGetToken+0x10>
10000a7e:	46c0      	nop			; (mov r8, r8)
10000a80:	0000ffff 	.word	0x0000ffff

10000a84 <historyGet>:
10000a84:	b510      	push	{r4, lr}
10000a86:	2900      	cmp	r1, #0
10000a88:	d006      	beq.n	10000a98 <historyGet+0x14>
10000a8a:	8903      	ldrh	r3, [r0, #8]
10000a8c:	428b      	cmp	r3, r1
10000a8e:	d305      	bcc.n	10000a9c <historyGet+0x18>
10000a90:	6800      	ldr	r0, [r0, #0]
10000a92:	f7ff ffe9 	bl	10000a68 <embeddedCliGetToken>
10000a96:	bd10      	pop	{r4, pc}
10000a98:	2000      	movs	r0, #0
10000a9a:	e7fc      	b.n	10000a96 <historyGet+0x12>
10000a9c:	2000      	movs	r0, #0
10000a9e:	e7fa      	b.n	10000a96 <historyGet+0x12>

10000aa0 <navigateHistory>:
10000aa0:	b5f0      	push	{r4, r5, r6, r7, lr}
10000aa2:	46c6      	mov	lr, r8
10000aa4:	b500      	push	{lr}
10000aa6:	0005      	movs	r5, r0
10000aa8:	000e      	movs	r6, r1
10000aaa:	68c4      	ldr	r4, [r0, #12]
10000aac:	89a3      	ldrh	r3, [r4, #12]
10000aae:	2b00      	cmp	r3, #0
10000ab0:	d037      	beq.n	10000b22 <navigateHistory+0x82>
10000ab2:	2900      	cmp	r1, #0
10000ab4:	d002      	beq.n	10000abc <navigateHistory+0x1c>
10000ab6:	8962      	ldrh	r2, [r4, #10]
10000ab8:	4293      	cmp	r3, r2
10000aba:	d032      	beq.n	10000b22 <navigateHistory+0x82>
10000abc:	2e00      	cmp	r6, #0
10000abe:	d102      	bne.n	10000ac6 <navigateHistory+0x26>
10000ac0:	8963      	ldrh	r3, [r4, #10]
10000ac2:	2b00      	cmp	r3, #0
10000ac4:	d02d      	beq.n	10000b22 <navigateHistory+0x82>
10000ac6:	0028      	movs	r0, r5
10000ac8:	f7ff fd2e 	bl	10000528 <clearCurrentLine>
10000acc:	6821      	ldr	r1, [r4, #0]
10000ace:	0028      	movs	r0, r5
10000ad0:	f7ff fcfe 	bl	100004d0 <writeToOutput>
10000ad4:	2e00      	cmp	r6, #0
10000ad6:	d027      	beq.n	10000b28 <navigateHistory+0x88>
10000ad8:	8963      	ldrh	r3, [r4, #10]
10000ada:	3301      	adds	r3, #1
10000adc:	8163      	strh	r3, [r4, #10]
10000ade:	8961      	ldrh	r1, [r4, #10]
10000ae0:	1d20      	adds	r0, r4, #4
10000ae2:	f7ff ffcf 	bl	10000a84 <historyGet>
10000ae6:	1e07      	subs	r7, r0, #0
10000ae8:	d022      	beq.n	10000b30 <navigateHistory+0x90>
10000aea:	0038      	movs	r0, r7
10000aec:	f00a fa2a 	bl	1000af44 <strlen>
10000af0:	b283      	uxth	r3, r0
10000af2:	4698      	mov	r8, r3
10000af4:	0406      	lsls	r6, r0, #16
10000af6:	0c36      	lsrs	r6, r6, #16
10000af8:	0032      	movs	r2, r6
10000afa:	0039      	movs	r1, r7
10000afc:	69e0      	ldr	r0, [r4, #28]
10000afe:	f005 fb39 	bl	10006174 <__wrap___aeabi_memcpy>
10000b02:	69e3      	ldr	r3, [r4, #28]
10000b04:	469c      	mov	ip, r3
10000b06:	4466      	add	r6, ip
10000b08:	2300      	movs	r3, #0
10000b0a:	7033      	strb	r3, [r6, #0]
10000b0c:	4643      	mov	r3, r8
10000b0e:	8423      	strh	r3, [r4, #32]
10000b10:	69e1      	ldr	r1, [r4, #28]
10000b12:	0028      	movs	r0, r5
10000b14:	f7ff fcdc 	bl	100004d0 <writeToOutput>
10000b18:	8c23      	ldrh	r3, [r4, #32]
10000b1a:	8623      	strh	r3, [r4, #48]	; 0x30
10000b1c:	0028      	movs	r0, r5
10000b1e:	f7ff fd89 	bl	10000634 <printLiveAutocompletion>
10000b22:	bc80      	pop	{r7}
10000b24:	46b8      	mov	r8, r7
10000b26:	bdf0      	pop	{r4, r5, r6, r7, pc}
10000b28:	8963      	ldrh	r3, [r4, #10]
10000b2a:	3b01      	subs	r3, #1
10000b2c:	8163      	strh	r3, [r4, #10]
10000b2e:	e7d6      	b.n	10000ade <navigateHistory+0x3e>
10000b30:	4f00      	ldr	r7, [pc, #0]	; (10000b34 <navigateHistory+0x94>)
10000b32:	e7da      	b.n	10000aea <navigateHistory+0x4a>
10000b34:	1000bf1c 	.word	0x1000bf1c

10000b38 <onEscapedInput>:
10000b38:	b570      	push	{r4, r5, r6, lr}
10000b3a:	68c2      	ldr	r2, [r0, #12]
10000b3c:	000b      	movs	r3, r1
10000b3e:	3b40      	subs	r3, #64	; 0x40
10000b40:	b2db      	uxtb	r3, r3
10000b42:	2b3e      	cmp	r3, #62	; 0x3e
10000b44:	d809      	bhi.n	10000b5a <onEscapedInput+0x22>
10000b46:	2433      	movs	r4, #51	; 0x33
10000b48:	5d13      	ldrb	r3, [r2, r4]
10000b4a:	2508      	movs	r5, #8
10000b4c:	43ab      	bics	r3, r5
10000b4e:	5513      	strb	r3, [r2, r4]
10000b50:	000b      	movs	r3, r1
10000b52:	3b41      	subs	r3, #65	; 0x41
10000b54:	b2db      	uxtb	r3, r3
10000b56:	2b01      	cmp	r3, #1
10000b58:	d900      	bls.n	10000b5c <onEscapedInput+0x24>
10000b5a:	bd70      	pop	{r4, r5, r6, pc}
10000b5c:	3941      	subs	r1, #65	; 0x41
10000b5e:	424b      	negs	r3, r1
10000b60:	4159      	adcs	r1, r3
10000b62:	b2c9      	uxtb	r1, r1
10000b64:	f7ff ff9c 	bl	10000aa0 <navigateHistory>
10000b68:	e7f7      	b.n	10000b5a <onEscapedInput+0x22>
	...

10000b6c <embeddedCliGetTokenVariable>:
10000b6c:	b510      	push	{r4, lr}
10000b6e:	0004      	movs	r4, r0
10000b70:	f7ff fc84 	bl	1000047c <getTokenPosition>
10000b74:	4b03      	ldr	r3, [pc, #12]	; (10000b84 <embeddedCliGetTokenVariable+0x18>)
10000b76:	4298      	cmp	r0, r3
10000b78:	d001      	beq.n	10000b7e <embeddedCliGetTokenVariable+0x12>
10000b7a:	1820      	adds	r0, r4, r0
10000b7c:	bd10      	pop	{r4, pc}
10000b7e:	2000      	movs	r0, #0
10000b80:	e7fc      	b.n	10000b7c <embeddedCliGetTokenVariable+0x10>
10000b82:	46c0      	nop			; (mov r8, r8)
10000b84:	0000ffff 	.word	0x0000ffff

10000b88 <historyRemove>:
10000b88:	b5f0      	push	{r4, r5, r6, r7, lr}
10000b8a:	46c6      	mov	lr, r8
10000b8c:	b500      	push	{lr}
10000b8e:	0007      	movs	r7, r0
10000b90:	4688      	mov	r8, r1
10000b92:	2900      	cmp	r1, #0
10000b94:	d028      	beq.n	10000be8 <historyRemove+0x60>
10000b96:	8906      	ldrh	r6, [r0, #8]
10000b98:	2e00      	cmp	r6, #0
10000b9a:	d025      	beq.n	10000be8 <historyRemove+0x60>
10000b9c:	2401      	movs	r4, #1
10000b9e:	e001      	b.n	10000ba4 <historyRemove+0x1c>
10000ba0:	3401      	adds	r4, #1
10000ba2:	b2a4      	uxth	r4, r4
10000ba4:	42a6      	cmp	r6, r4
10000ba6:	d30a      	bcc.n	10000bbe <historyRemove+0x36>
10000ba8:	0021      	movs	r1, r4
10000baa:	6838      	ldr	r0, [r7, #0]
10000bac:	f7ff ffde 	bl	10000b6c <embeddedCliGetTokenVariable>
10000bb0:	0005      	movs	r5, r0
10000bb2:	4641      	mov	r1, r8
10000bb4:	f00a f982 	bl	1000aebc <strcmp>
10000bb8:	2800      	cmp	r0, #0
10000bba:	d1f1      	bne.n	10000ba0 <historyRemove+0x18>
10000bbc:	e000      	b.n	10000bc0 <historyRemove+0x38>
10000bbe:	2500      	movs	r5, #0
10000bc0:	2d00      	cmp	r5, #0
10000bc2:	d011      	beq.n	10000be8 <historyRemove+0x60>
10000bc4:	3e01      	subs	r6, #1
10000bc6:	b2b6      	uxth	r6, r6
10000bc8:	813e      	strh	r6, [r7, #8]
10000bca:	3601      	adds	r6, #1
10000bcc:	42b4      	cmp	r4, r6
10000bce:	d00b      	beq.n	10000be8 <historyRemove+0x60>
10000bd0:	0028      	movs	r0, r5
10000bd2:	f00a f9b7 	bl	1000af44 <strlen>
10000bd6:	88ba      	ldrh	r2, [r7, #4]
10000bd8:	1c41      	adds	r1, r0, #1
10000bda:	1869      	adds	r1, r5, r1
10000bdc:	683b      	ldr	r3, [r7, #0]
10000bde:	1acb      	subs	r3, r1, r3
10000be0:	1ad2      	subs	r2, r2, r3
10000be2:	0028      	movs	r0, r5
10000be4:	f009 ffda 	bl	1000ab9c <memmove>
10000be8:	bc80      	pop	{r7}
10000bea:	46b8      	mov	r8, r7
10000bec:	bdf0      	pop	{r4, r5, r6, r7, pc}

10000bee <historyPut>:
10000bee:	b5f0      	push	{r4, r5, r6, r7, lr}
10000bf0:	46c6      	mov	lr, r8
10000bf2:	b500      	push	{lr}
10000bf4:	0005      	movs	r5, r0
10000bf6:	4688      	mov	r8, r1
10000bf8:	0008      	movs	r0, r1
10000bfa:	f00a f9a3 	bl	1000af44 <strlen>
10000bfe:	88ab      	ldrh	r3, [r5, #4]
10000c00:	1c47      	adds	r7, r0, #1
10000c02:	42bb      	cmp	r3, r7
10000c04:	d203      	bcs.n	10000c0e <historyPut+0x20>
10000c06:	2000      	movs	r0, #0
10000c08:	bc80      	pop	{r7}
10000c0a:	46b8      	mov	r8, r7
10000c0c:	bdf0      	pop	{r4, r5, r6, r7, pc}
10000c0e:	4641      	mov	r1, r8
10000c10:	0028      	movs	r0, r5
10000c12:	f7ff ffb9 	bl	10000b88 <historyRemove>
10000c16:	892e      	ldrh	r6, [r5, #8]
10000c18:	2e00      	cmp	r6, #0
10000c1a:	d011      	beq.n	10000c40 <historyPut+0x52>
10000c1c:	0031      	movs	r1, r6
10000c1e:	0028      	movs	r0, r5
10000c20:	f7ff ff30 	bl	10000a84 <historyGet>
10000c24:	0004      	movs	r4, r0
10000c26:	f00a f98d 	bl	1000af44 <strlen>
10000c2a:	682b      	ldr	r3, [r5, #0]
10000c2c:	1ae4      	subs	r4, r4, r3
10000c2e:	1824      	adds	r4, r4, r0
10000c30:	3401      	adds	r4, #1
10000c32:	88ab      	ldrh	r3, [r5, #4]
10000c34:	1b1b      	subs	r3, r3, r4
10000c36:	429f      	cmp	r7, r3
10000c38:	d902      	bls.n	10000c40 <historyPut+0x52>
10000c3a:	3e01      	subs	r6, #1
10000c3c:	812e      	strh	r6, [r5, #8]
10000c3e:	e7ea      	b.n	10000c16 <historyPut+0x28>
10000c40:	2e00      	cmp	r6, #0
10000c42:	d109      	bne.n	10000c58 <historyPut+0x6a>
10000c44:	003a      	movs	r2, r7
10000c46:	4641      	mov	r1, r8
10000c48:	6828      	ldr	r0, [r5, #0]
10000c4a:	f005 fa93 	bl	10006174 <__wrap___aeabi_memcpy>
10000c4e:	892b      	ldrh	r3, [r5, #8]
10000c50:	3301      	adds	r3, #1
10000c52:	812b      	strh	r3, [r5, #8]
10000c54:	2001      	movs	r0, #1
10000c56:	e7d7      	b.n	10000c08 <historyPut+0x1a>
10000c58:	682b      	ldr	r3, [r5, #0]
10000c5a:	19d8      	adds	r0, r3, r7
10000c5c:	0022      	movs	r2, r4
10000c5e:	0019      	movs	r1, r3
10000c60:	f009 ff9c 	bl	1000ab9c <memmove>
10000c64:	e7ee      	b.n	10000c44 <historyPut+0x56>

10000c66 <parseCommand>:
10000c66:	b5f0      	push	{r4, r5, r6, r7, lr}
10000c68:	46d6      	mov	lr, sl
10000c6a:	464f      	mov	r7, r9
10000c6c:	4646      	mov	r6, r8
10000c6e:	b5c0      	push	{r6, r7, lr}
10000c70:	b082      	sub	sp, #8
10000c72:	4682      	mov	sl, r0
10000c74:	68c4      	ldr	r4, [r0, #12]
10000c76:	2300      	movs	r3, #0
10000c78:	e000      	b.n	10000c7c <parseCommand+0x16>
10000c7a:	3301      	adds	r3, #1
10000c7c:	8c22      	ldrh	r2, [r4, #32]
10000c7e:	429a      	cmp	r2, r3
10000c80:	dd05      	ble.n	10000c8e <parseCommand+0x28>
10000c82:	69e2      	ldr	r2, [r4, #28]
10000c84:	5cd2      	ldrb	r2, [r2, r3]
10000c86:	2a20      	cmp	r2, #32
10000c88:	d0f7      	beq.n	10000c7a <parseCommand+0x14>
10000c8a:	2500      	movs	r5, #0
10000c8c:	e000      	b.n	10000c90 <parseCommand+0x2a>
10000c8e:	2501      	movs	r5, #1
10000c90:	2d00      	cmp	r5, #0
10000c92:	d005      	beq.n	10000ca0 <parseCommand+0x3a>
10000c94:	b002      	add	sp, #8
10000c96:	bce0      	pop	{r5, r6, r7}
10000c98:	46ba      	mov	sl, r7
10000c9a:	46b1      	mov	r9, r6
10000c9c:	46a8      	mov	r8, r5
10000c9e:	bdf0      	pop	{r4, r5, r6, r7, pc}
10000ca0:	1d20      	adds	r0, r4, #4
10000ca2:	69e1      	ldr	r1, [r4, #28]
10000ca4:	f7ff ffa3 	bl	10000bee <historyPut>
10000ca8:	2300      	movs	r3, #0
10000caa:	2200      	movs	r2, #0
10000cac:	4691      	mov	r9, r2
10000cae:	4690      	mov	r8, r2
10000cb0:	e007      	b.n	10000cc2 <parseCommand+0x5c>
10000cb2:	464a      	mov	r2, r9
10000cb4:	2a00      	cmp	r2, #0
10000cb6:	d016      	beq.n	10000ce6 <parseCommand+0x80>
10000cb8:	4642      	mov	r2, r8
10000cba:	2a00      	cmp	r2, #0
10000cbc:	d000      	beq.n	10000cc0 <parseCommand+0x5a>
10000cbe:	2501      	movs	r5, #1
10000cc0:	3301      	adds	r3, #1
10000cc2:	8c22      	ldrh	r2, [r4, #32]
10000cc4:	429a      	cmp	r2, r3
10000cc6:	dd12      	ble.n	10000cee <parseCommand+0x88>
10000cc8:	69e2      	ldr	r2, [r4, #28]
10000cca:	18d1      	adds	r1, r2, r3
10000ccc:	5cd2      	ldrb	r2, [r2, r3]
10000cce:	2a20      	cmp	r2, #32
10000cd0:	d0ef      	beq.n	10000cb2 <parseCommand+0x4c>
10000cd2:	4642      	mov	r2, r8
10000cd4:	2a00      	cmp	r2, #0
10000cd6:	d008      	beq.n	10000cea <parseCommand+0x84>
10000cd8:	464a      	mov	r2, r9
10000cda:	2a00      	cmp	r2, #0
10000cdc:	d1f0      	bne.n	10000cc0 <parseCommand+0x5a>
10000cde:	2d00      	cmp	r5, #0
10000ce0:	d0ee      	beq.n	10000cc0 <parseCommand+0x5a>
10000ce2:	4689      	mov	r9, r1
10000ce4:	e7ec      	b.n	10000cc0 <parseCommand+0x5a>
10000ce6:	700a      	strb	r2, [r1, #0]
10000ce8:	e7e6      	b.n	10000cb8 <parseCommand+0x52>
10000cea:	4688      	mov	r8, r1
10000cec:	e7e8      	b.n	10000cc0 <parseCommand+0x5a>
10000cee:	3201      	adds	r2, #1
10000cf0:	69e3      	ldr	r3, [r4, #28]
10000cf2:	469c      	mov	ip, r3
10000cf4:	4462      	add	r2, ip
10000cf6:	2300      	movs	r3, #0
10000cf8:	7013      	strb	r3, [r2, #0]
10000cfa:	4643      	mov	r3, r8
10000cfc:	2b00      	cmp	r3, #0
10000cfe:	d0c9      	beq.n	10000c94 <parseCommand+0x2e>
10000d00:	2700      	movs	r7, #0
10000d02:	8da3      	ldrh	r3, [r4, #44]	; 0x2c
10000d04:	42bb      	cmp	r3, r7
10000d06:	dd28      	ble.n	10000d5a <parseCommand+0xf4>
10000d08:	00bd      	lsls	r5, r7, #2
10000d0a:	19ed      	adds	r5, r5, r7
10000d0c:	00ad      	lsls	r5, r5, #2
10000d0e:	6a63      	ldr	r3, [r4, #36]	; 0x24
10000d10:	195e      	adds	r6, r3, r5
10000d12:	6831      	ldr	r1, [r6, #0]
10000d14:	4640      	mov	r0, r8
10000d16:	f00a f8d1 	bl	1000aebc <strcmp>
10000d1a:	2800      	cmp	r0, #0
10000d1c:	d001      	beq.n	10000d22 <parseCommand+0xbc>
10000d1e:	3701      	adds	r7, #1
10000d20:	e7ef      	b.n	10000d02 <parseCommand+0x9c>
10000d22:	6933      	ldr	r3, [r6, #16]
10000d24:	2b00      	cmp	r3, #0
10000d26:	d018      	beq.n	10000d5a <parseCommand+0xf4>
10000d28:	7a33      	ldrb	r3, [r6, #8]
10000d2a:	2b00      	cmp	r3, #0
10000d2c:	d111      	bne.n	10000d52 <parseCommand+0xec>
10000d2e:	2633      	movs	r6, #51	; 0x33
10000d30:	5da3      	ldrb	r3, [r4, r6]
10000d32:	2210      	movs	r2, #16
10000d34:	4313      	orrs	r3, r2
10000d36:	55a3      	strb	r3, [r4, r6]
10000d38:	6a63      	ldr	r3, [r4, #36]	; 0x24
10000d3a:	469c      	mov	ip, r3
10000d3c:	4465      	add	r5, ip
10000d3e:	692b      	ldr	r3, [r5, #16]
10000d40:	68ea      	ldr	r2, [r5, #12]
10000d42:	4649      	mov	r1, r9
10000d44:	4650      	mov	r0, sl
10000d46:	4798      	blx	r3
10000d48:	5da3      	ldrb	r3, [r4, r6]
10000d4a:	2210      	movs	r2, #16
10000d4c:	4393      	bics	r3, r2
10000d4e:	55a3      	strb	r3, [r4, r6]
10000d50:	e7a0      	b.n	10000c94 <parseCommand+0x2e>
10000d52:	4648      	mov	r0, r9
10000d54:	f7ff fe42 	bl	100009dc <embeddedCliTokenizeArgs>
10000d58:	e7e9      	b.n	10000d2e <parseCommand+0xc8>
10000d5a:	4653      	mov	r3, sl
10000d5c:	685b      	ldr	r3, [r3, #4]
10000d5e:	2b00      	cmp	r3, #0
10000d60:	d012      	beq.n	10000d88 <parseCommand+0x122>
10000d62:	4643      	mov	r3, r8
10000d64:	9300      	str	r3, [sp, #0]
10000d66:	464b      	mov	r3, r9
10000d68:	9301      	str	r3, [sp, #4]
10000d6a:	2533      	movs	r5, #51	; 0x33
10000d6c:	5d63      	ldrb	r3, [r4, r5]
10000d6e:	2210      	movs	r2, #16
10000d70:	4313      	orrs	r3, r2
10000d72:	5563      	strb	r3, [r4, r5]
10000d74:	4653      	mov	r3, sl
10000d76:	685b      	ldr	r3, [r3, #4]
10000d78:	4669      	mov	r1, sp
10000d7a:	4650      	mov	r0, sl
10000d7c:	4798      	blx	r3
10000d7e:	5d63      	ldrb	r3, [r4, r5]
10000d80:	2210      	movs	r2, #16
10000d82:	4393      	bics	r3, r2
10000d84:	5563      	strb	r3, [r4, r5]
10000d86:	e785      	b.n	10000c94 <parseCommand+0x2e>
10000d88:	4641      	mov	r1, r8
10000d8a:	4650      	mov	r0, sl
10000d8c:	f7ff fbb2 	bl	100004f4 <onUnknownCommand>
10000d90:	e780      	b.n	10000c94 <parseCommand+0x2e>
	...

10000d94 <onControlInput>:
10000d94:	b570      	push	{r4, r5, r6, lr}
10000d96:	0004      	movs	r4, r0
10000d98:	68c5      	ldr	r5, [r0, #12]
10000d9a:	2332      	movs	r3, #50	; 0x32
10000d9c:	5ceb      	ldrb	r3, [r5, r3]
10000d9e:	2b0d      	cmp	r3, #13
10000da0:	d00f      	beq.n	10000dc2 <onControlInput+0x2e>
10000da2:	2b0a      	cmp	r3, #10
10000da4:	d010      	beq.n	10000dc8 <onControlInput+0x34>
10000da6:	290d      	cmp	r1, #13
10000da8:	d011      	beq.n	10000dce <onControlInput+0x3a>
10000daa:	290a      	cmp	r1, #10
10000dac:	d00f      	beq.n	10000dce <onControlInput+0x3a>
10000dae:	2908      	cmp	r1, #8
10000db0:	d027      	beq.n	10000e02 <onControlInput+0x6e>
10000db2:	297f      	cmp	r1, #127	; 0x7f
10000db4:	d025      	beq.n	10000e02 <onControlInput+0x6e>
10000db6:	2909      	cmp	r1, #9
10000db8:	d11e      	bne.n	10000df8 <onControlInput+0x64>
10000dba:	0020      	movs	r0, r4
10000dbc:	f7ff fc80 	bl	100006c0 <onAutocompleteRequest>
10000dc0:	e01a      	b.n	10000df8 <onControlInput+0x64>
10000dc2:	290a      	cmp	r1, #10
10000dc4:	d1ed      	bne.n	10000da2 <onControlInput+0xe>
10000dc6:	e017      	b.n	10000df8 <onControlInput+0x64>
10000dc8:	290d      	cmp	r1, #13
10000dca:	d1ec      	bne.n	10000da6 <onControlInput+0x12>
10000dcc:	e014      	b.n	10000df8 <onControlInput+0x64>
10000dce:	0020      	movs	r0, r4
10000dd0:	f7ff fc76 	bl	100006c0 <onAutocompleteRequest>
10000dd4:	4917      	ldr	r1, [pc, #92]	; (10000e34 <onControlInput+0xa0>)
10000dd6:	0020      	movs	r0, r4
10000dd8:	f7ff fb7a 	bl	100004d0 <writeToOutput>
10000ddc:	8c2b      	ldrh	r3, [r5, #32]
10000dde:	2b00      	cmp	r3, #0
10000de0:	d10b      	bne.n	10000dfa <onControlInput+0x66>
10000de2:	2300      	movs	r3, #0
10000de4:	842b      	strh	r3, [r5, #32]
10000de6:	2200      	movs	r2, #0
10000de8:	69e9      	ldr	r1, [r5, #28]
10000dea:	700a      	strb	r2, [r1, #0]
10000dec:	862b      	strh	r3, [r5, #48]	; 0x30
10000dee:	816b      	strh	r3, [r5, #10]
10000df0:	6829      	ldr	r1, [r5, #0]
10000df2:	0020      	movs	r0, r4
10000df4:	f7ff fb6c 	bl	100004d0 <writeToOutput>
10000df8:	bd70      	pop	{r4, r5, r6, pc}
10000dfa:	0020      	movs	r0, r4
10000dfc:	f7ff ff33 	bl	10000c66 <parseCommand>
10000e00:	e7ef      	b.n	10000de2 <onControlInput+0x4e>
10000e02:	8c2b      	ldrh	r3, [r5, #32]
10000e04:	2b00      	cmp	r3, #0
10000e06:	d0d6      	beq.n	10000db6 <onControlInput+0x22>
10000e08:	2108      	movs	r1, #8
10000e0a:	0020      	movs	r0, r4
10000e0c:	6823      	ldr	r3, [r4, #0]
10000e0e:	4798      	blx	r3
10000e10:	2120      	movs	r1, #32
10000e12:	0020      	movs	r0, r4
10000e14:	6823      	ldr	r3, [r4, #0]
10000e16:	4798      	blx	r3
10000e18:	6823      	ldr	r3, [r4, #0]
10000e1a:	2108      	movs	r1, #8
10000e1c:	0020      	movs	r0, r4
10000e1e:	4798      	blx	r3
10000e20:	8c2b      	ldrh	r3, [r5, #32]
10000e22:	3b01      	subs	r3, #1
10000e24:	b29b      	uxth	r3, r3
10000e26:	842b      	strh	r3, [r5, #32]
10000e28:	69ea      	ldr	r2, [r5, #28]
10000e2a:	18d3      	adds	r3, r2, r3
10000e2c:	2200      	movs	r2, #0
10000e2e:	701a      	strb	r2, [r3, #0]
10000e30:	e7e2      	b.n	10000df8 <onControlInput+0x64>
10000e32:	46c0      	nop			; (mov r8, r8)
10000e34:	1000bf34 	.word	0x1000bf34

10000e38 <embeddedCliProcess>:
10000e38:	b570      	push	{r4, r5, r6, lr}
10000e3a:	0006      	movs	r6, r0
10000e3c:	6803      	ldr	r3, [r0, #0]
10000e3e:	2b00      	cmp	r3, #0
10000e40:	d050      	beq.n	10000ee4 <embeddedCliProcess+0xac>
10000e42:	68c5      	ldr	r5, [r0, #12]
10000e44:	2333      	movs	r3, #51	; 0x33
10000e46:	5ceb      	ldrb	r3, [r5, r3]
10000e48:	079a      	lsls	r2, r3, #30
10000e4a:	d40f      	bmi.n	10000e6c <embeddedCliProcess+0x34>
10000e4c:	2202      	movs	r2, #2
10000e4e:	4313      	orrs	r3, r2
10000e50:	2233      	movs	r2, #51	; 0x33
10000e52:	54ab      	strb	r3, [r5, r2]
10000e54:	6829      	ldr	r1, [r5, #0]
10000e56:	f7ff fb3b 	bl	100004d0 <writeToOutput>
10000e5a:	e007      	b.n	10000e6c <embeddedCliProcess+0x34>
10000e5c:	0030      	movs	r0, r6
10000e5e:	f7ff fe6b 	bl	10000b38 <onEscapedInput>
10000e62:	0030      	movs	r0, r6
10000e64:	f7ff fbe6 	bl	10000634 <printLiveAutocompletion>
10000e68:	2332      	movs	r3, #50	; 0x32
10000e6a:	54ec      	strb	r4, [r5, r3]
10000e6c:	002c      	movs	r4, r5
10000e6e:	3410      	adds	r4, #16
10000e70:	0020      	movs	r0, r4
10000e72:	f7ff fad0 	bl	10000416 <fifoBufAvailable>
10000e76:	2800      	cmp	r0, #0
10000e78:	d027      	beq.n	10000eca <embeddedCliProcess+0x92>
10000e7a:	0020      	movs	r0, r4
10000e7c:	f7ff fad8 	bl	10000430 <fifoBufPop>
10000e80:	0004      	movs	r4, r0
10000e82:	0001      	movs	r1, r0
10000e84:	2333      	movs	r3, #51	; 0x33
10000e86:	5ceb      	ldrb	r3, [r5, r3]
10000e88:	071a      	lsls	r2, r3, #28
10000e8a:	d4e7      	bmi.n	10000e5c <embeddedCliProcess+0x24>
10000e8c:	2232      	movs	r2, #50	; 0x32
10000e8e:	5caa      	ldrb	r2, [r5, r2]
10000e90:	2a1b      	cmp	r2, #27
10000e92:	d00e      	beq.n	10000eb2 <embeddedCliProcess+0x7a>
10000e94:	0020      	movs	r0, r4
10000e96:	f7ff fa9f 	bl	100003d8 <isControlChar>
10000e9a:	2800      	cmp	r0, #0
10000e9c:	d110      	bne.n	10000ec0 <embeddedCliProcess+0x88>
10000e9e:	0020      	movs	r0, r4
10000ea0:	f7ff fab0 	bl	10000404 <isDisplayableChar>
10000ea4:	2800      	cmp	r0, #0
10000ea6:	d0dc      	beq.n	10000e62 <embeddedCliProcess+0x2a>
10000ea8:	0021      	movs	r1, r4
10000eaa:	0030      	movs	r0, r6
10000eac:	f7ff fa80 	bl	100003b0 <onCharInput>
10000eb0:	e7d7      	b.n	10000e62 <embeddedCliProcess+0x2a>
10000eb2:	285b      	cmp	r0, #91	; 0x5b
10000eb4:	d1ee      	bne.n	10000e94 <embeddedCliProcess+0x5c>
10000eb6:	2208      	movs	r2, #8
10000eb8:	4313      	orrs	r3, r2
10000eba:	2233      	movs	r2, #51	; 0x33
10000ebc:	54ab      	strb	r3, [r5, r2]
10000ebe:	e7d0      	b.n	10000e62 <embeddedCliProcess+0x2a>
10000ec0:	0021      	movs	r1, r4
10000ec2:	0030      	movs	r0, r6
10000ec4:	f7ff ff66 	bl	10000d94 <onControlInput>
10000ec8:	e7cb      	b.n	10000e62 <embeddedCliProcess+0x2a>
10000eca:	2333      	movs	r3, #51	; 0x33
10000ecc:	5ceb      	ldrb	r3, [r5, r3]
10000ece:	07db      	lsls	r3, r3, #31
10000ed0:	d508      	bpl.n	10000ee4 <embeddedCliProcess+0xac>
10000ed2:	2300      	movs	r3, #0
10000ed4:	842b      	strh	r3, [r5, #32]
10000ed6:	69ea      	ldr	r2, [r5, #28]
10000ed8:	7013      	strb	r3, [r2, #0]
10000eda:	2233      	movs	r2, #51	; 0x33
10000edc:	5cab      	ldrb	r3, [r5, r2]
10000ede:	2101      	movs	r1, #1
10000ee0:	438b      	bics	r3, r1
10000ee2:	54ab      	strb	r3, [r5, r2]
10000ee4:	bd70      	pop	{r4, r5, r6, pc}

10000ee6 <embeddedCliGetTokenCount>:
10000ee6:	1e01      	subs	r1, r0, #0
10000ee8:	d010      	beq.n	10000f0c <embeddedCliGetTokenCount+0x26>
10000eea:	7803      	ldrb	r3, [r0, #0]
10000eec:	2b00      	cmp	r3, #0
10000eee:	d00f      	beq.n	10000f10 <embeddedCliGetTokenCount+0x2a>
10000ef0:	2001      	movs	r0, #1
10000ef2:	2300      	movs	r3, #0
10000ef4:	e000      	b.n	10000ef8 <embeddedCliGetTokenCount+0x12>
10000ef6:	3301      	adds	r3, #1
10000ef8:	5cca      	ldrb	r2, [r1, r3]
10000efa:	2a00      	cmp	r2, #0
10000efc:	d1fb      	bne.n	10000ef6 <embeddedCliGetTokenCount+0x10>
10000efe:	18ca      	adds	r2, r1, r3
10000f00:	7852      	ldrb	r2, [r2, #1]
10000f02:	2a00      	cmp	r2, #0
10000f04:	d005      	beq.n	10000f12 <embeddedCliGetTokenCount+0x2c>
10000f06:	3001      	adds	r0, #1
10000f08:	b280      	uxth	r0, r0
10000f0a:	e7f4      	b.n	10000ef6 <embeddedCliGetTokenCount+0x10>
10000f0c:	2000      	movs	r0, #0
10000f0e:	e000      	b.n	10000f12 <embeddedCliGetTokenCount+0x2c>
10000f10:	2000      	movs	r0, #0
10000f12:	4770      	bx	lr

10000f14 <onHelp>:
10000f14:	b5f8      	push	{r3, r4, r5, r6, r7, lr}
10000f16:	46ce      	mov	lr, r9
10000f18:	4647      	mov	r7, r8
10000f1a:	b580      	push	{r7, lr}
10000f1c:	0005      	movs	r5, r0
10000f1e:	000c      	movs	r4, r1
10000f20:	68c7      	ldr	r7, [r0, #12]
10000f22:	8dbe      	ldrh	r6, [r7, #44]	; 0x2c
10000f24:	2e00      	cmp	r6, #0
10000f26:	d012      	beq.n	10000f4e <onHelp+0x3a>
10000f28:	0008      	movs	r0, r1
10000f2a:	f7ff ffdc 	bl	10000ee6 <embeddedCliGetTokenCount>
10000f2e:	2800      	cmp	r0, #0
10000f30:	d03e      	beq.n	10000fb0 <onHelp+0x9c>
10000f32:	2801      	cmp	r0, #1
10000f34:	d03e      	beq.n	10000fb4 <onHelp+0xa0>
10000f36:	4943      	ldr	r1, [pc, #268]	; (10001044 <onHelp+0x130>)
10000f38:	0028      	movs	r0, r5
10000f3a:	f7ff fac9 	bl	100004d0 <writeToOutput>
10000f3e:	4942      	ldr	r1, [pc, #264]	; (10001048 <onHelp+0x134>)
10000f40:	0028      	movs	r0, r5
10000f42:	f7ff fac5 	bl	100004d0 <writeToOutput>
10000f46:	bcc0      	pop	{r6, r7}
10000f48:	46b9      	mov	r9, r7
10000f4a:	46b0      	mov	r8, r6
10000f4c:	bdf8      	pop	{r3, r4, r5, r6, r7, pc}
10000f4e:	493f      	ldr	r1, [pc, #252]	; (1000104c <onHelp+0x138>)
10000f50:	f7ff fabe 	bl	100004d0 <writeToOutput>
10000f54:	493c      	ldr	r1, [pc, #240]	; (10001048 <onHelp+0x134>)
10000f56:	0028      	movs	r0, r5
10000f58:	f7ff faba 	bl	100004d0 <writeToOutput>
10000f5c:	e7f3      	b.n	10000f46 <onHelp+0x32>
10000f5e:	3601      	adds	r6, #1
10000f60:	8dbb      	ldrh	r3, [r7, #44]	; 0x2c
10000f62:	42b3      	cmp	r3, r6
10000f64:	ddef      	ble.n	10000f46 <onHelp+0x32>
10000f66:	493a      	ldr	r1, [pc, #232]	; (10001050 <onHelp+0x13c>)
10000f68:	0028      	movs	r0, r5
10000f6a:	f7ff fab1 	bl	100004d0 <writeToOutput>
10000f6e:	00b4      	lsls	r4, r6, #2
10000f70:	19a4      	adds	r4, r4, r6
10000f72:	00a4      	lsls	r4, r4, #2
10000f74:	6a7b      	ldr	r3, [r7, #36]	; 0x24
10000f76:	5919      	ldr	r1, [r3, r4]
10000f78:	0028      	movs	r0, r5
10000f7a:	f7ff faa9 	bl	100004d0 <writeToOutput>
10000f7e:	4932      	ldr	r1, [pc, #200]	; (10001048 <onHelp+0x134>)
10000f80:	0028      	movs	r0, r5
10000f82:	f7ff faa5 	bl	100004d0 <writeToOutput>
10000f86:	6a7b      	ldr	r3, [r7, #36]	; 0x24
10000f88:	191b      	adds	r3, r3, r4
10000f8a:	685b      	ldr	r3, [r3, #4]
10000f8c:	2b00      	cmp	r3, #0
10000f8e:	d0e6      	beq.n	10000f5e <onHelp+0x4a>
10000f90:	2109      	movs	r1, #9
10000f92:	0028      	movs	r0, r5
10000f94:	682b      	ldr	r3, [r5, #0]
10000f96:	4798      	blx	r3
10000f98:	6a7b      	ldr	r3, [r7, #36]	; 0x24
10000f9a:	469c      	mov	ip, r3
10000f9c:	4464      	add	r4, ip
10000f9e:	6861      	ldr	r1, [r4, #4]
10000fa0:	0028      	movs	r0, r5
10000fa2:	f7ff fa95 	bl	100004d0 <writeToOutput>
10000fa6:	4928      	ldr	r1, [pc, #160]	; (10001048 <onHelp+0x134>)
10000fa8:	0028      	movs	r0, r5
10000faa:	f7ff fa91 	bl	100004d0 <writeToOutput>
10000fae:	e7d6      	b.n	10000f5e <onHelp+0x4a>
10000fb0:	2600      	movs	r6, #0
10000fb2:	e7d5      	b.n	10000f60 <onHelp+0x4c>
10000fb4:	2101      	movs	r1, #1
10000fb6:	0020      	movs	r0, r4
10000fb8:	f7ff fd56 	bl	10000a68 <embeddedCliGetToken>
10000fbc:	4680      	mov	r8, r0
10000fbe:	2400      	movs	r4, #0
10000fc0:	42a6      	cmp	r6, r4
10000fc2:	dd2e      	ble.n	10001022 <onHelp+0x10e>
10000fc4:	00a3      	lsls	r3, r4, #2
10000fc6:	191b      	adds	r3, r3, r4
10000fc8:	009b      	lsls	r3, r3, #2
10000fca:	6a7a      	ldr	r2, [r7, #36]	; 0x24
10000fcc:	4691      	mov	r9, r2
10000fce:	4499      	add	r9, r3
10000fd0:	4641      	mov	r1, r8
10000fd2:	464b      	mov	r3, r9
10000fd4:	6818      	ldr	r0, [r3, #0]
10000fd6:	f009 ff71 	bl	1000aebc <strcmp>
10000fda:	2800      	cmp	r0, #0
10000fdc:	d001      	beq.n	10000fe2 <onHelp+0xce>
10000fde:	3401      	adds	r4, #1
10000fe0:	e7ee      	b.n	10000fc0 <onHelp+0xac>
10000fe2:	464b      	mov	r3, r9
10000fe4:	685c      	ldr	r4, [r3, #4]
10000fe6:	2c00      	cmp	r4, #0
10000fe8:	d019      	beq.n	1000101e <onHelp+0x10a>
10000fea:	4919      	ldr	r1, [pc, #100]	; (10001050 <onHelp+0x13c>)
10000fec:	0028      	movs	r0, r5
10000fee:	f7ff fa6f 	bl	100004d0 <writeToOutput>
10000ff2:	4641      	mov	r1, r8
10000ff4:	0028      	movs	r0, r5
10000ff6:	f7ff fa6b 	bl	100004d0 <writeToOutput>
10000ffa:	4e13      	ldr	r6, [pc, #76]	; (10001048 <onHelp+0x134>)
10000ffc:	0031      	movs	r1, r6
10000ffe:	0028      	movs	r0, r5
10001000:	f7ff fa66 	bl	100004d0 <writeToOutput>
10001004:	2109      	movs	r1, #9
10001006:	0028      	movs	r0, r5
10001008:	682b      	ldr	r3, [r5, #0]
1000100a:	4798      	blx	r3
1000100c:	0021      	movs	r1, r4
1000100e:	0028      	movs	r0, r5
10001010:	f7ff fa5e 	bl	100004d0 <writeToOutput>
10001014:	0031      	movs	r1, r6
10001016:	0028      	movs	r0, r5
10001018:	f7ff fa5a 	bl	100004d0 <writeToOutput>
1000101c:	e793      	b.n	10000f46 <onHelp+0x32>
1000101e:	2301      	movs	r3, #1
10001020:	e000      	b.n	10001024 <onHelp+0x110>
10001022:	2300      	movs	r3, #0
10001024:	2b00      	cmp	r3, #0
10001026:	d008      	beq.n	1000103a <onHelp+0x126>
10001028:	4908      	ldr	r1, [pc, #32]	; (1000104c <onHelp+0x138>)
1000102a:	0028      	movs	r0, r5
1000102c:	f7ff fa50 	bl	100004d0 <writeToOutput>
10001030:	4905      	ldr	r1, [pc, #20]	; (10001048 <onHelp+0x134>)
10001032:	0028      	movs	r0, r5
10001034:	f7ff fa4c 	bl	100004d0 <writeToOutput>
10001038:	e785      	b.n	10000f46 <onHelp+0x32>
1000103a:	4641      	mov	r1, r8
1000103c:	0028      	movs	r0, r5
1000103e:	f7ff fa59 	bl	100004f4 <onUnknownCommand>
10001042:	e780      	b.n	10000f46 <onHelp+0x32>
10001044:	1000be74 	.word	0x1000be74
10001048:	1000bf34 	.word	0x1000bf34
1000104c:	1000be58 	.word	0x1000be58
10001050:	1000be70 	.word	0x1000be70

10001054 <cli_cmd_cat>:
10001054:	b5f0      	push	{r4, r5, r6, r7, lr}
10001056:	4c24      	ldr	r4, [pc, #144]	; (100010e8 <cli_cmd_cat+0x94>)
10001058:	44a5      	add	sp, r4
1000105a:	000f      	movs	r7, r1
1000105c:	0008      	movs	r0, r1
1000105e:	f7ff ff42 	bl	10000ee6 <embeddedCliGetTokenCount>
10001062:	1e06      	subs	r6, r0, #0
10001064:	d001      	beq.n	1000106a <cli_cmd_cat+0x16>
10001066:	2500      	movs	r5, #0
10001068:	e00c      	b.n	10001084 <cli_cmd_cat+0x30>
1000106a:	4820      	ldr	r0, [pc, #128]	; (100010ec <cli_cmd_cat+0x98>)
1000106c:	f006 fb34 	bl	100076d8 <__wrap_puts>
10001070:	4b1f      	ldr	r3, [pc, #124]	; (100010f0 <cli_cmd_cat+0x9c>)
10001072:	449d      	add	sp, r3
10001074:	bdf0      	pop	{r4, r5, r6, r7, pc}
10001076:	0021      	movs	r1, r4
10001078:	481e      	ldr	r0, [pc, #120]	; (100010f4 <cli_cmd_cat+0xa0>)
1000107a:	f006 fb5d 	bl	10007738 <__wrap_printf>
1000107e:	a882      	add	r0, sp, #520	; 0x208
10001080:	f002 faa6 	bl	100035d0 <f_close>
10001084:	42b5      	cmp	r5, r6
10001086:	d2f3      	bcs.n	10001070 <cli_cmd_cat+0x1c>
10001088:	3501      	adds	r5, #1
1000108a:	b2ad      	uxth	r5, r5
1000108c:	0029      	movs	r1, r5
1000108e:	0038      	movs	r0, r7
10001090:	f7ff fcea 	bl	10000a68 <embeddedCliGetToken>
10001094:	0004      	movs	r4, r0
10001096:	2201      	movs	r2, #1
10001098:	0001      	movs	r1, r0
1000109a:	a882      	add	r0, sp, #520	; 0x208
1000109c:	f001 ff6e 	bl	10002f7c <f_open>
100010a0:	2800      	cmp	r0, #0
100010a2:	d1e8      	bne.n	10001076 <cli_cmd_cat+0x22>
100010a4:	2300      	movs	r3, #0
100010a6:	9301      	str	r3, [sp, #4]
100010a8:	2280      	movs	r2, #128	; 0x80
100010aa:	ab01      	add	r3, sp, #4
100010ac:	0092      	lsls	r2, r2, #2
100010ae:	a902      	add	r1, sp, #8
100010b0:	a882      	add	r0, sp, #520	; 0x208
100010b2:	f002 f86f 	bl	10003194 <f_read>
100010b6:	2800      	cmp	r0, #0
100010b8:	d1e1      	bne.n	1000107e <cli_cmd_cat+0x2a>
100010ba:	9b01      	ldr	r3, [sp, #4]
100010bc:	2b00      	cmp	r3, #0
100010be:	d0de      	beq.n	1000107e <cli_cmd_cat+0x2a>
100010c0:	2400      	movs	r4, #0
100010c2:	e003      	b.n	100010cc <cli_cmd_cat+0x78>
100010c4:	202e      	movs	r0, #46	; 0x2e
100010c6:	f006 faf9 	bl	100076bc <__wrap_putchar>
100010ca:	3401      	adds	r4, #1
100010cc:	9b01      	ldr	r3, [sp, #4]
100010ce:	42a3      	cmp	r3, r4
100010d0:	d9ea      	bls.n	100010a8 <cli_cmd_cat+0x54>
100010d2:	ab02      	add	r3, sp, #8
100010d4:	5d18      	ldrb	r0, [r3, r4]
100010d6:	4b08      	ldr	r3, [pc, #32]	; (100010f8 <cli_cmd_cat+0xa4>)
100010d8:	5c1b      	ldrb	r3, [r3, r0]
100010da:	2248      	movs	r2, #72	; 0x48
100010dc:	4393      	bics	r3, r2
100010de:	d0f1      	beq.n	100010c4 <cli_cmd_cat+0x70>
100010e0:	f006 faec 	bl	100076bc <__wrap_putchar>
100010e4:	e7f1      	b.n	100010ca <cli_cmd_cat+0x76>
100010e6:	46c0      	nop			; (mov r8, r8)
100010e8:	fffffbcc 	.word	0xfffffbcc
100010ec:	1000bea4 	.word	0x1000bea4
100010f0:	00000434 	.word	0x00000434
100010f4:	1000beb8 	.word	0x1000beb8
100010f8:	1000d91d 	.word	0x1000d91d

100010fc <cli_cmd_cd>:
100010fc:	b510      	push	{r4, lr}
100010fe:	000c      	movs	r4, r1
10001100:	0008      	movs	r0, r1
10001102:	f7ff fef0 	bl	10000ee6 <embeddedCliGetTokenCount>
10001106:	2801      	cmp	r0, #1
10001108:	d003      	beq.n	10001112 <cli_cmd_cd+0x16>
1000110a:	4807      	ldr	r0, [pc, #28]	; (10001128 <cli_cmd_cd+0x2c>)
1000110c:	f006 fae4 	bl	100076d8 <__wrap_puts>
10001110:	bd10      	pop	{r4, pc}
10001112:	0020      	movs	r0, r4
10001114:	f002 fa6e 	bl	100035f4 <f_chdir>
10001118:	2800      	cmp	r0, #0
1000111a:	d0f9      	beq.n	10001110 <cli_cmd_cd+0x14>
1000111c:	0021      	movs	r1, r4
1000111e:	4803      	ldr	r0, [pc, #12]	; (1000112c <cli_cmd_cd+0x30>)
10001120:	f006 fb0a 	bl	10007738 <__wrap_printf>
10001124:	e7f4      	b.n	10001110 <cli_cmd_cd+0x14>
10001126:	46c0      	nop			; (mov r8, r8)
10001128:	1000bea4 	.word	0x1000bea4
1000112c:	1000beb8 	.word	0x1000beb8

10001130 <cli_cmd_cp>:
10001130:	b530      	push	{r4, r5, lr}
10001132:	4c2a      	ldr	r4, [pc, #168]	; (100011dc <cli_cmd_cp+0xac>)
10001134:	44a5      	add	sp, r4
10001136:	000c      	movs	r4, r1
10001138:	0008      	movs	r0, r1
1000113a:	f7ff fed4 	bl	10000ee6 <embeddedCliGetTokenCount>
1000113e:	2802      	cmp	r0, #2
10001140:	d005      	beq.n	1000114e <cli_cmd_cp+0x1e>
10001142:	4827      	ldr	r0, [pc, #156]	; (100011e0 <cli_cmd_cp+0xb0>)
10001144:	f006 fac8 	bl	100076d8 <__wrap_puts>
10001148:	4b26      	ldr	r3, [pc, #152]	; (100011e4 <cli_cmd_cp+0xb4>)
1000114a:	449d      	add	sp, r3
1000114c:	bd30      	pop	{r4, r5, pc}
1000114e:	2101      	movs	r1, #1
10001150:	0020      	movs	r0, r4
10001152:	f7ff fc89 	bl	10000a68 <embeddedCliGetToken>
10001156:	0005      	movs	r5, r0
10001158:	2102      	movs	r1, #2
1000115a:	0020      	movs	r0, r4
1000115c:	f7ff fc84 	bl	10000a68 <embeddedCliGetToken>
10001160:	0004      	movs	r4, r0
10001162:	2201      	movs	r2, #1
10001164:	0029      	movs	r1, r5
10001166:	a8ff      	add	r0, sp, #1020	; 0x3fc
10001168:	3034      	adds	r0, #52	; 0x34
1000116a:	f001 ff07 	bl	10002f7c <f_open>
1000116e:	2800      	cmp	r0, #0
10001170:	d12a      	bne.n	100011c8 <cli_cmd_cp+0x98>
10001172:	220a      	movs	r2, #10
10001174:	0021      	movs	r1, r4
10001176:	a882      	add	r0, sp, #520	; 0x208
10001178:	f001 ff00 	bl	10002f7c <f_open>
1000117c:	2800      	cmp	r0, #0
1000117e:	d128      	bne.n	100011d2 <cli_cmd_cp+0xa2>
10001180:	2300      	movs	r3, #0
10001182:	9300      	str	r3, [sp, #0]
10001184:	2280      	movs	r2, #128	; 0x80
10001186:	466b      	mov	r3, sp
10001188:	0092      	lsls	r2, r2, #2
1000118a:	a902      	add	r1, sp, #8
1000118c:	a8ff      	add	r0, sp, #1020	; 0x3fc
1000118e:	3034      	adds	r0, #52	; 0x34
10001190:	f002 f800 	bl	10003194 <f_read>
10001194:	2800      	cmp	r0, #0
10001196:	d10f      	bne.n	100011b8 <cli_cmd_cp+0x88>
10001198:	9a00      	ldr	r2, [sp, #0]
1000119a:	2a00      	cmp	r2, #0
1000119c:	d00c      	beq.n	100011b8 <cli_cmd_cp+0x88>
1000119e:	2300      	movs	r3, #0
100011a0:	9301      	str	r3, [sp, #4]
100011a2:	ab01      	add	r3, sp, #4
100011a4:	a902      	add	r1, sp, #8
100011a6:	a882      	add	r0, sp, #520	; 0x208
100011a8:	f002 f8ca 	bl	10003340 <f_write>
100011ac:	2800      	cmp	r0, #0
100011ae:	d0e9      	beq.n	10001184 <cli_cmd_cp+0x54>
100011b0:	0021      	movs	r1, r4
100011b2:	480d      	ldr	r0, [pc, #52]	; (100011e8 <cli_cmd_cp+0xb8>)
100011b4:	f006 fac0 	bl	10007738 <__wrap_printf>
100011b8:	a8ff      	add	r0, sp, #1020	; 0x3fc
100011ba:	3034      	adds	r0, #52	; 0x34
100011bc:	f002 fa08 	bl	100035d0 <f_close>
100011c0:	a882      	add	r0, sp, #520	; 0x208
100011c2:	f002 fa05 	bl	100035d0 <f_close>
100011c6:	e7bf      	b.n	10001148 <cli_cmd_cp+0x18>
100011c8:	0029      	movs	r1, r5
100011ca:	4808      	ldr	r0, [pc, #32]	; (100011ec <cli_cmd_cp+0xbc>)
100011cc:	f006 fab4 	bl	10007738 <__wrap_printf>
100011d0:	e7ba      	b.n	10001148 <cli_cmd_cp+0x18>
100011d2:	0021      	movs	r1, r4
100011d4:	4806      	ldr	r0, [pc, #24]	; (100011f0 <cli_cmd_cp+0xc0>)
100011d6:	f006 faaf 	bl	10007738 <__wrap_printf>
100011da:	e7b5      	b.n	10001148 <cli_cmd_cp+0x18>
100011dc:	fffff9a4 	.word	0xfffff9a4
100011e0:	1000bea4 	.word	0x1000bea4
100011e4:	0000065c 	.word	0x0000065c
100011e8:	1000bf20 	.word	0x1000bf20
100011ec:	1000bed8 	.word	0x1000bed8
100011f0:	1000bf08 	.word	0x1000bf08

100011f4 <cli_cmd_ls>:
100011f4:	b510      	push	{r4, lr}
100011f6:	b0d2      	sub	sp, #328	; 0x148
100011f8:	000c      	movs	r4, r1
100011fa:	0008      	movs	r0, r1
100011fc:	f7ff fe73 	bl	10000ee6 <embeddedCliGetTokenCount>
10001200:	2801      	cmp	r0, #1
10001202:	d81e      	bhi.n	10001242 <cli_cmd_ls+0x4e>
10001204:	2800      	cmp	r0, #0
10001206:	d100      	bne.n	1000120a <cli_cmd_ls+0x16>
10001208:	4c1e      	ldr	r4, [pc, #120]	; (10001284 <cli_cmd_ls+0x90>)
1000120a:	0021      	movs	r1, r4
1000120c:	a846      	add	r0, sp, #280	; 0x118
1000120e:	f002 faab 	bl	10003768 <f_opendir>
10001212:	2800      	cmp	r0, #0
10001214:	d119      	bne.n	1000124a <cli_cmd_ls+0x56>
10001216:	4669      	mov	r1, sp
10001218:	a846      	add	r0, sp, #280	; 0x118
1000121a:	f002 fae6 	bl	100037ea <f_readdir>
1000121e:	2800      	cmp	r0, #0
10001220:	d12b      	bne.n	1000127a <cli_cmd_ls+0x86>
10001222:	466b      	mov	r3, sp
10001224:	7d9b      	ldrb	r3, [r3, #22]
10001226:	2b00      	cmp	r3, #0
10001228:	d027      	beq.n	1000127a <cli_cmd_ls+0x86>
1000122a:	2b2e      	cmp	r3, #46	; 0x2e
1000122c:	d0f3      	beq.n	10001216 <cli_cmd_ls+0x22>
1000122e:	466b      	mov	r3, sp
10001230:	7a1b      	ldrb	r3, [r3, #8]
10001232:	06db      	lsls	r3, r3, #27
10001234:	d50e      	bpl.n	10001254 <cli_cmd_ls+0x60>
10001236:	2116      	movs	r1, #22
10001238:	4469      	add	r1, sp
1000123a:	4813      	ldr	r0, [pc, #76]	; (10001288 <cli_cmd_ls+0x94>)
1000123c:	f006 fa7c 	bl	10007738 <__wrap_printf>
10001240:	e7e9      	b.n	10001216 <cli_cmd_ls+0x22>
10001242:	4812      	ldr	r0, [pc, #72]	; (1000128c <cli_cmd_ls+0x98>)
10001244:	f006 fa48 	bl	100076d8 <__wrap_puts>
10001248:	e01a      	b.n	10001280 <cli_cmd_ls+0x8c>
1000124a:	0021      	movs	r1, r4
1000124c:	4810      	ldr	r0, [pc, #64]	; (10001290 <cli_cmd_ls+0x9c>)
1000124e:	f006 fa73 	bl	10007738 <__wrap_printf>
10001252:	e015      	b.n	10001280 <cli_cmd_ls+0x8c>
10001254:	2116      	movs	r1, #22
10001256:	4469      	add	r1, sp
10001258:	480e      	ldr	r0, [pc, #56]	; (10001294 <cli_cmd_ls+0xa0>)
1000125a:	f006 fa6d 	bl	10007738 <__wrap_printf>
1000125e:	9900      	ldr	r1, [sp, #0]
10001260:	2380      	movs	r3, #128	; 0x80
10001262:	00db      	lsls	r3, r3, #3
10001264:	4299      	cmp	r1, r3
10001266:	d203      	bcs.n	10001270 <cli_cmd_ls+0x7c>
10001268:	480b      	ldr	r0, [pc, #44]	; (10001298 <cli_cmd_ls+0xa4>)
1000126a:	f006 fa65 	bl	10007738 <__wrap_printf>
1000126e:	e7d2      	b.n	10001216 <cli_cmd_ls+0x22>
10001270:	0a89      	lsrs	r1, r1, #10
10001272:	480a      	ldr	r0, [pc, #40]	; (1000129c <cli_cmd_ls+0xa8>)
10001274:	f006 fa60 	bl	10007738 <__wrap_printf>
10001278:	e7cd      	b.n	10001216 <cli_cmd_ls+0x22>
1000127a:	a846      	add	r0, sp, #280	; 0x118
1000127c:	f002 faa9 	bl	100037d2 <f_closedir>
10001280:	b052      	add	sp, #328	; 0x148
10001282:	bd10      	pop	{r4, pc}
10001284:	1000bca8 	.word	0x1000bca8
10001288:	1000bf68 	.word	0x1000bf68
1000128c:	1000bea4 	.word	0x1000bea4
10001290:	1000bf38 	.word	0x1000bf38
10001294:	1000bf70 	.word	0x1000bf70
10001298:	1000bf78 	.word	0x1000bf78
1000129c:	1000bf80 	.word	0x1000bf80

100012a0 <cli_cmd_pwd>:
100012a0:	b500      	push	{lr}
100012a2:	b0c1      	sub	sp, #260	; 0x104
100012a4:	0008      	movs	r0, r1
100012a6:	f7ff fe1e 	bl	10000ee6 <embeddedCliGetTokenCount>
100012aa:	2800      	cmp	r0, #0
100012ac:	d10b      	bne.n	100012c6 <cli_cmd_pwd+0x26>
100012ae:	2180      	movs	r1, #128	; 0x80
100012b0:	0049      	lsls	r1, r1, #1
100012b2:	4668      	mov	r0, sp
100012b4:	f002 f9cc 	bl	10003650 <f_getcwd>
100012b8:	2800      	cmp	r0, #0
100012ba:	d108      	bne.n	100012ce <cli_cmd_pwd+0x2e>
100012bc:	4668      	mov	r0, sp
100012be:	f006 fa0b 	bl	100076d8 <__wrap_puts>
100012c2:	b041      	add	sp, #260	; 0x104
100012c4:	bd00      	pop	{pc}
100012c6:	4804      	ldr	r0, [pc, #16]	; (100012d8 <cli_cmd_pwd+0x38>)
100012c8:	f006 fa06 	bl	100076d8 <__wrap_puts>
100012cc:	e7f9      	b.n	100012c2 <cli_cmd_pwd+0x22>
100012ce:	4803      	ldr	r0, [pc, #12]	; (100012dc <cli_cmd_pwd+0x3c>)
100012d0:	f006 fa02 	bl	100076d8 <__wrap_puts>
100012d4:	e7f2      	b.n	100012bc <cli_cmd_pwd+0x1c>
100012d6:	46c0      	nop			; (mov r8, r8)
100012d8:	1000bea4 	.word	0x1000bea4
100012dc:	1000bf8c 	.word	0x1000bf8c

100012e0 <cli_cmd_mkdir>:
100012e0:	b510      	push	{r4, lr}
100012e2:	000c      	movs	r4, r1
100012e4:	0008      	movs	r0, r1
100012e6:	f7ff fdfe 	bl	10000ee6 <embeddedCliGetTokenCount>
100012ea:	2801      	cmp	r0, #1
100012ec:	d003      	beq.n	100012f6 <cli_cmd_mkdir+0x16>
100012ee:	4807      	ldr	r0, [pc, #28]	; (1000130c <cli_cmd_mkdir+0x2c>)
100012f0:	f006 f9f2 	bl	100076d8 <__wrap_puts>
100012f4:	bd10      	pop	{r4, pc}
100012f6:	0020      	movs	r0, r4
100012f8:	f002 fb02 	bl	10003900 <f_mkdir>
100012fc:	2800      	cmp	r0, #0
100012fe:	d0f9      	beq.n	100012f4 <cli_cmd_mkdir+0x14>
10001300:	0021      	movs	r1, r4
10001302:	4803      	ldr	r0, [pc, #12]	; (10001310 <cli_cmd_mkdir+0x30>)
10001304:	f006 fa18 	bl	10007738 <__wrap_printf>
10001308:	e7f4      	b.n	100012f4 <cli_cmd_mkdir+0x14>
1000130a:	46c0      	nop			; (mov r8, r8)
1000130c:	1000bea4 	.word	0x1000bea4
10001310:	1000bfb4 	.word	0x1000bfb4

10001314 <cli_cmd_mv>:
10001314:	b570      	push	{r4, r5, r6, lr}
10001316:	000c      	movs	r4, r1
10001318:	0008      	movs	r0, r1
1000131a:	f7ff fde4 	bl	10000ee6 <embeddedCliGetTokenCount>
1000131e:	2802      	cmp	r0, #2
10001320:	d003      	beq.n	1000132a <cli_cmd_mv+0x16>
10001322:	480d      	ldr	r0, [pc, #52]	; (10001358 <cli_cmd_mv+0x44>)
10001324:	f006 f9d8 	bl	100076d8 <__wrap_puts>
10001328:	bd70      	pop	{r4, r5, r6, pc}
1000132a:	2101      	movs	r1, #1
1000132c:	0020      	movs	r0, r4
1000132e:	f7ff fb9b 	bl	10000a68 <embeddedCliGetToken>
10001332:	0005      	movs	r5, r0
10001334:	2102      	movs	r1, #2
10001336:	0020      	movs	r0, r4
10001338:	f7ff fb96 	bl	10000a68 <embeddedCliGetToken>
1000133c:	0004      	movs	r4, r0
1000133e:	0001      	movs	r1, r0
10001340:	0028      	movs	r0, r5
10001342:	f002 fb6f 	bl	10003a24 <f_rename>
10001346:	2800      	cmp	r0, #0
10001348:	d0ee      	beq.n	10001328 <cli_cmd_mv+0x14>
1000134a:	0022      	movs	r2, r4
1000134c:	0029      	movs	r1, r5
1000134e:	4803      	ldr	r0, [pc, #12]	; (1000135c <cli_cmd_mv+0x48>)
10001350:	f006 f9f2 	bl	10007738 <__wrap_printf>
10001354:	e7e8      	b.n	10001328 <cli_cmd_mv+0x14>
10001356:	46c0      	nop			; (mov r8, r8)
10001358:	1000bea4 	.word	0x1000bea4
1000135c:	1000bfd8 	.word	0x1000bfd8

10001360 <cli_cmd_rm>:
10001360:	b5f8      	push	{r3, r4, r5, r6, r7, lr}
10001362:	000f      	movs	r7, r1
10001364:	0008      	movs	r0, r1
10001366:	f7ff fdbe 	bl	10000ee6 <embeddedCliGetTokenCount>
1000136a:	1e06      	subs	r6, r0, #0
1000136c:	d012      	beq.n	10001394 <cli_cmd_rm+0x34>
1000136e:	2400      	movs	r4, #0
10001370:	42b4      	cmp	r4, r6
10001372:	d212      	bcs.n	1000139a <cli_cmd_rm+0x3a>
10001374:	3401      	adds	r4, #1
10001376:	b2a4      	uxth	r4, r4
10001378:	0021      	movs	r1, r4
1000137a:	0038      	movs	r0, r7
1000137c:	f7ff fb74 	bl	10000a68 <embeddedCliGetToken>
10001380:	0005      	movs	r5, r0
10001382:	f002 fa5b 	bl	1000383c <f_unlink>
10001386:	2800      	cmp	r0, #0
10001388:	d0f2      	beq.n	10001370 <cli_cmd_rm+0x10>
1000138a:	0029      	movs	r1, r5
1000138c:	4803      	ldr	r0, [pc, #12]	; (1000139c <cli_cmd_rm+0x3c>)
1000138e:	f006 f9d3 	bl	10007738 <__wrap_printf>
10001392:	e7ed      	b.n	10001370 <cli_cmd_rm+0x10>
10001394:	4802      	ldr	r0, [pc, #8]	; (100013a0 <cli_cmd_rm+0x40>)
10001396:	f006 f99f 	bl	100076d8 <__wrap_puts>
1000139a:	bdf8      	pop	{r3, r4, r5, r6, r7, pc}
1000139c:	1000bff0 	.word	0x1000bff0
100013a0:	1000bea4 	.word	0x1000bea4

100013a4 <msc_app_task>:
100013a4:	b510      	push	{r4, lr}
100013a6:	4b0b      	ldr	r3, [pc, #44]	; (100013d4 <msc_app_task+0x30>)
100013a8:	681b      	ldr	r3, [r3, #0]
100013aa:	2b00      	cmp	r3, #0
100013ac:	d011      	beq.n	100013d2 <msc_app_task+0x2e>
100013ae:	f006 faf5 	bl	1000799c <board_getchar>
100013b2:	2800      	cmp	r0, #0
100013b4:	dc07      	bgt.n	100013c6 <msc_app_task+0x22>
100013b6:	e00c      	b.n	100013d2 <msc_app_task+0x2e>
100013b8:	b2c1      	uxtb	r1, r0
100013ba:	4b06      	ldr	r3, [pc, #24]	; (100013d4 <msc_app_task+0x30>)
100013bc:	6818      	ldr	r0, [r3, #0]
100013be:	f7ff fa76 	bl	100008ae <embeddedCliReceiveChar>
100013c2:	f006 faeb 	bl	1000799c <board_getchar>
100013c6:	2800      	cmp	r0, #0
100013c8:	dcf6      	bgt.n	100013b8 <msc_app_task+0x14>
100013ca:	4b02      	ldr	r3, [pc, #8]	; (100013d4 <msc_app_task+0x30>)
100013cc:	6818      	ldr	r0, [r3, #0]
100013ce:	f7ff fd33 	bl	10000e38 <embeddedCliProcess>
100013d2:	bd10      	pop	{r4, pc}
100013d4:	20001658 	.word	0x20001658

100013d8 <tuh_msc_mount_cb>:
100013d8:	b510      	push	{r4, lr}
100013da:	b082      	sub	sp, #8
100013dc:	0004      	movs	r4, r0
100013de:	4806      	ldr	r0, [pc, #24]	; (100013f8 <tuh_msc_mount_cb+0x20>)
100013e0:	f006 f97a 	bl	100076d8 <__wrap_puts>
100013e4:	2300      	movs	r3, #0
100013e6:	9300      	str	r3, [sp, #0]
100013e8:	4b04      	ldr	r3, [pc, #16]	; (100013fc <tuh_msc_mount_cb+0x24>)
100013ea:	4a05      	ldr	r2, [pc, #20]	; (10001400 <tuh_msc_mount_cb+0x28>)
100013ec:	2100      	movs	r1, #0
100013ee:	0020      	movs	r0, r4
100013f0:	f008 fbce 	bl	10009b90 <tuh_msc_inquiry>
100013f4:	b002      	add	sp, #8
100013f6:	bd10      	pop	{r4, pc}
100013f8:	1000c020 	.word	0x1000c020
100013fc:	10000779 	.word	0x10000779
10001400:	20002a14 	.word	0x20002a14

10001404 <tuh_msc_umount_cb>:
10001404:	b510      	push	{r4, lr}
10001406:	b082      	sub	sp, #8
10001408:	0004      	movs	r4, r0
1000140a:	4809      	ldr	r0, [pc, #36]	; (10001430 <tuh_msc_umount_cb+0x2c>)
1000140c:	f006 f964 	bl	100076d8 <__wrap_puts>
10001410:	3c01      	subs	r4, #1
10001412:	b2e4      	uxtb	r4, r4
10001414:	a901      	add	r1, sp, #4
10001416:	4b07      	ldr	r3, [pc, #28]	; (10001434 <tuh_msc_umount_cb+0x30>)
10001418:	881a      	ldrh	r2, [r3, #0]
1000141a:	800a      	strh	r2, [r1, #0]
1000141c:	789b      	ldrb	r3, [r3, #2]
1000141e:	708b      	strb	r3, [r1, #2]
10001420:	3430      	adds	r4, #48	; 0x30
10001422:	700c      	strb	r4, [r1, #0]
10001424:	2200      	movs	r2, #0
10001426:	2000      	movs	r0, #0
10001428:	f001 fd7a 	bl	10002f20 <f_mount>
1000142c:	b002      	add	sp, #8
1000142e:	bd10      	pop	{r4, pc}
10001430:	1000c044 	.word	0x1000c044
10001434:	1000be4c 	.word	0x1000be4c

10001438 <disk_status>:
10001438:	b510      	push	{r4, lr}
1000143a:	3001      	adds	r0, #1
1000143c:	b2c0      	uxtb	r0, r0
1000143e:	f008 fb1d 	bl	10009a7c <tuh_msc_mounted>
10001442:	2800      	cmp	r0, #0
10001444:	d001      	beq.n	1000144a <disk_status+0x12>
10001446:	2000      	movs	r0, #0
10001448:	bd10      	pop	{r4, pc}
1000144a:	2002      	movs	r0, #2
1000144c:	e7fc      	b.n	10001448 <disk_status+0x10>

1000144e <disk_initialize>:
1000144e:	2000      	movs	r0, #0
10001450:	4770      	bx	lr
	...

10001454 <disk_read>:
10001454:	b570      	push	{r4, r5, r6, lr}
10001456:	b084      	sub	sp, #16
10001458:	0004      	movs	r4, r0
1000145a:	3001      	adds	r0, #1
1000145c:	b2c0      	uxtb	r0, r0
1000145e:	4d0a      	ldr	r5, [pc, #40]	; (10001488 <disk_read+0x34>)
10001460:	2601      	movs	r6, #1
10001462:	552e      	strb	r6, [r5, r4]
10001464:	2500      	movs	r5, #0
10001466:	9502      	str	r5, [sp, #8]
10001468:	4d08      	ldr	r5, [pc, #32]	; (1000148c <disk_read+0x38>)
1000146a:	9501      	str	r5, [sp, #4]
1000146c:	b29b      	uxth	r3, r3
1000146e:	9300      	str	r3, [sp, #0]
10001470:	0013      	movs	r3, r2
10001472:	000a      	movs	r2, r1
10001474:	2100      	movs	r1, #0
10001476:	f008 fca1 	bl	10009dbc <tuh_msc_read10>
1000147a:	0020      	movs	r0, r4
1000147c:	f7ff f9d8 	bl	10000830 <wait_for_disk_io>
10001480:	2000      	movs	r0, #0
10001482:	b004      	add	sp, #16
10001484:	bd70      	pop	{r4, r5, r6, pc}
10001486:	46c0      	nop			; (mov r8, r8)
10001488:	20001678 	.word	0x20001678
1000148c:	100004c1 	.word	0x100004c1

10001490 <disk_write>:
10001490:	b570      	push	{r4, r5, r6, lr}
10001492:	b084      	sub	sp, #16
10001494:	0004      	movs	r4, r0
10001496:	3001      	adds	r0, #1
10001498:	b2c0      	uxtb	r0, r0
1000149a:	4d0a      	ldr	r5, [pc, #40]	; (100014c4 <disk_write+0x34>)
1000149c:	2601      	movs	r6, #1
1000149e:	552e      	strb	r6, [r5, r4]
100014a0:	2500      	movs	r5, #0
100014a2:	9502      	str	r5, [sp, #8]
100014a4:	4d08      	ldr	r5, [pc, #32]	; (100014c8 <disk_write+0x38>)
100014a6:	9501      	str	r5, [sp, #4]
100014a8:	b29b      	uxth	r3, r3
100014aa:	9300      	str	r3, [sp, #0]
100014ac:	0013      	movs	r3, r2
100014ae:	000a      	movs	r2, r1
100014b0:	2100      	movs	r1, #0
100014b2:	f008 fce9 	bl	10009e88 <tuh_msc_write10>
100014b6:	0020      	movs	r0, r4
100014b8:	f7ff f9ba 	bl	10000830 <wait_for_disk_io>
100014bc:	2000      	movs	r0, #0
100014be:	b004      	add	sp, #16
100014c0:	bd70      	pop	{r4, r5, r6, pc}
100014c2:	46c0      	nop			; (mov r8, r8)
100014c4:	20001678 	.word	0x20001678
100014c8:	100004c1 	.word	0x100004c1

100014cc <disk_ioctl>:
100014cc:	b510      	push	{r4, lr}
100014ce:	0014      	movs	r4, r2
100014d0:	3001      	adds	r0, #1
100014d2:	b2c0      	uxtb	r0, r0
100014d4:	2902      	cmp	r1, #2
100014d6:	d016      	beq.n	10001506 <disk_ioctl+0x3a>
100014d8:	d80d      	bhi.n	100014f6 <disk_ioctl+0x2a>
100014da:	2900      	cmp	r1, #0
100014dc:	d019      	beq.n	10001512 <disk_ioctl+0x46>
100014de:	2901      	cmp	r1, #1
100014e0:	d107      	bne.n	100014f2 <disk_ioctl+0x26>
100014e2:	2100      	movs	r1, #0
100014e4:	f008 faae 	bl	10009a44 <tuh_msc_get_block_count>
100014e8:	0400      	lsls	r0, r0, #16
100014ea:	0c00      	lsrs	r0, r0, #16
100014ec:	6020      	str	r0, [r4, #0]
100014ee:	2000      	movs	r0, #0
100014f0:	e010      	b.n	10001514 <disk_ioctl+0x48>
100014f2:	2004      	movs	r0, #4
100014f4:	e00e      	b.n	10001514 <disk_ioctl+0x48>
100014f6:	2903      	cmp	r1, #3
100014f8:	d103      	bne.n	10001502 <disk_ioctl+0x36>
100014fa:	2301      	movs	r3, #1
100014fc:	6013      	str	r3, [r2, #0]
100014fe:	2000      	movs	r0, #0
10001500:	e008      	b.n	10001514 <disk_ioctl+0x48>
10001502:	2004      	movs	r0, #4
10001504:	e006      	b.n	10001514 <disk_ioctl+0x48>
10001506:	2100      	movs	r1, #0
10001508:	f008 faaa 	bl	10009a60 <tuh_msc_get_block_size>
1000150c:	8020      	strh	r0, [r4, #0]
1000150e:	2000      	movs	r0, #0
10001510:	e000      	b.n	10001514 <disk_ioctl+0x48>
10001512:	0008      	movs	r0, r1
10001514:	bd10      	pop	{r4, pc}
	...

10001518 <cli_init>:
10001518:	b5f0      	push	{r4, r5, r6, r7, lr}
1000151a:	b0ab      	sub	sp, #172	; 0xac
1000151c:	f7ff f99e 	bl	1000085c <embeddedCliDefaultConfig>
10001520:	0004      	movs	r4, r0
10001522:	4b64      	ldr	r3, [pc, #400]	; (100016b4 <cli_init+0x19c>)
10001524:	6083      	str	r3, [r0, #8]
10001526:	2580      	movs	r5, #128	; 0x80
10001528:	00ad      	lsls	r5, r5, #2
1000152a:	8185      	strh	r5, [r0, #12]
1000152c:	2310      	movs	r3, #16
1000152e:	8003      	strh	r3, [r0, #0]
10001530:	3330      	adds	r3, #48	; 0x30
10001532:	8043      	strh	r3, [r0, #2]
10001534:	3b20      	subs	r3, #32
10001536:	8083      	strh	r3, [r0, #4]
10001538:	3b18      	subs	r3, #24
1000153a:	80c3      	strh	r3, [r0, #6]
1000153c:	f7ff f99e 	bl	1000087c <embeddedCliRequiredSize>
10001540:	42a8      	cmp	r0, r5
10001542:	d900      	bls.n	10001546 <cli_init+0x2e>
10001544:	e0a6      	b.n	10001694 <cli_init+0x17c>
10001546:	0020      	movs	r0, r4
10001548:	f7ff f9f6 	bl	10000938 <embeddedCliNew>
1000154c:	4b5a      	ldr	r3, [pc, #360]	; (100016b8 <cli_init+0x1a0>)
1000154e:	6018      	str	r0, [r3, #0]
10001550:	2800      	cmp	r0, #0
10001552:	d100      	bne.n	10001556 <cli_init+0x3e>
10001554:	e0a6      	b.n	100016a4 <cli_init+0x18c>
10001556:	4b59      	ldr	r3, [pc, #356]	; (100016bc <cli_init+0x1a4>)
10001558:	6003      	str	r3, [r0, #0]
1000155a:	ad02      	add	r5, sp, #8
1000155c:	4c58      	ldr	r4, [pc, #352]	; (100016c0 <cli_init+0x1a8>)
1000155e:	0023      	movs	r3, r4
10001560:	3314      	adds	r3, #20
10001562:	002a      	movs	r2, r5
10001564:	cbc2      	ldmia	r3!, {r1, r6, r7}
10001566:	c2c2      	stmia	r2!, {r1, r6, r7}
10001568:	cb42      	ldmia	r3!, {r1, r6}
1000156a:	c242      	stmia	r2!, {r1, r6}
1000156c:	ab05      	add	r3, sp, #20
1000156e:	466a      	mov	r2, sp
10001570:	cb42      	ldmia	r3!, {r1, r6}
10001572:	c242      	stmia	r2!, {r1, r6}
10001574:	9902      	ldr	r1, [sp, #8]
10001576:	9a03      	ldr	r2, [sp, #12]
10001578:	9b04      	ldr	r3, [sp, #16]
1000157a:	f7ff f9a6 	bl	100008ca <embeddedCliAddBinding>
1000157e:	4d4e      	ldr	r5, [pc, #312]	; (100016b8 <cli_init+0x1a0>)
10001580:	682b      	ldr	r3, [r5, #0]
10001582:	469c      	mov	ip, r3
10001584:	ae07      	add	r6, sp, #28
10001586:	0023      	movs	r3, r4
10001588:	3328      	adds	r3, #40	; 0x28
1000158a:	0032      	movs	r2, r6
1000158c:	cb83      	ldmia	r3!, {r0, r1, r7}
1000158e:	c283      	stmia	r2!, {r0, r1, r7}
10001590:	cb03      	ldmia	r3!, {r0, r1}
10001592:	c203      	stmia	r2!, {r0, r1}
10001594:	ab0a      	add	r3, sp, #40	; 0x28
10001596:	466a      	mov	r2, sp
10001598:	cb03      	ldmia	r3!, {r0, r1}
1000159a:	c203      	stmia	r2!, {r0, r1}
1000159c:	9907      	ldr	r1, [sp, #28]
1000159e:	9a08      	ldr	r2, [sp, #32]
100015a0:	9b09      	ldr	r3, [sp, #36]	; 0x24
100015a2:	4660      	mov	r0, ip
100015a4:	f7ff f991 	bl	100008ca <embeddedCliAddBinding>
100015a8:	682b      	ldr	r3, [r5, #0]
100015aa:	469c      	mov	ip, r3
100015ac:	ae0c      	add	r6, sp, #48	; 0x30
100015ae:	0023      	movs	r3, r4
100015b0:	333c      	adds	r3, #60	; 0x3c
100015b2:	0032      	movs	r2, r6
100015b4:	cb83      	ldmia	r3!, {r0, r1, r7}
100015b6:	c283      	stmia	r2!, {r0, r1, r7}
100015b8:	cb03      	ldmia	r3!, {r0, r1}
100015ba:	c203      	stmia	r2!, {r0, r1}
100015bc:	ab0f      	add	r3, sp, #60	; 0x3c
100015be:	466a      	mov	r2, sp
100015c0:	cb03      	ldmia	r3!, {r0, r1}
100015c2:	c203      	stmia	r2!, {r0, r1}
100015c4:	990c      	ldr	r1, [sp, #48]	; 0x30
100015c6:	9a0d      	ldr	r2, [sp, #52]	; 0x34
100015c8:	9b0e      	ldr	r3, [sp, #56]	; 0x38
100015ca:	4660      	mov	r0, ip
100015cc:	f7ff f97d 	bl	100008ca <embeddedCliAddBinding>
100015d0:	682b      	ldr	r3, [r5, #0]
100015d2:	469c      	mov	ip, r3
100015d4:	ae11      	add	r6, sp, #68	; 0x44
100015d6:	0023      	movs	r3, r4
100015d8:	3350      	adds	r3, #80	; 0x50
100015da:	0032      	movs	r2, r6
100015dc:	cb83      	ldmia	r3!, {r0, r1, r7}
100015de:	c283      	stmia	r2!, {r0, r1, r7}
100015e0:	cb03      	ldmia	r3!, {r0, r1}
100015e2:	c203      	stmia	r2!, {r0, r1}
100015e4:	ab14      	add	r3, sp, #80	; 0x50
100015e6:	466a      	mov	r2, sp
100015e8:	cb03      	ldmia	r3!, {r0, r1}
100015ea:	c203      	stmia	r2!, {r0, r1}
100015ec:	9911      	ldr	r1, [sp, #68]	; 0x44
100015ee:	9a12      	ldr	r2, [sp, #72]	; 0x48
100015f0:	9b13      	ldr	r3, [sp, #76]	; 0x4c
100015f2:	4660      	mov	r0, ip
100015f4:	f7ff f969 	bl	100008ca <embeddedCliAddBinding>
100015f8:	682b      	ldr	r3, [r5, #0]
100015fa:	469c      	mov	ip, r3
100015fc:	ae16      	add	r6, sp, #88	; 0x58
100015fe:	0023      	movs	r3, r4
10001600:	3364      	adds	r3, #100	; 0x64
10001602:	0032      	movs	r2, r6
10001604:	cb83      	ldmia	r3!, {r0, r1, r7}
10001606:	c283      	stmia	r2!, {r0, r1, r7}
10001608:	cb03      	ldmia	r3!, {r0, r1}
1000160a:	c203      	stmia	r2!, {r0, r1}
1000160c:	ab19      	add	r3, sp, #100	; 0x64
1000160e:	466a      	mov	r2, sp
10001610:	cb03      	ldmia	r3!, {r0, r1}
10001612:	c203      	stmia	r2!, {r0, r1}
10001614:	9916      	ldr	r1, [sp, #88]	; 0x58
10001616:	9a17      	ldr	r2, [sp, #92]	; 0x5c
10001618:	9b18      	ldr	r3, [sp, #96]	; 0x60
1000161a:	4660      	mov	r0, ip
1000161c:	f7ff f955 	bl	100008ca <embeddedCliAddBinding>
10001620:	6828      	ldr	r0, [r5, #0]
10001622:	ae1b      	add	r6, sp, #108	; 0x6c
10001624:	3478      	adds	r4, #120	; 0x78
10001626:	0032      	movs	r2, r6
10001628:	cc8a      	ldmia	r4!, {r1, r3, r7}
1000162a:	c28a      	stmia	r2!, {r1, r3, r7}
1000162c:	cc0a      	ldmia	r4!, {r1, r3}
1000162e:	c20a      	stmia	r2!, {r1, r3}
10001630:	ab1e      	add	r3, sp, #120	; 0x78
10001632:	466a      	mov	r2, sp
10001634:	cb12      	ldmia	r3!, {r1, r4}
10001636:	c212      	stmia	r2!, {r1, r4}
10001638:	991b      	ldr	r1, [sp, #108]	; 0x6c
1000163a:	9a1c      	ldr	r2, [sp, #112]	; 0x70
1000163c:	9b1d      	ldr	r3, [sp, #116]	; 0x74
1000163e:	f7ff f944 	bl	100008ca <embeddedCliAddBinding>
10001642:	682b      	ldr	r3, [r5, #0]
10001644:	469c      	mov	ip, r3
10001646:	ae20      	add	r6, sp, #128	; 0x80
10001648:	4c1e      	ldr	r4, [pc, #120]	; (100016c4 <cli_init+0x1ac>)
1000164a:	0023      	movs	r3, r4
1000164c:	330c      	adds	r3, #12
1000164e:	0032      	movs	r2, r6
10001650:	cb83      	ldmia	r3!, {r0, r1, r7}
10001652:	c283      	stmia	r2!, {r0, r1, r7}
10001654:	cb03      	ldmia	r3!, {r0, r1}
10001656:	c203      	stmia	r2!, {r0, r1}
10001658:	ab23      	add	r3, sp, #140	; 0x8c
1000165a:	466a      	mov	r2, sp
1000165c:	cb03      	ldmia	r3!, {r0, r1}
1000165e:	c203      	stmia	r2!, {r0, r1}
10001660:	9920      	ldr	r1, [sp, #128]	; 0x80
10001662:	9a21      	ldr	r2, [sp, #132]	; 0x84
10001664:	9b22      	ldr	r3, [sp, #136]	; 0x88
10001666:	4660      	mov	r0, ip
10001668:	f7ff f92f 	bl	100008ca <embeddedCliAddBinding>
1000166c:	6828      	ldr	r0, [r5, #0]
1000166e:	ad25      	add	r5, sp, #148	; 0x94
10001670:	3420      	adds	r4, #32
10001672:	002a      	movs	r2, r5
10001674:	cc4a      	ldmia	r4!, {r1, r3, r6}
10001676:	c24a      	stmia	r2!, {r1, r3, r6}
10001678:	cc0a      	ldmia	r4!, {r1, r3}
1000167a:	c20a      	stmia	r2!, {r1, r3}
1000167c:	ab28      	add	r3, sp, #160	; 0xa0
1000167e:	466a      	mov	r2, sp
10001680:	cb12      	ldmia	r3!, {r1, r4}
10001682:	c212      	stmia	r2!, {r1, r4}
10001684:	9925      	ldr	r1, [sp, #148]	; 0x94
10001686:	9a26      	ldr	r2, [sp, #152]	; 0x98
10001688:	9b27      	ldr	r3, [sp, #156]	; 0x9c
1000168a:	f7ff f91e 	bl	100008ca <embeddedCliAddBinding>
1000168e:	2001      	movs	r0, #1
10001690:	b02b      	add	sp, #172	; 0xac
10001692:	bdf0      	pop	{r4, r5, r6, r7, pc}
10001694:	223c      	movs	r2, #60	; 0x3c
10001696:	32ff      	adds	r2, #255	; 0xff
10001698:	490b      	ldr	r1, [pc, #44]	; (100016c8 <cli_init+0x1b0>)
1000169a:	480c      	ldr	r0, [pc, #48]	; (100016cc <cli_init+0x1b4>)
1000169c:	f006 f84c 	bl	10007738 <__wrap_printf>
100016a0:	2000      	movs	r0, #0
100016a2:	e7f5      	b.n	10001690 <cli_init+0x178>
100016a4:	229f      	movs	r2, #159	; 0x9f
100016a6:	0052      	lsls	r2, r2, #1
100016a8:	4907      	ldr	r1, [pc, #28]	; (100016c8 <cli_init+0x1b0>)
100016aa:	4808      	ldr	r0, [pc, #32]	; (100016cc <cli_init+0x1b4>)
100016ac:	f006 f844 	bl	10007738 <__wrap_printf>
100016b0:	2000      	movs	r0, #0
100016b2:	e7ed      	b.n	10001690 <cli_init+0x178>
100016b4:	20001cdc 	.word	0x20001cdc
100016b8:	20001658 	.word	0x20001658
100016bc:	10000851 	.word	0x10000851
100016c0:	1000c080 	.word	0x1000c080
100016c4:	1000c100 	.word	0x1000c100
100016c8:	1000c134 	.word	0x1000c134
100016cc:	1000c068 	.word	0x1000c068

100016d0 <msc_app_init>:
100016d0:	b510      	push	{r4, lr}
100016d2:	2300      	movs	r3, #0
100016d4:	e003      	b.n	100016de <msc_app_init+0xe>
100016d6:	4a08      	ldr	r2, [pc, #32]	; (100016f8 <msc_app_init+0x28>)
100016d8:	2100      	movs	r1, #0
100016da:	54d1      	strb	r1, [r2, r3]
100016dc:	3301      	adds	r3, #1
100016de:	2b03      	cmp	r3, #3
100016e0:	d9f9      	bls.n	100016d6 <msc_app_init+0x6>
100016e2:	4b06      	ldr	r3, [pc, #24]	; (100016fc <msc_app_init+0x2c>)
100016e4:	681b      	ldr	r3, [r3, #0]
100016e6:	6898      	ldr	r0, [r3, #8]
100016e8:	2100      	movs	r1, #0
100016ea:	f009 fac3 	bl	1000ac74 <setbuf>
100016ee:	f7ff ff13 	bl	10001518 <cli_init>
100016f2:	2001      	movs	r0, #1
100016f4:	bd10      	pop	{r4, pc}
100016f6:	46c0      	nop			; (mov r8, r8)
100016f8:	20001678 	.word	0x20001678
100016fc:	20000a28 	.word	0x20000a28

10001700 <ld_word>:
10001700:	7843      	ldrb	r3, [r0, #1]
10001702:	021b      	lsls	r3, r3, #8
10001704:	7800      	ldrb	r0, [r0, #0]
10001706:	4318      	orrs	r0, r3
10001708:	4770      	bx	lr

1000170a <ld_dword>:
1000170a:	0003      	movs	r3, r0
1000170c:	78c0      	ldrb	r0, [r0, #3]
1000170e:	0200      	lsls	r0, r0, #8
10001710:	789a      	ldrb	r2, [r3, #2]
10001712:	4310      	orrs	r0, r2
10001714:	0200      	lsls	r0, r0, #8
10001716:	785a      	ldrb	r2, [r3, #1]
10001718:	4310      	orrs	r0, r2
1000171a:	0200      	lsls	r0, r0, #8
1000171c:	781b      	ldrb	r3, [r3, #0]
1000171e:	4318      	orrs	r0, r3
10001720:	4770      	bx	lr

10001722 <st_word>:
10001722:	7001      	strb	r1, [r0, #0]
10001724:	0a09      	lsrs	r1, r1, #8
10001726:	7041      	strb	r1, [r0, #1]
10001728:	4770      	bx	lr

1000172a <st_dword>:
1000172a:	7001      	strb	r1, [r0, #0]
1000172c:	0a0b      	lsrs	r3, r1, #8
1000172e:	7043      	strb	r3, [r0, #1]
10001730:	0c0b      	lsrs	r3, r1, #16
10001732:	7083      	strb	r3, [r0, #2]
10001734:	0e09      	lsrs	r1, r1, #24
10001736:	70c1      	strb	r1, [r0, #3]
10001738:	4770      	bx	lr

1000173a <dbc_1st>:
1000173a:	2000      	movs	r0, #0
1000173c:	4770      	bx	lr

1000173e <dbc_2nd>:
1000173e:	2000      	movs	r0, #0
10001740:	4770      	bx	lr

10001742 <clst2sect>:
10001742:	3902      	subs	r1, #2
10001744:	69c3      	ldr	r3, [r0, #28]
10001746:	3b02      	subs	r3, #2
10001748:	428b      	cmp	r3, r1
1000174a:	d904      	bls.n	10001756 <clst2sect+0x14>
1000174c:	6b03      	ldr	r3, [r0, #48]	; 0x30
1000174e:	8940      	ldrh	r0, [r0, #10]
10001750:	4348      	muls	r0, r1
10001752:	1818      	adds	r0, r3, r0
10001754:	4770      	bx	lr
10001756:	2000      	movs	r0, #0
10001758:	e7fc      	b.n	10001754 <clst2sect+0x12>

1000175a <ld_clust>:
1000175a:	b570      	push	{r4, r5, r6, lr}
1000175c:	0006      	movs	r6, r0
1000175e:	000c      	movs	r4, r1
10001760:	0008      	movs	r0, r1
10001762:	301a      	adds	r0, #26
10001764:	f7ff ffcc 	bl	10001700 <ld_word>
10001768:	0005      	movs	r5, r0
1000176a:	7833      	ldrb	r3, [r6, #0]
1000176c:	2b03      	cmp	r3, #3
1000176e:	d000      	beq.n	10001772 <ld_clust+0x18>
10001770:	bd70      	pop	{r4, r5, r6, pc}
10001772:	0020      	movs	r0, r4
10001774:	3014      	adds	r0, #20
10001776:	f7ff ffc3 	bl	10001700 <ld_word>
1000177a:	0400      	lsls	r0, r0, #16
1000177c:	4328      	orrs	r0, r5
1000177e:	e7f7      	b.n	10001770 <ld_clust+0x16>

10001780 <st_clust>:
10001780:	b570      	push	{r4, r5, r6, lr}
10001782:	0006      	movs	r6, r0
10001784:	000c      	movs	r4, r1
10001786:	0015      	movs	r5, r2
10001788:	b291      	uxth	r1, r2
1000178a:	0020      	movs	r0, r4
1000178c:	301a      	adds	r0, #26
1000178e:	f7ff ffc8 	bl	10001722 <st_word>
10001792:	7833      	ldrb	r3, [r6, #0]
10001794:	2b03      	cmp	r3, #3
10001796:	d000      	beq.n	1000179a <st_clust+0x1a>
10001798:	bd70      	pop	{r4, r5, r6, pc}
1000179a:	0c29      	lsrs	r1, r5, #16
1000179c:	0020      	movs	r0, r4
1000179e:	3014      	adds	r0, #20
100017a0:	f7ff ffbf 	bl	10001722 <st_word>
100017a4:	e7f8      	b.n	10001798 <st_clust+0x18>
	...

100017a8 <pick_lfn>:
100017a8:	b5f0      	push	{r4, r5, r6, r7, lr}
100017aa:	46c6      	mov	lr, r8
100017ac:	b500      	push	{lr}
100017ae:	4680      	mov	r8, r0
100017b0:	000e      	movs	r6, r1
100017b2:	0008      	movs	r0, r1
100017b4:	301a      	adds	r0, #26
100017b6:	f7ff ffa3 	bl	10001700 <ld_word>
100017ba:	2800      	cmp	r0, #0
100017bc:	d12c      	bne.n	10001818 <pick_lfn+0x70>
100017be:	7835      	ldrb	r5, [r6, #0]
100017c0:	2340      	movs	r3, #64	; 0x40
100017c2:	439d      	bics	r5, r3
100017c4:	1e6b      	subs	r3, r5, #1
100017c6:	005d      	lsls	r5, r3, #1
100017c8:	18ed      	adds	r5, r5, r3
100017ca:	00ad      	lsls	r5, r5, #2
100017cc:	18ed      	adds	r5, r5, r3
100017ce:	2701      	movs	r7, #1
100017d0:	2400      	movs	r4, #0
100017d2:	e003      	b.n	100017dc <pick_lfn+0x34>
100017d4:	4a17      	ldr	r2, [pc, #92]	; (10001834 <pick_lfn+0x8c>)
100017d6:	4290      	cmp	r0, r2
100017d8:	d124      	bne.n	10001824 <pick_lfn+0x7c>
100017da:	3401      	adds	r4, #1
100017dc:	2c0c      	cmp	r4, #12
100017de:	d80e      	bhi.n	100017fe <pick_lfn+0x56>
100017e0:	4b15      	ldr	r3, [pc, #84]	; (10001838 <pick_lfn+0x90>)
100017e2:	5d18      	ldrb	r0, [r3, r4]
100017e4:	1830      	adds	r0, r6, r0
100017e6:	f7ff ff8b 	bl	10001700 <ld_word>
100017ea:	2f00      	cmp	r7, #0
100017ec:	d0f2      	beq.n	100017d4 <pick_lfn+0x2c>
100017ee:	2dff      	cmp	r5, #255	; 0xff
100017f0:	d816      	bhi.n	10001820 <pick_lfn+0x78>
100017f2:	006b      	lsls	r3, r5, #1
100017f4:	4642      	mov	r2, r8
100017f6:	52d0      	strh	r0, [r2, r3]
100017f8:	0007      	movs	r7, r0
100017fa:	3501      	adds	r5, #1
100017fc:	e7ed      	b.n	100017da <pick_lfn+0x32>
100017fe:	7833      	ldrb	r3, [r6, #0]
10001800:	065b      	lsls	r3, r3, #25
10001802:	d511      	bpl.n	10001828 <pick_lfn+0x80>
10001804:	2f00      	cmp	r7, #0
10001806:	d011      	beq.n	1000182c <pick_lfn+0x84>
10001808:	2dff      	cmp	r5, #255	; 0xff
1000180a:	d811      	bhi.n	10001830 <pick_lfn+0x88>
1000180c:	006d      	lsls	r5, r5, #1
1000180e:	4445      	add	r5, r8
10001810:	2300      	movs	r3, #0
10001812:	802b      	strh	r3, [r5, #0]
10001814:	2001      	movs	r0, #1
10001816:	e000      	b.n	1000181a <pick_lfn+0x72>
10001818:	2000      	movs	r0, #0
1000181a:	bc80      	pop	{r7}
1000181c:	46b8      	mov	r8, r7
1000181e:	bdf0      	pop	{r4, r5, r6, r7, pc}
10001820:	2000      	movs	r0, #0
10001822:	e7fa      	b.n	1000181a <pick_lfn+0x72>
10001824:	2000      	movs	r0, #0
10001826:	e7f8      	b.n	1000181a <pick_lfn+0x72>
10001828:	2001      	movs	r0, #1
1000182a:	e7f6      	b.n	1000181a <pick_lfn+0x72>
1000182c:	2001      	movs	r0, #1
1000182e:	e7f4      	b.n	1000181a <pick_lfn+0x72>
10001830:	2000      	movs	r0, #0
10001832:	e7f2      	b.n	1000181a <pick_lfn+0x72>
10001834:	0000ffff 	.word	0x0000ffff
10001838:	1000c1e0 	.word	0x1000c1e0

1000183c <put_lfn>:
1000183c:	b5f8      	push	{r3, r4, r5, r6, r7, lr}
1000183e:	46ce      	mov	lr, r9
10001840:	4647      	mov	r7, r8
10001842:	b580      	push	{r7, lr}
10001844:	4680      	mov	r8, r0
10001846:	000f      	movs	r7, r1
10001848:	4691      	mov	r9, r2
1000184a:	734b      	strb	r3, [r1, #13]
1000184c:	230f      	movs	r3, #15
1000184e:	72cb      	strb	r3, [r1, #11]
10001850:	2300      	movs	r3, #0
10001852:	730b      	strb	r3, [r1, #12]
10001854:	0008      	movs	r0, r1
10001856:	301a      	adds	r0, #26
10001858:	2100      	movs	r1, #0
1000185a:	f7ff ff62 	bl	10001722 <st_word>
1000185e:	464b      	mov	r3, r9
10001860:	3b01      	subs	r3, #1
10001862:	005e      	lsls	r6, r3, #1
10001864:	18f6      	adds	r6, r6, r3
10001866:	00b6      	lsls	r6, r6, #2
10001868:	18f6      	adds	r6, r6, r3
1000186a:	2400      	movs	r4, #0
1000186c:	2500      	movs	r5, #0
1000186e:	e002      	b.n	10001876 <put_lfn+0x3a>
10001870:	3501      	adds	r5, #1
10001872:	2d0c      	cmp	r5, #12
10001874:	d810      	bhi.n	10001898 <put_lfn+0x5c>
10001876:	4b12      	ldr	r3, [pc, #72]	; (100018c0 <put_lfn+0x84>)
10001878:	429c      	cmp	r4, r3
1000187a:	d003      	beq.n	10001884 <put_lfn+0x48>
1000187c:	0073      	lsls	r3, r6, #1
1000187e:	4642      	mov	r2, r8
10001880:	5ad4      	ldrh	r4, [r2, r3]
10001882:	3601      	adds	r6, #1
10001884:	4b0f      	ldr	r3, [pc, #60]	; (100018c4 <put_lfn+0x88>)
10001886:	5d58      	ldrb	r0, [r3, r5]
10001888:	1838      	adds	r0, r7, r0
1000188a:	0021      	movs	r1, r4
1000188c:	f7ff ff49 	bl	10001722 <st_word>
10001890:	2c00      	cmp	r4, #0
10001892:	d1ed      	bne.n	10001870 <put_lfn+0x34>
10001894:	4c0a      	ldr	r4, [pc, #40]	; (100018c0 <put_lfn+0x84>)
10001896:	e7eb      	b.n	10001870 <put_lfn+0x34>
10001898:	4b09      	ldr	r3, [pc, #36]	; (100018c0 <put_lfn+0x84>)
1000189a:	429c      	cmp	r4, r3
1000189c:	d004      	beq.n	100018a8 <put_lfn+0x6c>
1000189e:	0076      	lsls	r6, r6, #1
100018a0:	4643      	mov	r3, r8
100018a2:	5af3      	ldrh	r3, [r6, r3]
100018a4:	2b00      	cmp	r3, #0
100018a6:	d104      	bne.n	100018b2 <put_lfn+0x76>
100018a8:	2240      	movs	r2, #64	; 0x40
100018aa:	464b      	mov	r3, r9
100018ac:	4313      	orrs	r3, r2
100018ae:	b2db      	uxtb	r3, r3
100018b0:	4699      	mov	r9, r3
100018b2:	464b      	mov	r3, r9
100018b4:	703b      	strb	r3, [r7, #0]
100018b6:	bcc0      	pop	{r6, r7}
100018b8:	46b9      	mov	r9, r7
100018ba:	46b0      	mov	r8, r6
100018bc:	bdf8      	pop	{r3, r4, r5, r6, r7, pc}
100018be:	46c0      	nop			; (mov r8, r8)
100018c0:	0000ffff 	.word	0x0000ffff
100018c4:	1000c1e0 	.word	0x1000c1e0

100018c8 <sum_sfn>:
100018c8:	b510      	push	{r4, lr}
100018ca:	0001      	movs	r1, r0
100018cc:	240b      	movs	r4, #11
100018ce:	2000      	movs	r0, #0
100018d0:	0843      	lsrs	r3, r0, #1
100018d2:	01c0      	lsls	r0, r0, #7
100018d4:	4303      	orrs	r3, r0
100018d6:	b2db      	uxtb	r3, r3
100018d8:	7808      	ldrb	r0, [r1, #0]
100018da:	3101      	adds	r1, #1
100018dc:	1818      	adds	r0, r3, r0
100018de:	b2c0      	uxtb	r0, r0
100018e0:	3c01      	subs	r4, #1
100018e2:	2c00      	cmp	r4, #0
100018e4:	d1f4      	bne.n	100018d0 <sum_sfn+0x8>
100018e6:	bd10      	pop	{r4, pc}

100018e8 <get_ldnumber>:
100018e8:	b510      	push	{r4, lr}
100018ea:	0001      	movs	r1, r0
100018ec:	6800      	ldr	r0, [r0, #0]
100018ee:	2800      	cmp	r0, #0
100018f0:	d023      	beq.n	1000193a <get_ldnumber+0x52>
100018f2:	0002      	movs	r2, r0
100018f4:	7813      	ldrb	r3, [r2, #0]
100018f6:	3201      	adds	r2, #1
100018f8:	2b1f      	cmp	r3, #31
100018fa:	d901      	bls.n	10001900 <get_ldnumber+0x18>
100018fc:	2b3a      	cmp	r3, #58	; 0x3a
100018fe:	d1f9      	bne.n	100018f4 <get_ldnumber+0xc>
10001900:	2b3a      	cmp	r3, #58	; 0x3a
10001902:	d002      	beq.n	1000190a <get_ldnumber+0x22>
10001904:	4b0e      	ldr	r3, [pc, #56]	; (10001940 <get_ldnumber+0x58>)
10001906:	7818      	ldrb	r0, [r3, #0]
10001908:	bd10      	pop	{r4, pc}
1000190a:	7803      	ldrb	r3, [r0, #0]
1000190c:	001c      	movs	r4, r3
1000190e:	3c30      	subs	r4, #48	; 0x30
10001910:	b2e4      	uxtb	r4, r4
10001912:	2c09      	cmp	r4, #9
10001914:	d80b      	bhi.n	1000192e <get_ldnumber+0x46>
10001916:	3002      	adds	r0, #2
10001918:	4290      	cmp	r0, r2
1000191a:	d002      	beq.n	10001922 <get_ldnumber+0x3a>
1000191c:	2001      	movs	r0, #1
1000191e:	4240      	negs	r0, r0
10001920:	e7f2      	b.n	10001908 <get_ldnumber+0x20>
10001922:	3b30      	subs	r3, #48	; 0x30
10001924:	0018      	movs	r0, r3
10001926:	2b03      	cmp	r3, #3
10001928:	dc04      	bgt.n	10001934 <get_ldnumber+0x4c>
1000192a:	600a      	str	r2, [r1, #0]
1000192c:	e7ec      	b.n	10001908 <get_ldnumber+0x20>
1000192e:	2001      	movs	r0, #1
10001930:	4240      	negs	r0, r0
10001932:	e7e9      	b.n	10001908 <get_ldnumber+0x20>
10001934:	2001      	movs	r0, #1
10001936:	4240      	negs	r0, r0
10001938:	e7e6      	b.n	10001908 <get_ldnumber+0x20>
1000193a:	2001      	movs	r0, #1
1000193c:	4240      	negs	r0, r0
1000193e:	e7e3      	b.n	10001908 <get_ldnumber+0x20>
10001940:	20002c6a 	.word	0x20002c6a

10001944 <validate>:
10001944:	b570      	push	{r4, r5, r6, lr}
10001946:	0004      	movs	r4, r0
10001948:	000d      	movs	r5, r1
1000194a:	2800      	cmp	r0, #0
1000194c:	d018      	beq.n	10001980 <validate+0x3c>
1000194e:	6803      	ldr	r3, [r0, #0]
10001950:	2b00      	cmp	r3, #0
10001952:	d017      	beq.n	10001984 <validate+0x40>
10001954:	781a      	ldrb	r2, [r3, #0]
10001956:	2a00      	cmp	r2, #0
10001958:	d017      	beq.n	1000198a <validate+0x46>
1000195a:	8881      	ldrh	r1, [r0, #4]
1000195c:	88da      	ldrh	r2, [r3, #6]
1000195e:	4291      	cmp	r1, r2
10001960:	d003      	beq.n	1000196a <validate+0x26>
10001962:	2009      	movs	r0, #9
10001964:	2400      	movs	r4, #0
10001966:	602c      	str	r4, [r5, #0]
10001968:	bd70      	pop	{r4, r5, r6, pc}
1000196a:	7858      	ldrb	r0, [r3, #1]
1000196c:	f7ff fd64 	bl	10001438 <disk_status>
10001970:	0003      	movs	r3, r0
10001972:	2201      	movs	r2, #1
10001974:	0010      	movs	r0, r2
10001976:	4018      	ands	r0, r3
10001978:	421a      	tst	r2, r3
1000197a:	d109      	bne.n	10001990 <validate+0x4c>
1000197c:	6824      	ldr	r4, [r4, #0]
1000197e:	e7f2      	b.n	10001966 <validate+0x22>
10001980:	2009      	movs	r0, #9
10001982:	e7f0      	b.n	10001966 <validate+0x22>
10001984:	001c      	movs	r4, r3
10001986:	2009      	movs	r0, #9
10001988:	e7ed      	b.n	10001966 <validate+0x22>
1000198a:	2009      	movs	r0, #9
1000198c:	2400      	movs	r4, #0
1000198e:	e7ea      	b.n	10001966 <validate+0x22>
10001990:	2009      	movs	r0, #9
10001992:	2400      	movs	r4, #0
10001994:	e7e7      	b.n	10001966 <validate+0x22>

10001996 <sync_window>:
10001996:	b570      	push	{r4, r5, r6, lr}
10001998:	0004      	movs	r4, r0
1000199a:	7905      	ldrb	r5, [r0, #4]
1000199c:	2d00      	cmp	r5, #0
1000199e:	d101      	bne.n	100019a4 <sync_window+0xe>
100019a0:	0028      	movs	r0, r5
100019a2:	bd70      	pop	{r4, r5, r6, pc}
100019a4:	0006      	movs	r6, r0
100019a6:	3638      	adds	r6, #56	; 0x38
100019a8:	7840      	ldrb	r0, [r0, #1]
100019aa:	2301      	movs	r3, #1
100019ac:	6b62      	ldr	r2, [r4, #52]	; 0x34
100019ae:	0031      	movs	r1, r6
100019b0:	f7ff fd6e 	bl	10001490 <disk_write>
100019b4:	1e05      	subs	r5, r0, #0
100019b6:	d111      	bne.n	100019dc <sync_window+0x46>
100019b8:	2300      	movs	r3, #0
100019ba:	7123      	strb	r3, [r4, #4]
100019bc:	6b62      	ldr	r2, [r4, #52]	; 0x34
100019be:	6aa3      	ldr	r3, [r4, #40]	; 0x28
100019c0:	1ad3      	subs	r3, r2, r3
100019c2:	6a21      	ldr	r1, [r4, #32]
100019c4:	428b      	cmp	r3, r1
100019c6:	d2eb      	bcs.n	100019a0 <sync_window+0xa>
100019c8:	78e3      	ldrb	r3, [r4, #3]
100019ca:	2b02      	cmp	r3, #2
100019cc:	d1e8      	bne.n	100019a0 <sync_window+0xa>
100019ce:	1852      	adds	r2, r2, r1
100019d0:	7860      	ldrb	r0, [r4, #1]
100019d2:	3b01      	subs	r3, #1
100019d4:	0031      	movs	r1, r6
100019d6:	f7ff fd5b 	bl	10001490 <disk_write>
100019da:	e7e1      	b.n	100019a0 <sync_window+0xa>
100019dc:	2501      	movs	r5, #1
100019de:	e7df      	b.n	100019a0 <sync_window+0xa>

100019e0 <move_window>:
100019e0:	b570      	push	{r4, r5, r6, lr}
100019e2:	0004      	movs	r4, r0
100019e4:	000d      	movs	r5, r1
100019e6:	6b43      	ldr	r3, [r0, #52]	; 0x34
100019e8:	428b      	cmp	r3, r1
100019ea:	d102      	bne.n	100019f2 <move_window+0x12>
100019ec:	2600      	movs	r6, #0
100019ee:	0030      	movs	r0, r6
100019f0:	bd70      	pop	{r4, r5, r6, pc}
100019f2:	f7ff ffd0 	bl	10001996 <sync_window>
100019f6:	1e06      	subs	r6, r0, #0
100019f8:	d1f9      	bne.n	100019ee <move_window+0xe>
100019fa:	0021      	movs	r1, r4
100019fc:	3138      	adds	r1, #56	; 0x38
100019fe:	7860      	ldrb	r0, [r4, #1]
10001a00:	2301      	movs	r3, #1
10001a02:	002a      	movs	r2, r5
10001a04:	f7ff fd26 	bl	10001454 <disk_read>
10001a08:	2800      	cmp	r0, #0
10001a0a:	d002      	beq.n	10001a12 <move_window+0x32>
10001a0c:	3601      	adds	r6, #1
10001a0e:	2501      	movs	r5, #1
10001a10:	426d      	negs	r5, r5
10001a12:	6365      	str	r5, [r4, #52]	; 0x34
10001a14:	e7eb      	b.n	100019ee <move_window+0xe>
	...

10001a18 <check_fs>:
10001a18:	b570      	push	{r4, r5, r6, lr}
10001a1a:	0004      	movs	r4, r0
10001a1c:	2300      	movs	r3, #0
10001a1e:	7103      	strb	r3, [r0, #4]
10001a20:	3b01      	subs	r3, #1
10001a22:	6343      	str	r3, [r0, #52]	; 0x34
10001a24:	f7ff ffdc 	bl	100019e0 <move_window>
10001a28:	2800      	cmp	r0, #0
10001a2a:	d15a      	bne.n	10001ae2 <check_fs+0xca>
10001a2c:	4b2e      	ldr	r3, [pc, #184]	; (10001ae8 <check_fs+0xd0>)
10001a2e:	18e0      	adds	r0, r4, r3
10001a30:	f7ff fe66 	bl	10001700 <ld_word>
10001a34:	0005      	movs	r5, r0
10001a36:	2338      	movs	r3, #56	; 0x38
10001a38:	5ce3      	ldrb	r3, [r4, r3]
10001a3a:	2beb      	cmp	r3, #235	; 0xeb
10001a3c:	d008      	beq.n	10001a50 <check_fs+0x38>
10001a3e:	2be9      	cmp	r3, #233	; 0xe9
10001a40:	d006      	beq.n	10001a50 <check_fs+0x38>
10001a42:	2be8      	cmp	r3, #232	; 0xe8
10001a44:	d004      	beq.n	10001a50 <check_fs+0x38>
10001a46:	4b29      	ldr	r3, [pc, #164]	; (10001aec <check_fs+0xd4>)
10001a48:	429d      	cmp	r5, r3
10001a4a:	d048      	beq.n	10001ade <check_fs+0xc6>
10001a4c:	2003      	movs	r0, #3
10001a4e:	bd70      	pop	{r4, r5, r6, pc}
10001a50:	4b26      	ldr	r3, [pc, #152]	; (10001aec <check_fs+0xd4>)
10001a52:	429d      	cmp	r5, r3
10001a54:	d039      	beq.n	10001aca <check_fs+0xb2>
10001a56:	0020      	movs	r0, r4
10001a58:	3043      	adds	r0, #67	; 0x43
10001a5a:	f7ff fe51 	bl	10001700 <ld_word>
10001a5e:	2345      	movs	r3, #69	; 0x45
10001a60:	5ce1      	ldrb	r1, [r4, r3]
10001a62:	1e43      	subs	r3, r0, #1
10001a64:	4203      	tst	r3, r0
10001a66:	d1ee      	bne.n	10001a46 <check_fs+0x2e>
10001a68:	2380      	movs	r3, #128	; 0x80
10001a6a:	009b      	lsls	r3, r3, #2
10001a6c:	4298      	cmp	r0, r3
10001a6e:	d3ea      	bcc.n	10001a46 <check_fs+0x2e>
10001a70:	d8e9      	bhi.n	10001a46 <check_fs+0x2e>
10001a72:	2900      	cmp	r1, #0
10001a74:	d0e7      	beq.n	10001a46 <check_fs+0x2e>
10001a76:	1e4b      	subs	r3, r1, #1
10001a78:	420b      	tst	r3, r1
10001a7a:	d1e4      	bne.n	10001a46 <check_fs+0x2e>
10001a7c:	0020      	movs	r0, r4
10001a7e:	3046      	adds	r0, #70	; 0x46
10001a80:	f7ff fe3e 	bl	10001700 <ld_word>
10001a84:	2800      	cmp	r0, #0
10001a86:	d0de      	beq.n	10001a46 <check_fs+0x2e>
10001a88:	2348      	movs	r3, #72	; 0x48
10001a8a:	5ce3      	ldrb	r3, [r4, r3]
10001a8c:	3b01      	subs	r3, #1
10001a8e:	2b01      	cmp	r3, #1
10001a90:	d8d9      	bhi.n	10001a46 <check_fs+0x2e>
10001a92:	0020      	movs	r0, r4
10001a94:	3049      	adds	r0, #73	; 0x49
10001a96:	f7ff fe33 	bl	10001700 <ld_word>
10001a9a:	2800      	cmp	r0, #0
10001a9c:	d0d3      	beq.n	10001a46 <check_fs+0x2e>
10001a9e:	0020      	movs	r0, r4
10001aa0:	304b      	adds	r0, #75	; 0x4b
10001aa2:	f7ff fe2d 	bl	10001700 <ld_word>
10001aa6:	287f      	cmp	r0, #127	; 0x7f
10001aa8:	d807      	bhi.n	10001aba <check_fs+0xa2>
10001aaa:	0020      	movs	r0, r4
10001aac:	3058      	adds	r0, #88	; 0x58
10001aae:	f7ff fe2c 	bl	1000170a <ld_dword>
10001ab2:	2380      	movs	r3, #128	; 0x80
10001ab4:	025b      	lsls	r3, r3, #9
10001ab6:	4298      	cmp	r0, r3
10001ab8:	d3c5      	bcc.n	10001a46 <check_fs+0x2e>
10001aba:	0020      	movs	r0, r4
10001abc:	304e      	adds	r0, #78	; 0x4e
10001abe:	f7ff fe1f 	bl	10001700 <ld_word>
10001ac2:	2800      	cmp	r0, #0
10001ac4:	d0bf      	beq.n	10001a46 <check_fs+0x2e>
10001ac6:	2000      	movs	r0, #0
10001ac8:	e7c1      	b.n	10001a4e <check_fs+0x36>
10001aca:	2208      	movs	r2, #8
10001acc:	4908      	ldr	r1, [pc, #32]	; (10001af0 <check_fs+0xd8>)
10001ace:	0020      	movs	r0, r4
10001ad0:	308a      	adds	r0, #138	; 0x8a
10001ad2:	f009 f83f 	bl	1000ab54 <memcmp>
10001ad6:	2800      	cmp	r0, #0
10001ad8:	d1bd      	bne.n	10001a56 <check_fs+0x3e>
10001ada:	2000      	movs	r0, #0
10001adc:	e7b7      	b.n	10001a4e <check_fs+0x36>
10001ade:	2002      	movs	r0, #2
10001ae0:	e7b5      	b.n	10001a4e <check_fs+0x36>
10001ae2:	2004      	movs	r0, #4
10001ae4:	e7b3      	b.n	10001a4e <check_fs+0x36>
10001ae6:	46c0      	nop			; (mov r8, r8)
10001ae8:	00000236 	.word	0x00000236
10001aec:	0000aa55 	.word	0x0000aa55
10001af0:	1000c140 	.word	0x1000c140

10001af4 <find_volume>:
10001af4:	b570      	push	{r4, r5, r6, lr}
10001af6:	b084      	sub	sp, #16
10001af8:	0006      	movs	r6, r0
10001afa:	000d      	movs	r5, r1
10001afc:	2100      	movs	r1, #0
10001afe:	f7ff ff8b 	bl	10001a18 <check_fs>
10001b02:	2802      	cmp	r0, #2
10001b04:	d004      	beq.n	10001b10 <find_volume+0x1c>
10001b06:	d82a      	bhi.n	10001b5e <find_volume+0x6a>
10001b08:	2d00      	cmp	r5, #0
10001b0a:	d028      	beq.n	10001b5e <find_volume+0x6a>
10001b0c:	2400      	movs	r4, #0
10001b0e:	e000      	b.n	10001b12 <find_volume+0x1e>
10001b10:	2400      	movs	r4, #0
10001b12:	2c03      	cmp	r4, #3
10001b14:	d80c      	bhi.n	10001b30 <find_volume+0x3c>
10001b16:	0033      	movs	r3, r6
10001b18:	3338      	adds	r3, #56	; 0x38
10001b1a:	0120      	lsls	r0, r4, #4
10001b1c:	30c7      	adds	r0, #199	; 0xc7
10001b1e:	30ff      	adds	r0, #255	; 0xff
10001b20:	1818      	adds	r0, r3, r0
10001b22:	f7ff fdf2 	bl	1000170a <ld_dword>
10001b26:	00a3      	lsls	r3, r4, #2
10001b28:	466a      	mov	r2, sp
10001b2a:	50d0      	str	r0, [r2, r3]
10001b2c:	3401      	adds	r4, #1
10001b2e:	e7f0      	b.n	10001b12 <find_volume+0x1e>
10001b30:	2d00      	cmp	r5, #0
10001b32:	d001      	beq.n	10001b38 <find_volume+0x44>
10001b34:	1e6c      	subs	r4, r5, #1
10001b36:	e00b      	b.n	10001b50 <find_volume+0x5c>
10001b38:	002c      	movs	r4, r5
10001b3a:	e009      	b.n	10001b50 <find_volume+0x5c>
10001b3c:	0030      	movs	r0, r6
10001b3e:	f7ff ff6b 	bl	10001a18 <check_fs>
10001b42:	2d00      	cmp	r5, #0
10001b44:	d10b      	bne.n	10001b5e <find_volume+0x6a>
10001b46:	2801      	cmp	r0, #1
10001b48:	d909      	bls.n	10001b5e <find_volume+0x6a>
10001b4a:	3401      	adds	r4, #1
10001b4c:	2c03      	cmp	r4, #3
10001b4e:	d806      	bhi.n	10001b5e <find_volume+0x6a>
10001b50:	00a3      	lsls	r3, r4, #2
10001b52:	466a      	mov	r2, sp
10001b54:	5899      	ldr	r1, [r3, r2]
10001b56:	2900      	cmp	r1, #0
10001b58:	d1f0      	bne.n	10001b3c <find_volume+0x48>
10001b5a:	2003      	movs	r0, #3
10001b5c:	e7f1      	b.n	10001b42 <find_volume+0x4e>
10001b5e:	b004      	add	sp, #16
10001b60:	bd70      	pop	{r4, r5, r6, pc}
	...

10001b64 <mount_volume>:
10001b64:	b5f0      	push	{r4, r5, r6, r7, lr}
10001b66:	46de      	mov	lr, fp
10001b68:	4657      	mov	r7, sl
10001b6a:	464e      	mov	r6, r9
10001b6c:	4645      	mov	r5, r8
10001b6e:	b5e0      	push	{r5, r6, r7, lr}
10001b70:	b085      	sub	sp, #20
10001b72:	000e      	movs	r6, r1
10001b74:	0015      	movs	r5, r2
10001b76:	2300      	movs	r3, #0
10001b78:	600b      	str	r3, [r1, #0]
10001b7a:	f7ff feb5 	bl	100018e8 <get_ldnumber>
10001b7e:	2800      	cmp	r0, #0
10001b80:	da00      	bge.n	10001b84 <mount_volume+0x20>
10001b82:	e131      	b.n	10001de8 <mount_volume+0x284>
10001b84:	0080      	lsls	r0, r0, #2
10001b86:	4bae      	ldr	r3, [pc, #696]	; (10001e40 <mount_volume+0x2dc>)
10001b88:	58c4      	ldr	r4, [r0, r3]
10001b8a:	2c00      	cmp	r4, #0
10001b8c:	d100      	bne.n	10001b90 <mount_volume+0x2c>
10001b8e:	e134      	b.n	10001dfa <mount_volume+0x296>
10001b90:	6034      	str	r4, [r6, #0]
10001b92:	2301      	movs	r3, #1
10001b94:	439d      	bics	r5, r3
10001b96:	002e      	movs	r6, r5
10001b98:	7823      	ldrb	r3, [r4, #0]
10001b9a:	2b00      	cmp	r3, #0
10001b9c:	d00f      	beq.n	10001bbe <mount_volume+0x5a>
10001b9e:	7860      	ldrb	r0, [r4, #1]
10001ba0:	f7ff fc4a 	bl	10001438 <disk_status>
10001ba4:	2301      	movs	r3, #1
10001ba6:	001d      	movs	r5, r3
10001ba8:	4005      	ands	r5, r0
10001baa:	4203      	tst	r3, r0
10001bac:	d107      	bne.n	10001bbe <mount_volume+0x5a>
10001bae:	2e00      	cmp	r6, #0
10001bb0:	d100      	bne.n	10001bb4 <mount_volume+0x50>
10001bb2:	e11a      	b.n	10001dea <mount_volume+0x286>
10001bb4:	0743      	lsls	r3, r0, #29
10001bb6:	d400      	bmi.n	10001bba <mount_volume+0x56>
10001bb8:	e117      	b.n	10001dea <mount_volume+0x286>
10001bba:	250a      	movs	r5, #10
10001bbc:	e115      	b.n	10001dea <mount_volume+0x286>
10001bbe:	2300      	movs	r3, #0
10001bc0:	7023      	strb	r3, [r4, #0]
10001bc2:	7860      	ldrb	r0, [r4, #1]
10001bc4:	f7ff fc43 	bl	1000144e <disk_initialize>
10001bc8:	2301      	movs	r3, #1
10001bca:	001d      	movs	r5, r3
10001bcc:	4005      	ands	r5, r0
10001bce:	4203      	tst	r3, r0
10001bd0:	d000      	beq.n	10001bd4 <mount_volume+0x70>
10001bd2:	e114      	b.n	10001dfe <mount_volume+0x29a>
10001bd4:	2e00      	cmp	r6, #0
10001bd6:	d002      	beq.n	10001bde <mount_volume+0x7a>
10001bd8:	0743      	lsls	r3, r0, #29
10001bda:	d500      	bpl.n	10001bde <mount_volume+0x7a>
10001bdc:	e111      	b.n	10001e02 <mount_volume+0x29e>
10001bde:	2100      	movs	r1, #0
10001be0:	0020      	movs	r0, r4
10001be2:	f7ff ff87 	bl	10001af4 <find_volume>
10001be6:	2804      	cmp	r0, #4
10001be8:	d100      	bne.n	10001bec <mount_volume+0x88>
10001bea:	e10c      	b.n	10001e06 <mount_volume+0x2a2>
10001bec:	2801      	cmp	r0, #1
10001bee:	d900      	bls.n	10001bf2 <mount_volume+0x8e>
10001bf0:	e10b      	b.n	10001e0a <mount_volume+0x2a6>
10001bf2:	6b63      	ldr	r3, [r4, #52]	; 0x34
10001bf4:	469b      	mov	fp, r3
10001bf6:	0020      	movs	r0, r4
10001bf8:	3043      	adds	r0, #67	; 0x43
10001bfa:	f7ff fd81 	bl	10001700 <ld_word>
10001bfe:	2380      	movs	r3, #128	; 0x80
10001c00:	009b      	lsls	r3, r3, #2
10001c02:	4298      	cmp	r0, r3
10001c04:	d000      	beq.n	10001c08 <mount_volume+0xa4>
10001c06:	e102      	b.n	10001e0e <mount_volume+0x2aa>
10001c08:	0020      	movs	r0, r4
10001c0a:	304e      	adds	r0, #78	; 0x4e
10001c0c:	f7ff fd78 	bl	10001700 <ld_word>
10001c10:	1e06      	subs	r6, r0, #0
10001c12:	d104      	bne.n	10001c1e <mount_volume+0xba>
10001c14:	0020      	movs	r0, r4
10001c16:	305c      	adds	r0, #92	; 0x5c
10001c18:	f7ff fd77 	bl	1000170a <ld_dword>
10001c1c:	0006      	movs	r6, r0
10001c1e:	6226      	str	r6, [r4, #32]
10001c20:	2348      	movs	r3, #72	; 0x48
10001c22:	5ce7      	ldrb	r7, [r4, r3]
10001c24:	70e7      	strb	r7, [r4, #3]
10001c26:	1e7b      	subs	r3, r7, #1
10001c28:	b2db      	uxtb	r3, r3
10001c2a:	2b01      	cmp	r3, #1
10001c2c:	d900      	bls.n	10001c30 <mount_volume+0xcc>
10001c2e:	e0f0      	b.n	10001e12 <mount_volume+0x2ae>
10001c30:	4377      	muls	r7, r6
10001c32:	9701      	str	r7, [sp, #4]
10001c34:	2345      	movs	r3, #69	; 0x45
10001c36:	5ce7      	ldrb	r7, [r4, r3]
10001c38:	8167      	strh	r7, [r4, #10]
10001c3a:	2f00      	cmp	r7, #0
10001c3c:	d100      	bne.n	10001c40 <mount_volume+0xdc>
10001c3e:	e0ea      	b.n	10001e16 <mount_volume+0x2b2>
10001c40:	1e7b      	subs	r3, r7, #1
10001c42:	423b      	tst	r3, r7
10001c44:	d000      	beq.n	10001c48 <mount_volume+0xe4>
10001c46:	e0e8      	b.n	10001e1a <mount_volume+0x2b6>
10001c48:	0020      	movs	r0, r4
10001c4a:	3049      	adds	r0, #73	; 0x49
10001c4c:	f7ff fd58 	bl	10001700 <ld_word>
10001c50:	4680      	mov	r8, r0
10001c52:	0003      	movs	r3, r0
10001c54:	9002      	str	r0, [sp, #8]
10001c56:	8120      	strh	r0, [r4, #8]
10001c58:	071b      	lsls	r3, r3, #28
10001c5a:	d000      	beq.n	10001c5e <mount_volume+0xfa>
10001c5c:	e0df      	b.n	10001e1e <mount_volume+0x2ba>
10001c5e:	0020      	movs	r0, r4
10001c60:	304b      	adds	r0, #75	; 0x4b
10001c62:	f7ff fd4d 	bl	10001700 <ld_word>
10001c66:	4682      	mov	sl, r0
10001c68:	2800      	cmp	r0, #0
10001c6a:	d104      	bne.n	10001c76 <mount_volume+0x112>
10001c6c:	0020      	movs	r0, r4
10001c6e:	3058      	adds	r0, #88	; 0x58
10001c70:	f7ff fd4b 	bl	1000170a <ld_dword>
10001c74:	4682      	mov	sl, r0
10001c76:	0020      	movs	r0, r4
10001c78:	3046      	adds	r0, #70	; 0x46
10001c7a:	f7ff fd41 	bl	10001700 <ld_word>
10001c7e:	1e03      	subs	r3, r0, #0
10001c80:	9003      	str	r0, [sp, #12]
10001c82:	d100      	bne.n	10001c86 <mount_volume+0x122>
10001c84:	e0cd      	b.n	10001e22 <mount_volume+0x2be>
10001c86:	9a01      	ldr	r2, [sp, #4]
10001c88:	4694      	mov	ip, r2
10001c8a:	4463      	add	r3, ip
10001c8c:	4642      	mov	r2, r8
10001c8e:	0910      	lsrs	r0, r2, #4
10001c90:	b280      	uxth	r0, r0
10001c92:	4698      	mov	r8, r3
10001c94:	4480      	add	r8, r0
10001c96:	45c2      	cmp	sl, r8
10001c98:	d200      	bcs.n	10001c9c <mount_volume+0x138>
10001c9a:	e0c4      	b.n	10001e26 <mount_volume+0x2c2>
10001c9c:	4653      	mov	r3, sl
10001c9e:	4642      	mov	r2, r8
10001ca0:	1a9b      	subs	r3, r3, r2
10001ca2:	469a      	mov	sl, r3
10001ca4:	0039      	movs	r1, r7
10001ca6:	0018      	movs	r0, r3
10001ca8:	f003 fb58 	bl	1000535c <__wrap___aeabi_uidiv>
10001cac:	45ba      	cmp	sl, r7
10001cae:	d200      	bcs.n	10001cb2 <mount_volume+0x14e>
10001cb0:	e0bb      	b.n	10001e2a <mount_volume+0x2c6>
10001cb2:	4b64      	ldr	r3, [pc, #400]	; (10001e44 <mount_volume+0x2e0>)
10001cb4:	4298      	cmp	r0, r3
10001cb6:	d90e      	bls.n	10001cd6 <mount_volume+0x172>
10001cb8:	2300      	movs	r3, #0
10001cba:	4699      	mov	r9, r3
10001cbc:	4b62      	ldr	r3, [pc, #392]	; (10001e48 <mount_volume+0x2e4>)
10001cbe:	4298      	cmp	r0, r3
10001cc0:	d801      	bhi.n	10001cc6 <mount_volume+0x162>
10001cc2:	2302      	movs	r3, #2
10001cc4:	4699      	mov	r9, r3
10001cc6:	4b61      	ldr	r3, [pc, #388]	; (10001e4c <mount_volume+0x2e8>)
10001cc8:	4298      	cmp	r0, r3
10001cca:	d907      	bls.n	10001cdc <mount_volume+0x178>
10001ccc:	464b      	mov	r3, r9
10001cce:	2b00      	cmp	r3, #0
10001cd0:	d106      	bne.n	10001ce0 <mount_volume+0x17c>
10001cd2:	250d      	movs	r5, #13
10001cd4:	e089      	b.n	10001dea <mount_volume+0x286>
10001cd6:	2303      	movs	r3, #3
10001cd8:	4699      	mov	r9, r3
10001cda:	e7ef      	b.n	10001cbc <mount_volume+0x158>
10001cdc:	2301      	movs	r3, #1
10001cde:	4699      	mov	r9, r3
10001ce0:	1c83      	adds	r3, r0, #2
10001ce2:	469a      	mov	sl, r3
10001ce4:	61e3      	str	r3, [r4, #28]
10001ce6:	465b      	mov	r3, fp
10001ce8:	6263      	str	r3, [r4, #36]	; 0x24
10001cea:	9803      	ldr	r0, [sp, #12]
10001cec:	4458      	add	r0, fp
10001cee:	62a0      	str	r0, [r4, #40]	; 0x28
10001cf0:	4643      	mov	r3, r8
10001cf2:	445b      	add	r3, fp
10001cf4:	6323      	str	r3, [r4, #48]	; 0x30
10001cf6:	464b      	mov	r3, r9
10001cf8:	2b03      	cmp	r3, #3
10001cfa:	d02f      	beq.n	10001d5c <mount_volume+0x1f8>
10001cfc:	9b02      	ldr	r3, [sp, #8]
10001cfe:	2b00      	cmp	r3, #0
10001d00:	d100      	bne.n	10001d04 <mount_volume+0x1a0>
10001d02:	e098      	b.n	10001e36 <mount_volume+0x2d2>
10001d04:	9b01      	ldr	r3, [sp, #4]
10001d06:	469c      	mov	ip, r3
10001d08:	4460      	add	r0, ip
10001d0a:	62e0      	str	r0, [r4, #44]	; 0x2c
10001d0c:	464b      	mov	r3, r9
10001d0e:	2b02      	cmp	r3, #2
10001d10:	d035      	beq.n	10001d7e <mount_volume+0x21a>
10001d12:	4653      	mov	r3, sl
10001d14:	005b      	lsls	r3, r3, #1
10001d16:	4453      	add	r3, sl
10001d18:	085b      	lsrs	r3, r3, #1
10001d1a:	2201      	movs	r2, #1
10001d1c:	4651      	mov	r1, sl
10001d1e:	400a      	ands	r2, r1
10001d20:	189b      	adds	r3, r3, r2
10001d22:	4a4b      	ldr	r2, [pc, #300]	; (10001e50 <mount_volume+0x2ec>)
10001d24:	4694      	mov	ip, r2
10001d26:	4463      	add	r3, ip
10001d28:	0a5b      	lsrs	r3, r3, #9
10001d2a:	42b3      	cmp	r3, r6
10001d2c:	d900      	bls.n	10001d30 <mount_volume+0x1cc>
10001d2e:	e084      	b.n	10001e3a <mount_volume+0x2d6>
10001d30:	2301      	movs	r3, #1
10001d32:	425b      	negs	r3, r3
10001d34:	6163      	str	r3, [r4, #20]
10001d36:	6123      	str	r3, [r4, #16]
10001d38:	3381      	adds	r3, #129	; 0x81
10001d3a:	7163      	strb	r3, [r4, #5]
10001d3c:	464b      	mov	r3, r9
10001d3e:	2b03      	cmp	r3, #3
10001d40:	d020      	beq.n	10001d84 <mount_volume+0x220>
10001d42:	464b      	mov	r3, r9
10001d44:	7023      	strb	r3, [r4, #0]
10001d46:	4a43      	ldr	r2, [pc, #268]	; (10001e54 <mount_volume+0x2f0>)
10001d48:	8813      	ldrh	r3, [r2, #0]
10001d4a:	3301      	adds	r3, #1
10001d4c:	b29b      	uxth	r3, r3
10001d4e:	8013      	strh	r3, [r2, #0]
10001d50:	80e3      	strh	r3, [r4, #6]
10001d52:	4b41      	ldr	r3, [pc, #260]	; (10001e58 <mount_volume+0x2f4>)
10001d54:	60e3      	str	r3, [r4, #12]
10001d56:	2300      	movs	r3, #0
10001d58:	61a3      	str	r3, [r4, #24]
10001d5a:	e046      	b.n	10001dea <mount_volume+0x286>
10001d5c:	0020      	movs	r0, r4
10001d5e:	3062      	adds	r0, #98	; 0x62
10001d60:	f7ff fcce 	bl	10001700 <ld_word>
10001d64:	2800      	cmp	r0, #0
10001d66:	d162      	bne.n	10001e2e <mount_volume+0x2ca>
10001d68:	9b02      	ldr	r3, [sp, #8]
10001d6a:	2b00      	cmp	r3, #0
10001d6c:	d161      	bne.n	10001e32 <mount_volume+0x2ce>
10001d6e:	0020      	movs	r0, r4
10001d70:	3064      	adds	r0, #100	; 0x64
10001d72:	f7ff fcca 	bl	1000170a <ld_dword>
10001d76:	62e0      	str	r0, [r4, #44]	; 0x2c
10001d78:	4653      	mov	r3, sl
10001d7a:	009b      	lsls	r3, r3, #2
10001d7c:	e7d1      	b.n	10001d22 <mount_volume+0x1be>
10001d7e:	4653      	mov	r3, sl
10001d80:	005b      	lsls	r3, r3, #1
10001d82:	e7ce      	b.n	10001d22 <mount_volume+0x1be>
10001d84:	0020      	movs	r0, r4
10001d86:	3068      	adds	r0, #104	; 0x68
10001d88:	f7ff fcba 	bl	10001700 <ld_word>
10001d8c:	2801      	cmp	r0, #1
10001d8e:	d1d8      	bne.n	10001d42 <mount_volume+0x1de>
10001d90:	4659      	mov	r1, fp
10001d92:	3101      	adds	r1, #1
10001d94:	0020      	movs	r0, r4
10001d96:	f7ff fe23 	bl	100019e0 <move_window>
10001d9a:	2800      	cmp	r0, #0
10001d9c:	d1d1      	bne.n	10001d42 <mount_volume+0x1de>
10001d9e:	2300      	movs	r3, #0
10001da0:	7163      	strb	r3, [r4, #5]
10001da2:	4b2e      	ldr	r3, [pc, #184]	; (10001e5c <mount_volume+0x2f8>)
10001da4:	18e0      	adds	r0, r4, r3
10001da6:	f7ff fcab 	bl	10001700 <ld_word>
10001daa:	4b2d      	ldr	r3, [pc, #180]	; (10001e60 <mount_volume+0x2fc>)
10001dac:	4298      	cmp	r0, r3
10001dae:	d1c8      	bne.n	10001d42 <mount_volume+0x1de>
10001db0:	0020      	movs	r0, r4
10001db2:	3038      	adds	r0, #56	; 0x38
10001db4:	f7ff fca9 	bl	1000170a <ld_dword>
10001db8:	4b2a      	ldr	r3, [pc, #168]	; (10001e64 <mount_volume+0x300>)
10001dba:	4298      	cmp	r0, r3
10001dbc:	d1c1      	bne.n	10001d42 <mount_volume+0x1de>
10001dbe:	2387      	movs	r3, #135	; 0x87
10001dc0:	009b      	lsls	r3, r3, #2
10001dc2:	18e0      	adds	r0, r4, r3
10001dc4:	f7ff fca1 	bl	1000170a <ld_dword>
10001dc8:	4b27      	ldr	r3, [pc, #156]	; (10001e68 <mount_volume+0x304>)
10001dca:	4298      	cmp	r0, r3
10001dcc:	d1b9      	bne.n	10001d42 <mount_volume+0x1de>
10001dce:	2388      	movs	r3, #136	; 0x88
10001dd0:	009b      	lsls	r3, r3, #2
10001dd2:	18e0      	adds	r0, r4, r3
10001dd4:	f7ff fc99 	bl	1000170a <ld_dword>
10001dd8:	6160      	str	r0, [r4, #20]
10001dda:	2389      	movs	r3, #137	; 0x89
10001ddc:	009b      	lsls	r3, r3, #2
10001dde:	18e0      	adds	r0, r4, r3
10001de0:	f7ff fc93 	bl	1000170a <ld_dword>
10001de4:	6120      	str	r0, [r4, #16]
10001de6:	e7ac      	b.n	10001d42 <mount_volume+0x1de>
10001de8:	250b      	movs	r5, #11
10001dea:	0028      	movs	r0, r5
10001dec:	b005      	add	sp, #20
10001dee:	bcf0      	pop	{r4, r5, r6, r7}
10001df0:	46bb      	mov	fp, r7
10001df2:	46b2      	mov	sl, r6
10001df4:	46a9      	mov	r9, r5
10001df6:	46a0      	mov	r8, r4
10001df8:	bdf0      	pop	{r4, r5, r6, r7, pc}
10001dfa:	250c      	movs	r5, #12
10001dfc:	e7f5      	b.n	10001dea <mount_volume+0x286>
10001dfe:	2503      	movs	r5, #3
10001e00:	e7f3      	b.n	10001dea <mount_volume+0x286>
10001e02:	250a      	movs	r5, #10
10001e04:	e7f1      	b.n	10001dea <mount_volume+0x286>
10001e06:	2501      	movs	r5, #1
10001e08:	e7ef      	b.n	10001dea <mount_volume+0x286>
10001e0a:	250d      	movs	r5, #13
10001e0c:	e7ed      	b.n	10001dea <mount_volume+0x286>
10001e0e:	250d      	movs	r5, #13
10001e10:	e7eb      	b.n	10001dea <mount_volume+0x286>
10001e12:	250d      	movs	r5, #13
10001e14:	e7e9      	b.n	10001dea <mount_volume+0x286>
10001e16:	250d      	movs	r5, #13
10001e18:	e7e7      	b.n	10001dea <mount_volume+0x286>
10001e1a:	250d      	movs	r5, #13
10001e1c:	e7e5      	b.n	10001dea <mount_volume+0x286>
10001e1e:	250d      	movs	r5, #13
10001e20:	e7e3      	b.n	10001dea <mount_volume+0x286>
10001e22:	250d      	movs	r5, #13
10001e24:	e7e1      	b.n	10001dea <mount_volume+0x286>
10001e26:	250d      	movs	r5, #13
10001e28:	e7df      	b.n	10001dea <mount_volume+0x286>
10001e2a:	250d      	movs	r5, #13
10001e2c:	e7dd      	b.n	10001dea <mount_volume+0x286>
10001e2e:	250d      	movs	r5, #13
10001e30:	e7db      	b.n	10001dea <mount_volume+0x286>
10001e32:	250d      	movs	r5, #13
10001e34:	e7d9      	b.n	10001dea <mount_volume+0x286>
10001e36:	250d      	movs	r5, #13
10001e38:	e7d7      	b.n	10001dea <mount_volume+0x286>
10001e3a:	250d      	movs	r5, #13
10001e3c:	e7d5      	b.n	10001dea <mount_volume+0x286>
10001e3e:	46c0      	nop			; (mov r8, r8)
10001e40:	20001444 	.word	0x20001444
10001e44:	0ffffff5 	.word	0x0ffffff5
10001e48:	0000fff5 	.word	0x0000fff5
10001e4c:	00000ff5 	.word	0x00000ff5
10001e50:	000001ff 	.word	0x000001ff
10001e54:	20002c68 	.word	0x20002c68
10001e58:	20001454 	.word	0x20001454
10001e5c:	00000236 	.word	0x00000236
10001e60:	0000aa55 	.word	0x0000aa55
10001e64:	41615252 	.word	0x41615252
10001e68:	61417272 	.word	0x61417272

10001e6c <put_fat>:
10001e6c:	b5f0      	push	{r4, r5, r6, r7, lr}
10001e6e:	46d6      	mov	lr, sl
10001e70:	464f      	mov	r7, r9
10001e72:	4646      	mov	r6, r8
10001e74:	b5c0      	push	{r6, r7, lr}
10001e76:	0006      	movs	r6, r0
10001e78:	000c      	movs	r4, r1
10001e7a:	0017      	movs	r7, r2
10001e7c:	2901      	cmp	r1, #1
10001e7e:	d800      	bhi.n	10001e82 <put_fat+0x16>
10001e80:	e092      	b.n	10001fa8 <put_fat+0x13c>
10001e82:	69c3      	ldr	r3, [r0, #28]
10001e84:	428b      	cmp	r3, r1
10001e86:	d800      	bhi.n	10001e8a <put_fat+0x1e>
10001e88:	e090      	b.n	10001fac <put_fat+0x140>
10001e8a:	7803      	ldrb	r3, [r0, #0]
10001e8c:	2b02      	cmp	r3, #2
10001e8e:	d058      	beq.n	10001f42 <put_fat+0xd6>
10001e90:	2b03      	cmp	r3, #3
10001e92:	d100      	bne.n	10001e96 <put_fat+0x2a>
10001e94:	e06a      	b.n	10001f6c <put_fat+0x100>
10001e96:	2b01      	cmp	r3, #1
10001e98:	d006      	beq.n	10001ea8 <put_fat+0x3c>
10001e9a:	2502      	movs	r5, #2
10001e9c:	0028      	movs	r0, r5
10001e9e:	bce0      	pop	{r5, r6, r7}
10001ea0:	46ba      	mov	sl, r7
10001ea2:	46b1      	mov	r9, r6
10001ea4:	46a8      	mov	r8, r5
10001ea6:	bdf0      	pop	{r4, r5, r6, r7, pc}
10001ea8:	084b      	lsrs	r3, r1, #1
10001eaa:	4698      	mov	r8, r3
10001eac:	4488      	add	r8, r1
10001eae:	4643      	mov	r3, r8
10001eb0:	0a59      	lsrs	r1, r3, #9
10001eb2:	6a83      	ldr	r3, [r0, #40]	; 0x28
10001eb4:	469c      	mov	ip, r3
10001eb6:	4461      	add	r1, ip
10001eb8:	f7ff fd92 	bl	100019e0 <move_window>
10001ebc:	1e05      	subs	r5, r0, #0
10001ebe:	d1ed      	bne.n	10001e9c <put_fat+0x30>
10001ec0:	2338      	movs	r3, #56	; 0x38
10001ec2:	469a      	mov	sl, r3
10001ec4:	44b2      	add	sl, r6
10001ec6:	3b37      	subs	r3, #55	; 0x37
10001ec8:	4443      	add	r3, r8
10001eca:	4699      	mov	r9, r3
10001ecc:	4643      	mov	r3, r8
10001ece:	05db      	lsls	r3, r3, #23
10001ed0:	0ddb      	lsrs	r3, r3, #23
10001ed2:	4453      	add	r3, sl
10001ed4:	2201      	movs	r2, #1
10001ed6:	0011      	movs	r1, r2
10001ed8:	4021      	ands	r1, r4
10001eda:	4688      	mov	r8, r1
10001edc:	4222      	tst	r2, r4
10001ede:	d023      	beq.n	10001f28 <put_fat+0xbc>
10001ee0:	2100      	movs	r1, #0
10001ee2:	5659      	ldrsb	r1, [r3, r1]
10001ee4:	320e      	adds	r2, #14
10001ee6:	400a      	ands	r2, r1
10001ee8:	0139      	lsls	r1, r7, #4
10001eea:	20ff      	movs	r0, #255	; 0xff
10001eec:	0100      	lsls	r0, r0, #4
10001eee:	4001      	ands	r1, r0
10001ef0:	430a      	orrs	r2, r1
10001ef2:	b2d2      	uxtb	r2, r2
10001ef4:	701a      	strb	r2, [r3, #0]
10001ef6:	2301      	movs	r3, #1
10001ef8:	7133      	strb	r3, [r6, #4]
10001efa:	464b      	mov	r3, r9
10001efc:	0a59      	lsrs	r1, r3, #9
10001efe:	6ab3      	ldr	r3, [r6, #40]	; 0x28
10001f00:	469c      	mov	ip, r3
10001f02:	4461      	add	r1, ip
10001f04:	0030      	movs	r0, r6
10001f06:	f7ff fd6b 	bl	100019e0 <move_window>
10001f0a:	1e05      	subs	r5, r0, #0
10001f0c:	d1c6      	bne.n	10001e9c <put_fat+0x30>
10001f0e:	464b      	mov	r3, r9
10001f10:	05db      	lsls	r3, r3, #23
10001f12:	0ddb      	lsrs	r3, r3, #23
10001f14:	4453      	add	r3, sl
10001f16:	4642      	mov	r2, r8
10001f18:	2a00      	cmp	r2, #0
10001f1a:	d007      	beq.n	10001f2c <put_fat+0xc0>
10001f1c:	093a      	lsrs	r2, r7, #4
10001f1e:	b2d2      	uxtb	r2, r2
10001f20:	701a      	strb	r2, [r3, #0]
10001f22:	2301      	movs	r3, #1
10001f24:	7133      	strb	r3, [r6, #4]
10001f26:	e7b9      	b.n	10001e9c <put_fat+0x30>
10001f28:	b2fa      	uxtb	r2, r7
10001f2a:	e7e3      	b.n	10001ef4 <put_fat+0x88>
10001f2c:	2200      	movs	r2, #0
10001f2e:	569a      	ldrsb	r2, [r3, r2]
10001f30:	210f      	movs	r1, #15
10001f32:	438a      	bics	r2, r1
10001f34:	0a3f      	lsrs	r7, r7, #8
10001f36:	b279      	sxtb	r1, r7
10001f38:	270f      	movs	r7, #15
10001f3a:	400f      	ands	r7, r1
10001f3c:	433a      	orrs	r2, r7
10001f3e:	b2d2      	uxtb	r2, r2
10001f40:	e7ee      	b.n	10001f20 <put_fat+0xb4>
10001f42:	0a09      	lsrs	r1, r1, #8
10001f44:	6a83      	ldr	r3, [r0, #40]	; 0x28
10001f46:	469c      	mov	ip, r3
10001f48:	4461      	add	r1, ip
10001f4a:	f7ff fd49 	bl	100019e0 <move_window>
10001f4e:	1e05      	subs	r5, r0, #0
10001f50:	d1a4      	bne.n	10001e9c <put_fat+0x30>
10001f52:	0030      	movs	r0, r6
10001f54:	3038      	adds	r0, #56	; 0x38
10001f56:	0064      	lsls	r4, r4, #1
10001f58:	21ff      	movs	r1, #255	; 0xff
10001f5a:	0049      	lsls	r1, r1, #1
10001f5c:	400c      	ands	r4, r1
10001f5e:	b2b9      	uxth	r1, r7
10001f60:	1900      	adds	r0, r0, r4
10001f62:	f7ff fbde 	bl	10001722 <st_word>
10001f66:	2301      	movs	r3, #1
10001f68:	7133      	strb	r3, [r6, #4]
10001f6a:	e797      	b.n	10001e9c <put_fat+0x30>
10001f6c:	09c9      	lsrs	r1, r1, #7
10001f6e:	6a83      	ldr	r3, [r0, #40]	; 0x28
10001f70:	469c      	mov	ip, r3
10001f72:	4461      	add	r1, ip
10001f74:	f7ff fd34 	bl	100019e0 <move_window>
10001f78:	1e05      	subs	r5, r0, #0
10001f7a:	d000      	beq.n	10001f7e <put_fat+0x112>
10001f7c:	e78e      	b.n	10001e9c <put_fat+0x30>
10001f7e:	013f      	lsls	r7, r7, #4
10001f80:	093f      	lsrs	r7, r7, #4
10001f82:	0033      	movs	r3, r6
10001f84:	3338      	adds	r3, #56	; 0x38
10001f86:	00a4      	lsls	r4, r4, #2
10001f88:	21fe      	movs	r1, #254	; 0xfe
10001f8a:	0049      	lsls	r1, r1, #1
10001f8c:	400c      	ands	r4, r1
10001f8e:	191c      	adds	r4, r3, r4
10001f90:	0020      	movs	r0, r4
10001f92:	f7ff fbba 	bl	1000170a <ld_dword>
10001f96:	0f01      	lsrs	r1, r0, #28
10001f98:	0709      	lsls	r1, r1, #28
10001f9a:	4339      	orrs	r1, r7
10001f9c:	0020      	movs	r0, r4
10001f9e:	f7ff fbc4 	bl	1000172a <st_dword>
10001fa2:	2301      	movs	r3, #1
10001fa4:	7133      	strb	r3, [r6, #4]
10001fa6:	e779      	b.n	10001e9c <put_fat+0x30>
10001fa8:	2502      	movs	r5, #2
10001faa:	e777      	b.n	10001e9c <put_fat+0x30>
10001fac:	2502      	movs	r5, #2
10001fae:	e775      	b.n	10001e9c <put_fat+0x30>

10001fb0 <get_fat>:
10001fb0:	b5f8      	push	{r3, r4, r5, r6, r7, lr}
10001fb2:	000c      	movs	r4, r1
10001fb4:	6805      	ldr	r5, [r0, #0]
10001fb6:	2901      	cmp	r1, #1
10001fb8:	d95e      	bls.n	10002078 <get_fat+0xc8>
10001fba:	69eb      	ldr	r3, [r5, #28]
10001fbc:	428b      	cmp	r3, r1
10001fbe:	d95d      	bls.n	1000207c <get_fat+0xcc>
10001fc0:	782b      	ldrb	r3, [r5, #0]
10001fc2:	2b02      	cmp	r3, #2
10001fc4:	d030      	beq.n	10002028 <get_fat+0x78>
10001fc6:	2b03      	cmp	r3, #3
10001fc8:	d041      	beq.n	1000204e <get_fat+0x9e>
10001fca:	2b01      	cmp	r3, #1
10001fcc:	d001      	beq.n	10001fd2 <get_fat+0x22>
10001fce:	2001      	movs	r0, #1
10001fd0:	e053      	b.n	1000207a <get_fat+0xca>
10001fd2:	084e      	lsrs	r6, r1, #1
10001fd4:	1876      	adds	r6, r6, r1
10001fd6:	0a71      	lsrs	r1, r6, #9
10001fd8:	6aab      	ldr	r3, [r5, #40]	; 0x28
10001fda:	469c      	mov	ip, r3
10001fdc:	4461      	add	r1, ip
10001fde:	0028      	movs	r0, r5
10001fe0:	f7ff fcfe 	bl	100019e0 <move_window>
10001fe4:	2800      	cmp	r0, #0
10001fe6:	d002      	beq.n	10001fee <get_fat+0x3e>
10001fe8:	2001      	movs	r0, #1
10001fea:	4240      	negs	r0, r0
10001fec:	e045      	b.n	1000207a <get_fat+0xca>
10001fee:	1c77      	adds	r7, r6, #1
10001ff0:	05f3      	lsls	r3, r6, #23
10001ff2:	0ddb      	lsrs	r3, r3, #23
10001ff4:	18eb      	adds	r3, r5, r3
10001ff6:	3338      	adds	r3, #56	; 0x38
10001ff8:	781e      	ldrb	r6, [r3, #0]
10001ffa:	0a79      	lsrs	r1, r7, #9
10001ffc:	6aab      	ldr	r3, [r5, #40]	; 0x28
10001ffe:	469c      	mov	ip, r3
10002000:	4461      	add	r1, ip
10002002:	0028      	movs	r0, r5
10002004:	f7ff fcec 	bl	100019e0 <move_window>
10002008:	2800      	cmp	r0, #0
1000200a:	d139      	bne.n	10002080 <get_fat+0xd0>
1000200c:	05ff      	lsls	r7, r7, #23
1000200e:	0dff      	lsrs	r7, r7, #23
10002010:	19ed      	adds	r5, r5, r7
10002012:	3538      	adds	r5, #56	; 0x38
10002014:	7828      	ldrb	r0, [r5, #0]
10002016:	0200      	lsls	r0, r0, #8
10002018:	4330      	orrs	r0, r6
1000201a:	07e3      	lsls	r3, r4, #31
1000201c:	d501      	bpl.n	10002022 <get_fat+0x72>
1000201e:	0900      	lsrs	r0, r0, #4
10002020:	e02b      	b.n	1000207a <get_fat+0xca>
10002022:	0500      	lsls	r0, r0, #20
10002024:	0d00      	lsrs	r0, r0, #20
10002026:	e028      	b.n	1000207a <get_fat+0xca>
10002028:	0a09      	lsrs	r1, r1, #8
1000202a:	6aab      	ldr	r3, [r5, #40]	; 0x28
1000202c:	469c      	mov	ip, r3
1000202e:	4461      	add	r1, ip
10002030:	0028      	movs	r0, r5
10002032:	f7ff fcd5 	bl	100019e0 <move_window>
10002036:	2800      	cmp	r0, #0
10002038:	d125      	bne.n	10002086 <get_fat+0xd6>
1000203a:	0028      	movs	r0, r5
1000203c:	3038      	adds	r0, #56	; 0x38
1000203e:	0064      	lsls	r4, r4, #1
10002040:	25ff      	movs	r5, #255	; 0xff
10002042:	006d      	lsls	r5, r5, #1
10002044:	402c      	ands	r4, r5
10002046:	1900      	adds	r0, r0, r4
10002048:	f7ff fb5a 	bl	10001700 <ld_word>
1000204c:	e015      	b.n	1000207a <get_fat+0xca>
1000204e:	09c9      	lsrs	r1, r1, #7
10002050:	6aab      	ldr	r3, [r5, #40]	; 0x28
10002052:	469c      	mov	ip, r3
10002054:	4461      	add	r1, ip
10002056:	0028      	movs	r0, r5
10002058:	f7ff fcc2 	bl	100019e0 <move_window>
1000205c:	2800      	cmp	r0, #0
1000205e:	d115      	bne.n	1000208c <get_fat+0xdc>
10002060:	0028      	movs	r0, r5
10002062:	3038      	adds	r0, #56	; 0x38
10002064:	00a4      	lsls	r4, r4, #2
10002066:	21fe      	movs	r1, #254	; 0xfe
10002068:	0049      	lsls	r1, r1, #1
1000206a:	400c      	ands	r4, r1
1000206c:	1900      	adds	r0, r0, r4
1000206e:	f7ff fb4c 	bl	1000170a <ld_dword>
10002072:	0100      	lsls	r0, r0, #4
10002074:	0900      	lsrs	r0, r0, #4
10002076:	e000      	b.n	1000207a <get_fat+0xca>
10002078:	2001      	movs	r0, #1
1000207a:	bdf8      	pop	{r3, r4, r5, r6, r7, pc}
1000207c:	2001      	movs	r0, #1
1000207e:	e7fc      	b.n	1000207a <get_fat+0xca>
10002080:	2001      	movs	r0, #1
10002082:	4240      	negs	r0, r0
10002084:	e7f9      	b.n	1000207a <get_fat+0xca>
10002086:	2001      	movs	r0, #1
10002088:	4240      	negs	r0, r0
1000208a:	e7f6      	b.n	1000207a <get_fat+0xca>
1000208c:	2001      	movs	r0, #1
1000208e:	4240      	negs	r0, r0
10002090:	e7f3      	b.n	1000207a <get_fat+0xca>

10002092 <dir_sdi>:
10002092:	b5f0      	push	{r4, r5, r6, r7, lr}
10002094:	46c6      	mov	lr, r8
10002096:	b500      	push	{lr}
10002098:	0005      	movs	r5, r0
1000209a:	000f      	movs	r7, r1
1000209c:	6803      	ldr	r3, [r0, #0]
1000209e:	4698      	mov	r8, r3
100020a0:	2380      	movs	r3, #128	; 0x80
100020a2:	039b      	lsls	r3, r3, #14
100020a4:	4299      	cmp	r1, r3
100020a6:	d240      	bcs.n	1000212a <dir_sdi+0x98>
100020a8:	06cb      	lsls	r3, r1, #27
100020aa:	d140      	bne.n	1000212e <dir_sdi+0x9c>
100020ac:	6101      	str	r1, [r0, #16]
100020ae:	6884      	ldr	r4, [r0, #8]
100020b0:	2c00      	cmp	r4, #0
100020b2:	d105      	bne.n	100020c0 <dir_sdi+0x2e>
100020b4:	4643      	mov	r3, r8
100020b6:	781b      	ldrb	r3, [r3, #0]
100020b8:	2b02      	cmp	r3, #2
100020ba:	d901      	bls.n	100020c0 <dir_sdi+0x2e>
100020bc:	4643      	mov	r3, r8
100020be:	6adc      	ldr	r4, [r3, #44]	; 0x2c
100020c0:	2c00      	cmp	r4, #0
100020c2:	d118      	bne.n	100020f6 <dir_sdi+0x64>
100020c4:	097b      	lsrs	r3, r7, #5
100020c6:	4642      	mov	r2, r8
100020c8:	8912      	ldrh	r2, [r2, #8]
100020ca:	4293      	cmp	r3, r2
100020cc:	d231      	bcs.n	10002132 <dir_sdi+0xa0>
100020ce:	4643      	mov	r3, r8
100020d0:	6adb      	ldr	r3, [r3, #44]	; 0x2c
100020d2:	61ab      	str	r3, [r5, #24]
100020d4:	616c      	str	r4, [r5, #20]
100020d6:	69ab      	ldr	r3, [r5, #24]
100020d8:	2b00      	cmp	r3, #0
100020da:	d032      	beq.n	10002142 <dir_sdi+0xb0>
100020dc:	0a7a      	lsrs	r2, r7, #9
100020de:	189b      	adds	r3, r3, r2
100020e0:	61ab      	str	r3, [r5, #24]
100020e2:	4642      	mov	r2, r8
100020e4:	3238      	adds	r2, #56	; 0x38
100020e6:	05fb      	lsls	r3, r7, #23
100020e8:	0ddb      	lsrs	r3, r3, #23
100020ea:	18d3      	adds	r3, r2, r3
100020ec:	61eb      	str	r3, [r5, #28]
100020ee:	2000      	movs	r0, #0
100020f0:	bc80      	pop	{r7}
100020f2:	46b8      	mov	r8, r7
100020f4:	bdf0      	pop	{r4, r5, r6, r7, pc}
100020f6:	4643      	mov	r3, r8
100020f8:	895e      	ldrh	r6, [r3, #10]
100020fa:	0276      	lsls	r6, r6, #9
100020fc:	42b7      	cmp	r7, r6
100020fe:	d30e      	bcc.n	1000211e <dir_sdi+0x8c>
10002100:	0021      	movs	r1, r4
10002102:	0028      	movs	r0, r5
10002104:	f7ff ff54 	bl	10001fb0 <get_fat>
10002108:	0004      	movs	r4, r0
1000210a:	1c43      	adds	r3, r0, #1
1000210c:	d013      	beq.n	10002136 <dir_sdi+0xa4>
1000210e:	2801      	cmp	r0, #1
10002110:	d913      	bls.n	1000213a <dir_sdi+0xa8>
10002112:	4643      	mov	r3, r8
10002114:	69db      	ldr	r3, [r3, #28]
10002116:	4283      	cmp	r3, r0
10002118:	d911      	bls.n	1000213e <dir_sdi+0xac>
1000211a:	1bbf      	subs	r7, r7, r6
1000211c:	e7ee      	b.n	100020fc <dir_sdi+0x6a>
1000211e:	0021      	movs	r1, r4
10002120:	4640      	mov	r0, r8
10002122:	f7ff fb0e 	bl	10001742 <clst2sect>
10002126:	61a8      	str	r0, [r5, #24]
10002128:	e7d4      	b.n	100020d4 <dir_sdi+0x42>
1000212a:	2002      	movs	r0, #2
1000212c:	e7e0      	b.n	100020f0 <dir_sdi+0x5e>
1000212e:	2002      	movs	r0, #2
10002130:	e7de      	b.n	100020f0 <dir_sdi+0x5e>
10002132:	2002      	movs	r0, #2
10002134:	e7dc      	b.n	100020f0 <dir_sdi+0x5e>
10002136:	2001      	movs	r0, #1
10002138:	e7da      	b.n	100020f0 <dir_sdi+0x5e>
1000213a:	2002      	movs	r0, #2
1000213c:	e7d8      	b.n	100020f0 <dir_sdi+0x5e>
1000213e:	2002      	movs	r0, #2
10002140:	e7d6      	b.n	100020f0 <dir_sdi+0x5e>
10002142:	2002      	movs	r0, #2
10002144:	e7d4      	b.n	100020f0 <dir_sdi+0x5e>

10002146 <create_chain>:
10002146:	b5f0      	push	{r4, r5, r6, r7, lr}
10002148:	46c6      	mov	lr, r8
1000214a:	b500      	push	{lr}
1000214c:	0005      	movs	r5, r0
1000214e:	4688      	mov	r8, r1
10002150:	6806      	ldr	r6, [r0, #0]
10002152:	2900      	cmp	r1, #0
10002154:	d107      	bne.n	10002166 <create_chain+0x20>
10002156:	6937      	ldr	r7, [r6, #16]
10002158:	2f00      	cmp	r7, #0
1000215a:	d00f      	beq.n	1000217c <create_chain+0x36>
1000215c:	69f3      	ldr	r3, [r6, #28]
1000215e:	42bb      	cmp	r3, r7
10002160:	d80d      	bhi.n	1000217e <create_chain+0x38>
10002162:	2701      	movs	r7, #1
10002164:	e00b      	b.n	1000217e <create_chain+0x38>
10002166:	f7ff ff23 	bl	10001fb0 <get_fat>
1000216a:	2801      	cmp	r0, #1
1000216c:	d962      	bls.n	10002234 <create_chain+0xee>
1000216e:	1c43      	adds	r3, r0, #1
10002170:	d065      	beq.n	1000223e <create_chain+0xf8>
10002172:	69f3      	ldr	r3, [r6, #28]
10002174:	4283      	cmp	r3, r0
10002176:	d862      	bhi.n	1000223e <create_chain+0xf8>
10002178:	4647      	mov	r7, r8
1000217a:	e000      	b.n	1000217e <create_chain+0x38>
1000217c:	2701      	movs	r7, #1
1000217e:	6970      	ldr	r0, [r6, #20]
10002180:	2800      	cmp	r0, #0
10002182:	d05c      	beq.n	1000223e <create_chain+0xf8>
10002184:	4547      	cmp	r7, r8
10002186:	d001      	beq.n	1000218c <create_chain+0x46>
10002188:	003c      	movs	r4, r7
1000218a:	e03f      	b.n	1000220c <create_chain+0xc6>
1000218c:	1c7c      	adds	r4, r7, #1
1000218e:	69f3      	ldr	r3, [r6, #28]
10002190:	42a3      	cmp	r3, r4
10002192:	d800      	bhi.n	10002196 <create_chain+0x50>
10002194:	2402      	movs	r4, #2
10002196:	0021      	movs	r1, r4
10002198:	0028      	movs	r0, r5
1000219a:	f7ff ff09 	bl	10001fb0 <get_fat>
1000219e:	2801      	cmp	r0, #1
100021a0:	d04d      	beq.n	1000223e <create_chain+0xf8>
100021a2:	1c43      	adds	r3, r0, #1
100021a4:	d04b      	beq.n	1000223e <create_chain+0xf8>
100021a6:	2800      	cmp	r0, #0
100021a8:	d007      	beq.n	100021ba <create_chain+0x74>
100021aa:	6933      	ldr	r3, [r6, #16]
100021ac:	2b01      	cmp	r3, #1
100021ae:	d9eb      	bls.n	10002188 <create_chain+0x42>
100021b0:	69f2      	ldr	r2, [r6, #28]
100021b2:	429a      	cmp	r2, r3
100021b4:	d9e8      	bls.n	10002188 <create_chain+0x42>
100021b6:	001f      	movs	r7, r3
100021b8:	e7e6      	b.n	10002188 <create_chain+0x42>
100021ba:	2c00      	cmp	r4, #0
100021bc:	d0e4      	beq.n	10002188 <create_chain+0x42>
100021be:	2201      	movs	r2, #1
100021c0:	4252      	negs	r2, r2
100021c2:	0021      	movs	r1, r4
100021c4:	0030      	movs	r0, r6
100021c6:	f7ff fe51 	bl	10001e6c <put_fat>
100021ca:	2800      	cmp	r0, #0
100021cc:	d102      	bne.n	100021d4 <create_chain+0x8e>
100021ce:	4643      	mov	r3, r8
100021d0:	2b00      	cmp	r3, #0
100021d2:	d123      	bne.n	1000221c <create_chain+0xd6>
100021d4:	2800      	cmp	r0, #0
100021d6:	d127      	bne.n	10002228 <create_chain+0xe2>
100021d8:	6134      	str	r4, [r6, #16]
100021da:	6972      	ldr	r2, [r6, #20]
100021dc:	69f3      	ldr	r3, [r6, #28]
100021de:	3b02      	subs	r3, #2
100021e0:	429a      	cmp	r2, r3
100021e2:	d801      	bhi.n	100021e8 <create_chain+0xa2>
100021e4:	3a01      	subs	r2, #1
100021e6:	6172      	str	r2, [r6, #20]
100021e8:	7973      	ldrb	r3, [r6, #5]
100021ea:	2201      	movs	r2, #1
100021ec:	4313      	orrs	r3, r2
100021ee:	7173      	strb	r3, [r6, #5]
100021f0:	0020      	movs	r0, r4
100021f2:	e024      	b.n	1000223e <create_chain+0xf8>
100021f4:	0021      	movs	r1, r4
100021f6:	0028      	movs	r0, r5
100021f8:	f7ff feda 	bl	10001fb0 <get_fat>
100021fc:	2800      	cmp	r0, #0
100021fe:	d0de      	beq.n	100021be <create_chain+0x78>
10002200:	2801      	cmp	r0, #1
10002202:	d01c      	beq.n	1000223e <create_chain+0xf8>
10002204:	1c43      	adds	r3, r0, #1
10002206:	d01a      	beq.n	1000223e <create_chain+0xf8>
10002208:	42bc      	cmp	r4, r7
1000220a:	d017      	beq.n	1000223c <create_chain+0xf6>
1000220c:	3401      	adds	r4, #1
1000220e:	69f3      	ldr	r3, [r6, #28]
10002210:	42a3      	cmp	r3, r4
10002212:	d8ef      	bhi.n	100021f4 <create_chain+0xae>
10002214:	2f01      	cmp	r7, #1
10002216:	d90f      	bls.n	10002238 <create_chain+0xf2>
10002218:	2402      	movs	r4, #2
1000221a:	e7eb      	b.n	100021f4 <create_chain+0xae>
1000221c:	0022      	movs	r2, r4
1000221e:	4641      	mov	r1, r8
10002220:	0030      	movs	r0, r6
10002222:	f7ff fe23 	bl	10001e6c <put_fat>
10002226:	e7d5      	b.n	100021d4 <create_chain+0x8e>
10002228:	2801      	cmp	r0, #1
1000222a:	d001      	beq.n	10002230 <create_chain+0xea>
1000222c:	2001      	movs	r0, #1
1000222e:	e006      	b.n	1000223e <create_chain+0xf8>
10002230:	3802      	subs	r0, #2
10002232:	e004      	b.n	1000223e <create_chain+0xf8>
10002234:	2001      	movs	r0, #1
10002236:	e002      	b.n	1000223e <create_chain+0xf8>
10002238:	2000      	movs	r0, #0
1000223a:	e000      	b.n	1000223e <create_chain+0xf8>
1000223c:	2000      	movs	r0, #0
1000223e:	bc80      	pop	{r7}
10002240:	46b8      	mov	r8, r7
10002242:	bdf0      	pop	{r4, r5, r6, r7, pc}

10002244 <remove_chain>:
10002244:	b5f8      	push	{r3, r4, r5, r6, r7, lr}
10002246:	0006      	movs	r6, r0
10002248:	000c      	movs	r4, r1
1000224a:	0011      	movs	r1, r2
1000224c:	6805      	ldr	r5, [r0, #0]
1000224e:	2c01      	cmp	r4, #1
10002250:	d92c      	bls.n	100022ac <remove_chain+0x68>
10002252:	69eb      	ldr	r3, [r5, #28]
10002254:	42a3      	cmp	r3, r4
10002256:	d92b      	bls.n	100022b0 <remove_chain+0x6c>
10002258:	2a00      	cmp	r2, #0
1000225a:	d009      	beq.n	10002270 <remove_chain+0x2c>
1000225c:	2201      	movs	r2, #1
1000225e:	4252      	negs	r2, r2
10002260:	0028      	movs	r0, r5
10002262:	f7ff fe03 	bl	10001e6c <put_fat>
10002266:	2800      	cmp	r0, #0
10002268:	d002      	beq.n	10002270 <remove_chain+0x2c>
1000226a:	e022      	b.n	100022b2 <remove_chain+0x6e>
1000226c:	42a2      	cmp	r2, r4
1000226e:	d920      	bls.n	100022b2 <remove_chain+0x6e>
10002270:	0027      	movs	r7, r4
10002272:	0021      	movs	r1, r4
10002274:	0030      	movs	r0, r6
10002276:	f7ff fe9b 	bl	10001fb0 <get_fat>
1000227a:	1e04      	subs	r4, r0, #0
1000227c:	d01a      	beq.n	100022b4 <remove_chain+0x70>
1000227e:	2801      	cmp	r0, #1
10002280:	d01a      	beq.n	100022b8 <remove_chain+0x74>
10002282:	1c43      	adds	r3, r0, #1
10002284:	d01a      	beq.n	100022bc <remove_chain+0x78>
10002286:	2200      	movs	r2, #0
10002288:	0039      	movs	r1, r7
1000228a:	0028      	movs	r0, r5
1000228c:	f7ff fdee 	bl	10001e6c <put_fat>
10002290:	2800      	cmp	r0, #0
10002292:	d10e      	bne.n	100022b2 <remove_chain+0x6e>
10002294:	696b      	ldr	r3, [r5, #20]
10002296:	69ea      	ldr	r2, [r5, #28]
10002298:	1e91      	subs	r1, r2, #2
1000229a:	428b      	cmp	r3, r1
1000229c:	d2e6      	bcs.n	1000226c <remove_chain+0x28>
1000229e:	3301      	adds	r3, #1
100022a0:	616b      	str	r3, [r5, #20]
100022a2:	796b      	ldrb	r3, [r5, #5]
100022a4:	2101      	movs	r1, #1
100022a6:	430b      	orrs	r3, r1
100022a8:	716b      	strb	r3, [r5, #5]
100022aa:	e7df      	b.n	1000226c <remove_chain+0x28>
100022ac:	2002      	movs	r0, #2
100022ae:	e000      	b.n	100022b2 <remove_chain+0x6e>
100022b0:	2002      	movs	r0, #2
100022b2:	bdf8      	pop	{r3, r4, r5, r6, r7, pc}
100022b4:	2000      	movs	r0, #0
100022b6:	e7fc      	b.n	100022b2 <remove_chain+0x6e>
100022b8:	2002      	movs	r0, #2
100022ba:	e7fa      	b.n	100022b2 <remove_chain+0x6e>
100022bc:	2001      	movs	r0, #1
100022be:	e7f8      	b.n	100022b2 <remove_chain+0x6e>

100022c0 <dir_clear>:
100022c0:	b5f8      	push	{r3, r4, r5, r6, r7, lr}
100022c2:	0005      	movs	r5, r0
100022c4:	000c      	movs	r4, r1
100022c6:	f7ff fb66 	bl	10001996 <sync_window>
100022ca:	2800      	cmp	r0, #0
100022cc:	d001      	beq.n	100022d2 <dir_clear+0x12>
100022ce:	2001      	movs	r0, #1
100022d0:	bdf8      	pop	{r3, r4, r5, r6, r7, pc}
100022d2:	0021      	movs	r1, r4
100022d4:	0028      	movs	r0, r5
100022d6:	f7ff fa34 	bl	10001742 <clst2sect>
100022da:	0006      	movs	r6, r0
100022dc:	6368      	str	r0, [r5, #52]	; 0x34
100022de:	002f      	movs	r7, r5
100022e0:	3738      	adds	r7, #56	; 0x38
100022e2:	2280      	movs	r2, #128	; 0x80
100022e4:	0092      	lsls	r2, r2, #2
100022e6:	2100      	movs	r1, #0
100022e8:	0038      	movs	r0, r7
100022ea:	f003 ff3d 	bl	10006168 <__wrap_memset>
100022ee:	2400      	movs	r4, #0
100022f0:	e000      	b.n	100022f4 <dir_clear+0x34>
100022f2:	3401      	adds	r4, #1
100022f4:	896b      	ldrh	r3, [r5, #10]
100022f6:	42a3      	cmp	r3, r4
100022f8:	d907      	bls.n	1000230a <dir_clear+0x4a>
100022fa:	19a2      	adds	r2, r4, r6
100022fc:	7868      	ldrb	r0, [r5, #1]
100022fe:	2301      	movs	r3, #1
10002300:	0039      	movs	r1, r7
10002302:	f7ff f8c5 	bl	10001490 <disk_write>
10002306:	2800      	cmp	r0, #0
10002308:	d0f3      	beq.n	100022f2 <dir_clear+0x32>
1000230a:	8968      	ldrh	r0, [r5, #10]
1000230c:	1b00      	subs	r0, r0, r4
1000230e:	1e43      	subs	r3, r0, #1
10002310:	4198      	sbcs	r0, r3
10002312:	b2c0      	uxtb	r0, r0
10002314:	e7dc      	b.n	100022d0 <dir_clear+0x10>

10002316 <dir_next>:
10002316:	b5f0      	push	{r4, r5, r6, r7, lr}
10002318:	46ce      	mov	lr, r9
1000231a:	b500      	push	{lr}
1000231c:	b082      	sub	sp, #8
1000231e:	0004      	movs	r4, r0
10002320:	9101      	str	r1, [sp, #4]
10002322:	6806      	ldr	r6, [r0, #0]
10002324:	6905      	ldr	r5, [r0, #16]
10002326:	3520      	adds	r5, #32
10002328:	2380      	movs	r3, #128	; 0x80
1000232a:	039b      	lsls	r3, r3, #14
1000232c:	429d      	cmp	r5, r3
1000232e:	d301      	bcc.n	10002334 <dir_next+0x1e>
10002330:	2300      	movs	r3, #0
10002332:	6183      	str	r3, [r0, #24]
10002334:	69a3      	ldr	r3, [r4, #24]
10002336:	2b00      	cmp	r3, #0
10002338:	d049      	beq.n	100023ce <dir_next+0xb8>
1000233a:	05ea      	lsls	r2, r5, #23
1000233c:	0dd7      	lsrs	r7, r2, #23
1000233e:	2a00      	cmp	r2, #0
10002340:	d108      	bne.n	10002354 <dir_next+0x3e>
10002342:	3301      	adds	r3, #1
10002344:	61a3      	str	r3, [r4, #24]
10002346:	6961      	ldr	r1, [r4, #20]
10002348:	2900      	cmp	r1, #0
1000234a:	d110      	bne.n	1000236e <dir_next+0x58>
1000234c:	096b      	lsrs	r3, r5, #5
1000234e:	8932      	ldrh	r2, [r6, #8]
10002350:	4293      	cmp	r3, r2
10002352:	d208      	bcs.n	10002366 <dir_next+0x50>
10002354:	6125      	str	r5, [r4, #16]
10002356:	3638      	adds	r6, #56	; 0x38
10002358:	19f6      	adds	r6, r6, r7
1000235a:	61e6      	str	r6, [r4, #28]
1000235c:	2000      	movs	r0, #0
1000235e:	b002      	add	sp, #8
10002360:	bc80      	pop	{r7}
10002362:	46b9      	mov	r9, r7
10002364:	bdf0      	pop	{r4, r5, r6, r7, pc}
10002366:	2300      	movs	r3, #0
10002368:	61a3      	str	r3, [r4, #24]
1000236a:	2004      	movs	r0, #4
1000236c:	e7f7      	b.n	1000235e <dir_next+0x48>
1000236e:	0a6b      	lsrs	r3, r5, #9
10002370:	8972      	ldrh	r2, [r6, #10]
10002372:	3a01      	subs	r2, #1
10002374:	421a      	tst	r2, r3
10002376:	d1ed      	bne.n	10002354 <dir_next+0x3e>
10002378:	0020      	movs	r0, r4
1000237a:	f7ff fe19 	bl	10001fb0 <get_fat>
1000237e:	4681      	mov	r9, r0
10002380:	0003      	movs	r3, r0
10002382:	2801      	cmp	r0, #1
10002384:	d925      	bls.n	100023d2 <dir_next+0xbc>
10002386:	3301      	adds	r3, #1
10002388:	d025      	beq.n	100023d6 <dir_next+0xc0>
1000238a:	69f3      	ldr	r3, [r6, #28]
1000238c:	4283      	cmp	r3, r0
1000238e:	d813      	bhi.n	100023b8 <dir_next+0xa2>
10002390:	9b01      	ldr	r3, [sp, #4]
10002392:	2b00      	cmp	r3, #0
10002394:	d018      	beq.n	100023c8 <dir_next+0xb2>
10002396:	6961      	ldr	r1, [r4, #20]
10002398:	0020      	movs	r0, r4
1000239a:	f7ff fed4 	bl	10002146 <create_chain>
1000239e:	4681      	mov	r9, r0
100023a0:	1e03      	subs	r3, r0, #0
100023a2:	d01a      	beq.n	100023da <dir_next+0xc4>
100023a4:	2801      	cmp	r0, #1
100023a6:	d01a      	beq.n	100023de <dir_next+0xc8>
100023a8:	3301      	adds	r3, #1
100023aa:	d01a      	beq.n	100023e2 <dir_next+0xcc>
100023ac:	0001      	movs	r1, r0
100023ae:	0030      	movs	r0, r6
100023b0:	f7ff ff86 	bl	100022c0 <dir_clear>
100023b4:	2800      	cmp	r0, #0
100023b6:	d116      	bne.n	100023e6 <dir_next+0xd0>
100023b8:	464b      	mov	r3, r9
100023ba:	6163      	str	r3, [r4, #20]
100023bc:	4649      	mov	r1, r9
100023be:	0030      	movs	r0, r6
100023c0:	f7ff f9bf 	bl	10001742 <clst2sect>
100023c4:	61a0      	str	r0, [r4, #24]
100023c6:	e7c5      	b.n	10002354 <dir_next+0x3e>
100023c8:	61a3      	str	r3, [r4, #24]
100023ca:	2004      	movs	r0, #4
100023cc:	e7c7      	b.n	1000235e <dir_next+0x48>
100023ce:	2004      	movs	r0, #4
100023d0:	e7c5      	b.n	1000235e <dir_next+0x48>
100023d2:	2002      	movs	r0, #2
100023d4:	e7c3      	b.n	1000235e <dir_next+0x48>
100023d6:	2001      	movs	r0, #1
100023d8:	e7c1      	b.n	1000235e <dir_next+0x48>
100023da:	2007      	movs	r0, #7
100023dc:	e7bf      	b.n	1000235e <dir_next+0x48>
100023de:	2002      	movs	r0, #2
100023e0:	e7bd      	b.n	1000235e <dir_next+0x48>
100023e2:	2001      	movs	r0, #1
100023e4:	e7bb      	b.n	1000235e <dir_next+0x48>
100023e6:	2001      	movs	r0, #1
100023e8:	e7b9      	b.n	1000235e <dir_next+0x48>

100023ea <dir_alloc>:
100023ea:	b5f8      	push	{r3, r4, r5, r6, r7, lr}
100023ec:	0004      	movs	r4, r0
100023ee:	000d      	movs	r5, r1
100023f0:	6806      	ldr	r6, [r0, #0]
100023f2:	2100      	movs	r1, #0
100023f4:	f7ff fe4d 	bl	10002092 <dir_sdi>
100023f8:	2800      	cmp	r0, #0
100023fa:	d118      	bne.n	1000242e <dir_alloc+0x44>
100023fc:	2700      	movs	r7, #0
100023fe:	e008      	b.n	10002412 <dir_alloc+0x28>
10002400:	3701      	adds	r7, #1
10002402:	42af      	cmp	r7, r5
10002404:	d013      	beq.n	1000242e <dir_alloc+0x44>
10002406:	2101      	movs	r1, #1
10002408:	0020      	movs	r0, r4
1000240a:	f7ff ff84 	bl	10002316 <dir_next>
1000240e:	2800      	cmp	r0, #0
10002410:	d10d      	bne.n	1000242e <dir_alloc+0x44>
10002412:	69a1      	ldr	r1, [r4, #24]
10002414:	0030      	movs	r0, r6
10002416:	f7ff fae3 	bl	100019e0 <move_window>
1000241a:	2800      	cmp	r0, #0
1000241c:	d107      	bne.n	1000242e <dir_alloc+0x44>
1000241e:	69e3      	ldr	r3, [r4, #28]
10002420:	781b      	ldrb	r3, [r3, #0]
10002422:	2be5      	cmp	r3, #229	; 0xe5
10002424:	d0ec      	beq.n	10002400 <dir_alloc+0x16>
10002426:	2b00      	cmp	r3, #0
10002428:	d0ea      	beq.n	10002400 <dir_alloc+0x16>
1000242a:	2700      	movs	r7, #0
1000242c:	e7eb      	b.n	10002406 <dir_alloc+0x1c>
1000242e:	2804      	cmp	r0, #4
10002430:	d000      	beq.n	10002434 <dir_alloc+0x4a>
10002432:	bdf8      	pop	{r3, r4, r5, r6, r7, pc}
10002434:	3003      	adds	r0, #3
10002436:	e7fc      	b.n	10002432 <dir_alloc+0x48>

10002438 <dir_read>:
10002438:	b5f0      	push	{r4, r5, r6, r7, lr}
1000243a:	46d6      	mov	lr, sl
1000243c:	464f      	mov	r7, r9
1000243e:	4646      	mov	r6, r8
10002440:	b5c0      	push	{r6, r7, lr}
10002442:	0005      	movs	r5, r0
10002444:	4688      	mov	r8, r1
10002446:	6803      	ldr	r3, [r0, #0]
10002448:	469a      	mov	sl, r3
1000244a:	23ff      	movs	r3, #255	; 0xff
1000244c:	4699      	mov	r9, r3
1000244e:	26ff      	movs	r6, #255	; 0xff
10002450:	2404      	movs	r4, #4
10002452:	e030      	b.n	100024b6 <dir_read+0x7e>
10002454:	2b0f      	cmp	r3, #15
10002456:	d11a      	bne.n	1000248e <dir_read+0x56>
10002458:	0653      	lsls	r3, r2, #25
1000245a:	d506      	bpl.n	1000246a <dir_read+0x32>
1000245c:	7b4b      	ldrb	r3, [r1, #13]
1000245e:	4699      	mov	r9, r3
10002460:	2340      	movs	r3, #64	; 0x40
10002462:	439a      	bics	r2, r3
10002464:	692b      	ldr	r3, [r5, #16]
10002466:	62eb      	str	r3, [r5, #44]	; 0x2c
10002468:	0016      	movs	r6, r2
1000246a:	42b2      	cmp	r2, r6
1000246c:	d001      	beq.n	10002472 <dir_read+0x3a>
1000246e:	26ff      	movs	r6, #255	; 0xff
10002470:	e01b      	b.n	100024aa <dir_read+0x72>
10002472:	7b4b      	ldrb	r3, [r1, #13]
10002474:	454b      	cmp	r3, r9
10002476:	d001      	beq.n	1000247c <dir_read+0x44>
10002478:	26ff      	movs	r6, #255	; 0xff
1000247a:	e016      	b.n	100024aa <dir_read+0x72>
1000247c:	4653      	mov	r3, sl
1000247e:	68d8      	ldr	r0, [r3, #12]
10002480:	f7ff f992 	bl	100017a8 <pick_lfn>
10002484:	2800      	cmp	r0, #0
10002486:	d036      	beq.n	100024f6 <dir_read+0xbe>
10002488:	3e01      	subs	r6, #1
1000248a:	b2f6      	uxtb	r6, r6
1000248c:	e00d      	b.n	100024aa <dir_read+0x72>
1000248e:	2e00      	cmp	r6, #0
10002490:	d104      	bne.n	1000249c <dir_read+0x64>
10002492:	0008      	movs	r0, r1
10002494:	f7ff fa18 	bl	100018c8 <sum_sfn>
10002498:	4548      	cmp	r0, r9
1000249a:	d02f      	beq.n	100024fc <dir_read+0xc4>
1000249c:	2301      	movs	r3, #1
1000249e:	425b      	negs	r3, r3
100024a0:	62eb      	str	r3, [r5, #44]	; 0x2c
100024a2:	e02b      	b.n	100024fc <dir_read+0xc4>
100024a4:	26ff      	movs	r6, #255	; 0xff
100024a6:	e000      	b.n	100024aa <dir_read+0x72>
100024a8:	26ff      	movs	r6, #255	; 0xff
100024aa:	2100      	movs	r1, #0
100024ac:	0028      	movs	r0, r5
100024ae:	f7ff ff32 	bl	10002316 <dir_next>
100024b2:	1e04      	subs	r4, r0, #0
100024b4:	d122      	bne.n	100024fc <dir_read+0xc4>
100024b6:	69a9      	ldr	r1, [r5, #24]
100024b8:	2900      	cmp	r1, #0
100024ba:	d01f      	beq.n	100024fc <dir_read+0xc4>
100024bc:	4650      	mov	r0, sl
100024be:	f7ff fa8f 	bl	100019e0 <move_window>
100024c2:	1e04      	subs	r4, r0, #0
100024c4:	d11a      	bne.n	100024fc <dir_read+0xc4>
100024c6:	69e9      	ldr	r1, [r5, #28]
100024c8:	780a      	ldrb	r2, [r1, #0]
100024ca:	2a00      	cmp	r2, #0
100024cc:	d015      	beq.n	100024fa <dir_read+0xc2>
100024ce:	7acb      	ldrb	r3, [r1, #11]
100024d0:	203f      	movs	r0, #63	; 0x3f
100024d2:	4003      	ands	r3, r0
100024d4:	71ab      	strb	r3, [r5, #6]
100024d6:	2ae5      	cmp	r2, #229	; 0xe5
100024d8:	d0e4      	beq.n	100024a4 <dir_read+0x6c>
100024da:	2a2e      	cmp	r2, #46	; 0x2e
100024dc:	d0e4      	beq.n	100024a8 <dir_read+0x70>
100024de:	381f      	subs	r0, #31
100024e0:	001f      	movs	r7, r3
100024e2:	4387      	bics	r7, r0
100024e4:	0038      	movs	r0, r7
100024e6:	3808      	subs	r0, #8
100024e8:	0007      	movs	r7, r0
100024ea:	4278      	negs	r0, r7
100024ec:	4178      	adcs	r0, r7
100024ee:	4540      	cmp	r0, r8
100024f0:	d0b0      	beq.n	10002454 <dir_read+0x1c>
100024f2:	26ff      	movs	r6, #255	; 0xff
100024f4:	e7d9      	b.n	100024aa <dir_read+0x72>
100024f6:	26ff      	movs	r6, #255	; 0xff
100024f8:	e7d7      	b.n	100024aa <dir_read+0x72>
100024fa:	2404      	movs	r4, #4
100024fc:	2c00      	cmp	r4, #0
100024fe:	d001      	beq.n	10002504 <dir_read+0xcc>
10002500:	2300      	movs	r3, #0
10002502:	61ab      	str	r3, [r5, #24]
10002504:	0020      	movs	r0, r4
10002506:	bce0      	pop	{r5, r6, r7}
10002508:	46ba      	mov	sl, r7
1000250a:	46b1      	mov	r9, r6
1000250c:	46a8      	mov	r8, r5
1000250e:	bdf0      	pop	{r4, r5, r6, r7, pc}

10002510 <dir_remove>:
10002510:	b570      	push	{r4, r5, r6, lr}
10002512:	0004      	movs	r4, r0
10002514:	6805      	ldr	r5, [r0, #0]
10002516:	6906      	ldr	r6, [r0, #16]
10002518:	6ac1      	ldr	r1, [r0, #44]	; 0x2c
1000251a:	1c4b      	adds	r3, r1, #1
1000251c:	d116      	bne.n	1000254c <dir_remove+0x3c>
1000251e:	69a1      	ldr	r1, [r4, #24]
10002520:	0028      	movs	r0, r5
10002522:	f7ff fa5d 	bl	100019e0 <move_window>
10002526:	2800      	cmp	r0, #0
10002528:	d10d      	bne.n	10002546 <dir_remove+0x36>
1000252a:	23e5      	movs	r3, #229	; 0xe5
1000252c:	69e2      	ldr	r2, [r4, #28]
1000252e:	7013      	strb	r3, [r2, #0]
10002530:	3be4      	subs	r3, #228	; 0xe4
10002532:	712b      	strb	r3, [r5, #4]
10002534:	6923      	ldr	r3, [r4, #16]
10002536:	42b3      	cmp	r3, r6
10002538:	d205      	bcs.n	10002546 <dir_remove+0x36>
1000253a:	2100      	movs	r1, #0
1000253c:	0020      	movs	r0, r4
1000253e:	f7ff feea 	bl	10002316 <dir_next>
10002542:	2800      	cmp	r0, #0
10002544:	d0eb      	beq.n	1000251e <dir_remove+0xe>
10002546:	2804      	cmp	r0, #4
10002548:	d005      	beq.n	10002556 <dir_remove+0x46>
1000254a:	bd70      	pop	{r4, r5, r6, pc}
1000254c:	f7ff fda1 	bl	10002092 <dir_sdi>
10002550:	2800      	cmp	r0, #0
10002552:	d1fa      	bne.n	1000254a <dir_remove+0x3a>
10002554:	e7e3      	b.n	1000251e <dir_remove+0xe>
10002556:	3802      	subs	r0, #2
10002558:	e7f7      	b.n	1000254a <dir_remove+0x3a>

1000255a <put_utf>:
1000255a:	b570      	push	{r4, r5, r6, lr}
1000255c:	000d      	movs	r5, r1
1000255e:	0014      	movs	r4, r2
10002560:	21b6      	movs	r1, #182	; 0xb6
10002562:	31ff      	adds	r1, #255	; 0xff
10002564:	f001 faf0 	bl	10003b48 <ff_uni2oem>
10002568:	28ff      	cmp	r0, #255	; 0xff
1000256a:	d908      	bls.n	1000257e <put_utf+0x24>
1000256c:	2c01      	cmp	r4, #1
1000256e:	d801      	bhi.n	10002574 <put_utf+0x1a>
10002570:	2000      	movs	r0, #0
10002572:	bd70      	pop	{r4, r5, r6, pc}
10002574:	0a03      	lsrs	r3, r0, #8
10002576:	702b      	strb	r3, [r5, #0]
10002578:	7068      	strb	r0, [r5, #1]
1000257a:	2002      	movs	r0, #2
1000257c:	e7f9      	b.n	10002572 <put_utf+0x18>
1000257e:	2800      	cmp	r0, #0
10002580:	d004      	beq.n	1000258c <put_utf+0x32>
10002582:	2c00      	cmp	r4, #0
10002584:	d004      	beq.n	10002590 <put_utf+0x36>
10002586:	7028      	strb	r0, [r5, #0]
10002588:	2001      	movs	r0, #1
1000258a:	e7f2      	b.n	10002572 <put_utf+0x18>
1000258c:	2000      	movs	r0, #0
1000258e:	e7f0      	b.n	10002572 <put_utf+0x18>
10002590:	0020      	movs	r0, r4
10002592:	e7ee      	b.n	10002572 <put_utf+0x18>

10002594 <get_fileinfo>:
10002594:	b5f8      	push	{r3, r4, r5, r6, r7, lr}
10002596:	46ce      	mov	lr, r9
10002598:	4647      	mov	r7, r8
1000259a:	b580      	push	{r7, lr}
1000259c:	0005      	movs	r5, r0
1000259e:	000c      	movs	r4, r1
100025a0:	6803      	ldr	r3, [r0, #0]
100025a2:	4699      	mov	r9, r3
100025a4:	2300      	movs	r3, #0
100025a6:	758b      	strb	r3, [r1, #22]
100025a8:	6983      	ldr	r3, [r0, #24]
100025aa:	2b00      	cmp	r3, #0
100025ac:	d076      	beq.n	1000269c <get_fileinfo+0x108>
100025ae:	6ac3      	ldr	r3, [r0, #44]	; 0x2c
100025b0:	3301      	adds	r3, #1
100025b2:	d030      	beq.n	10002616 <get_fileinfo+0x82>
100025b4:	2300      	movs	r3, #0
100025b6:	4698      	mov	r8, r3
100025b8:	2600      	movs	r6, #0
100025ba:	2700      	movs	r7, #0
100025bc:	e00f      	b.n	100025de <get_fileinfo+0x4a>
100025be:	4643      	mov	r3, r8
100025c0:	041b      	lsls	r3, r3, #16
100025c2:	22ff      	movs	r2, #255	; 0xff
100025c4:	1b92      	subs	r2, r2, r6
100025c6:	0031      	movs	r1, r6
100025c8:	3110      	adds	r1, #16
100025ca:	1861      	adds	r1, r4, r1
100025cc:	3106      	adds	r1, #6
100025ce:	4318      	orrs	r0, r3
100025d0:	f7ff ffc3 	bl	1000255a <put_utf>
100025d4:	2800      	cmp	r0, #0
100025d6:	d016      	beq.n	10002606 <get_fileinfo+0x72>
100025d8:	1836      	adds	r6, r6, r0
100025da:	2300      	movs	r3, #0
100025dc:	4698      	mov	r8, r3
100025de:	007b      	lsls	r3, r7, #1
100025e0:	464a      	mov	r2, r9
100025e2:	68d2      	ldr	r2, [r2, #12]
100025e4:	5a98      	ldrh	r0, [r3, r2]
100025e6:	2800      	cmp	r0, #0
100025e8:	d00e      	beq.n	10002608 <get_fileinfo+0x74>
100025ea:	3701      	adds	r7, #1
100025ec:	4643      	mov	r3, r8
100025ee:	2b00      	cmp	r3, #0
100025f0:	d1e5      	bne.n	100025be <get_fileinfo+0x2a>
100025f2:	23a0      	movs	r3, #160	; 0xa0
100025f4:	019b      	lsls	r3, r3, #6
100025f6:	18c3      	adds	r3, r0, r3
100025f8:	b29b      	uxth	r3, r3
100025fa:	2280      	movs	r2, #128	; 0x80
100025fc:	0112      	lsls	r2, r2, #4
100025fe:	4293      	cmp	r3, r2
10002600:	d2dd      	bcs.n	100025be <get_fileinfo+0x2a>
10002602:	4680      	mov	r8, r0
10002604:	e7eb      	b.n	100025de <get_fileinfo+0x4a>
10002606:	0006      	movs	r6, r0
10002608:	4643      	mov	r3, r8
1000260a:	2b00      	cmp	r3, #0
1000260c:	d000      	beq.n	10002610 <get_fileinfo+0x7c>
1000260e:	2600      	movs	r6, #0
10002610:	19a6      	adds	r6, r4, r6
10002612:	2300      	movs	r3, #0
10002614:	75b3      	strb	r3, [r6, #22]
10002616:	2200      	movs	r2, #0
10002618:	2300      	movs	r3, #0
1000261a:	e005      	b.n	10002628 <get_fileinfo+0x94>
1000261c:	2909      	cmp	r1, #9
1000261e:	d00e      	beq.n	1000263e <get_fileinfo+0xaa>
10002620:	18a0      	adds	r0, r4, r2
10002622:	7243      	strb	r3, [r0, #9]
10002624:	3201      	adds	r2, #1
10002626:	000b      	movs	r3, r1
10002628:	2b0a      	cmp	r3, #10
1000262a:	d80f      	bhi.n	1000264c <get_fileinfo+0xb8>
1000262c:	1c59      	adds	r1, r3, #1
1000262e:	69e8      	ldr	r0, [r5, #28]
10002630:	5cc3      	ldrb	r3, [r0, r3]
10002632:	2b20      	cmp	r3, #32
10002634:	d0f7      	beq.n	10002626 <get_fileinfo+0x92>
10002636:	2b05      	cmp	r3, #5
10002638:	d1f0      	bne.n	1000261c <get_fileinfo+0x88>
1000263a:	33e0      	adds	r3, #224	; 0xe0
1000263c:	e7ee      	b.n	1000261c <get_fileinfo+0x88>
1000263e:	2a0b      	cmp	r2, #11
10002640:	d8ee      	bhi.n	10002620 <get_fileinfo+0x8c>
10002642:	18a0      	adds	r0, r4, r2
10002644:	262e      	movs	r6, #46	; 0x2e
10002646:	7246      	strb	r6, [r0, #9]
10002648:	3201      	adds	r2, #1
1000264a:	e7e9      	b.n	10002620 <get_fileinfo+0x8c>
1000264c:	18a3      	adds	r3, r4, r2
1000264e:	2100      	movs	r1, #0
10002650:	7259      	strb	r1, [r3, #9]
10002652:	7da3      	ldrb	r3, [r4, #22]
10002654:	2b00      	cmp	r3, #0
10002656:	d10d      	bne.n	10002674 <get_fileinfo+0xe0>
10002658:	2a00      	cmp	r2, #0
1000265a:	d13c      	bne.n	100026d6 <get_fileinfo+0x142>
1000265c:	1c51      	adds	r1, r2, #1
1000265e:	18a2      	adds	r2, r4, r2
10002660:	333f      	adds	r3, #63	; 0x3f
10002662:	7593      	strb	r3, [r2, #22]
10002664:	1861      	adds	r1, r4, r1
10002666:	2300      	movs	r3, #0
10002668:	758b      	strb	r3, [r1, #22]
1000266a:	69eb      	ldr	r3, [r5, #28]
1000266c:	7b1b      	ldrb	r3, [r3, #12]
1000266e:	2b00      	cmp	r3, #0
10002670:	d100      	bne.n	10002674 <get_fileinfo+0xe0>
10002672:	7263      	strb	r3, [r4, #9]
10002674:	69eb      	ldr	r3, [r5, #28]
10002676:	7ada      	ldrb	r2, [r3, #11]
10002678:	233f      	movs	r3, #63	; 0x3f
1000267a:	4013      	ands	r3, r2
1000267c:	7223      	strb	r3, [r4, #8]
1000267e:	69e8      	ldr	r0, [r5, #28]
10002680:	301c      	adds	r0, #28
10002682:	f7ff f842 	bl	1000170a <ld_dword>
10002686:	6020      	str	r0, [r4, #0]
10002688:	69e8      	ldr	r0, [r5, #28]
1000268a:	3016      	adds	r0, #22
1000268c:	f7ff f838 	bl	10001700 <ld_word>
10002690:	80e0      	strh	r0, [r4, #6]
10002692:	69e8      	ldr	r0, [r5, #28]
10002694:	3018      	adds	r0, #24
10002696:	f7ff f833 	bl	10001700 <ld_word>
1000269a:	80a0      	strh	r0, [r4, #4]
1000269c:	bcc0      	pop	{r6, r7}
1000269e:	46b9      	mov	r9, r7
100026a0:	46b0      	mov	r8, r6
100026a2:	bdf8      	pop	{r3, r4, r5, r6, r7, pc}
100026a4:	2610      	movs	r6, #16
100026a6:	e00a      	b.n	100026be <get_fileinfo+0x12a>
100026a8:	1862      	adds	r2, r4, r1
100026aa:	7593      	strb	r3, [r2, #22]
100026ac:	3001      	adds	r0, #1
100026ae:	3101      	adds	r1, #1
100026b0:	1823      	adds	r3, r4, r0
100026b2:	7a5b      	ldrb	r3, [r3, #9]
100026b4:	2b00      	cmp	r3, #0
100026b6:	d0d5      	beq.n	10002664 <get_fileinfo+0xd0>
100026b8:	b29b      	uxth	r3, r3
100026ba:	2b2e      	cmp	r3, #46	; 0x2e
100026bc:	d0f2      	beq.n	100026a4 <get_fileinfo+0x110>
100026be:	001a      	movs	r2, r3
100026c0:	3a41      	subs	r2, #65	; 0x41
100026c2:	b292      	uxth	r2, r2
100026c4:	2a19      	cmp	r2, #25
100026c6:	d8ef      	bhi.n	100026a8 <get_fileinfo+0x114>
100026c8:	69ea      	ldr	r2, [r5, #28]
100026ca:	7b12      	ldrb	r2, [r2, #12]
100026cc:	4216      	tst	r6, r2
100026ce:	d0eb      	beq.n	100026a8 <get_fileinfo+0x114>
100026d0:	3320      	adds	r3, #32
100026d2:	b29b      	uxth	r3, r3
100026d4:	e7e8      	b.n	100026a8 <get_fileinfo+0x114>
100026d6:	2608      	movs	r6, #8
100026d8:	2100      	movs	r1, #0
100026da:	2000      	movs	r0, #0
100026dc:	e7e8      	b.n	100026b0 <get_fileinfo+0x11c>

100026de <tchar2uni>:
100026de:	b5f8      	push	{r3, r4, r5, r6, r7, lr}
100026e0:	0006      	movs	r6, r0
100026e2:	6805      	ldr	r5, [r0, #0]
100026e4:	1c6f      	adds	r7, r5, #1
100026e6:	7828      	ldrb	r0, [r5, #0]
100026e8:	0004      	movs	r4, r0
100026ea:	f7ff f826 	bl	1000173a <dbc_1st>
100026ee:	2800      	cmp	r0, #0
100026f0:	d009      	beq.n	10002706 <tchar2uni+0x28>
100026f2:	1caf      	adds	r7, r5, #2
100026f4:	786d      	ldrb	r5, [r5, #1]
100026f6:	0028      	movs	r0, r5
100026f8:	f7ff f821 	bl	1000173e <dbc_2nd>
100026fc:	2800      	cmp	r0, #0
100026fe:	d011      	beq.n	10002724 <tchar2uni+0x46>
10002700:	0224      	lsls	r4, r4, #8
10002702:	192c      	adds	r4, r5, r4
10002704:	b2a4      	uxth	r4, r4
10002706:	2c00      	cmp	r4, #0
10002708:	d102      	bne.n	10002710 <tchar2uni+0x32>
1000270a:	0020      	movs	r0, r4
1000270c:	6037      	str	r7, [r6, #0]
1000270e:	bdf8      	pop	{r3, r4, r5, r6, r7, pc}
10002710:	21b6      	movs	r1, #182	; 0xb6
10002712:	31ff      	adds	r1, #255	; 0xff
10002714:	0020      	movs	r0, r4
10002716:	f001 fa39 	bl	10003b8c <ff_oem2uni>
1000271a:	1e04      	subs	r4, r0, #0
1000271c:	d1f5      	bne.n	1000270a <tchar2uni+0x2c>
1000271e:	2001      	movs	r0, #1
10002720:	4240      	negs	r0, r0
10002722:	e7f4      	b.n	1000270e <tchar2uni+0x30>
10002724:	2001      	movs	r0, #1
10002726:	4240      	negs	r0, r0
10002728:	e7f1      	b.n	1000270e <tchar2uni+0x30>
	...

1000272c <create_name>:
1000272c:	b5f0      	push	{r4, r5, r6, r7, lr}
1000272e:	46de      	mov	lr, fp
10002730:	4657      	mov	r7, sl
10002732:	464e      	mov	r6, r9
10002734:	4645      	mov	r5, r8
10002736:	b5e0      	push	{r5, r6, r7, lr}
10002738:	b085      	sub	sp, #20
1000273a:	0007      	movs	r7, r0
1000273c:	4689      	mov	r9, r1
1000273e:	680b      	ldr	r3, [r1, #0]
10002740:	9303      	str	r3, [sp, #12]
10002742:	6803      	ldr	r3, [r0, #0]
10002744:	68dd      	ldr	r5, [r3, #12]
10002746:	2400      	movs	r4, #0
10002748:	e005      	b.n	10002756 <create_name+0x2a>
1000274a:	2cfe      	cmp	r4, #254	; 0xfe
1000274c:	d900      	bls.n	10002750 <create_name+0x24>
1000274e:	e171      	b.n	10002a34 <create_name+0x308>
10002750:	0063      	lsls	r3, r4, #1
10002752:	52ee      	strh	r6, [r5, r3]
10002754:	3401      	adds	r4, #1
10002756:	a803      	add	r0, sp, #12
10002758:	f7ff ffc1 	bl	100026de <tchar2uni>
1000275c:	1c43      	adds	r3, r0, #1
1000275e:	d100      	bne.n	10002762 <create_name+0x36>
10002760:	e166      	b.n	10002a30 <create_name+0x304>
10002762:	2380      	movs	r3, #128	; 0x80
10002764:	025b      	lsls	r3, r3, #9
10002766:	4298      	cmp	r0, r3
10002768:	d303      	bcc.n	10002772 <create_name+0x46>
1000276a:	0063      	lsls	r3, r4, #1
1000276c:	0c02      	lsrs	r2, r0, #16
1000276e:	52ea      	strh	r2, [r5, r3]
10002770:	3401      	adds	r4, #1
10002772:	b286      	uxth	r6, r0
10002774:	2e1f      	cmp	r6, #31
10002776:	d90e      	bls.n	10002796 <create_name+0x6a>
10002778:	2e2f      	cmp	r6, #47	; 0x2f
1000277a:	d00c      	beq.n	10002796 <create_name+0x6a>
1000277c:	2e5c      	cmp	r6, #92	; 0x5c
1000277e:	d00a      	beq.n	10002796 <create_name+0x6a>
10002780:	2e7f      	cmp	r6, #127	; 0x7f
10002782:	d8e2      	bhi.n	1000274a <create_name+0x1e>
10002784:	0400      	lsls	r0, r0, #16
10002786:	0c01      	lsrs	r1, r0, #16
10002788:	48ac      	ldr	r0, [pc, #688]	; (10002a3c <create_name+0x310>)
1000278a:	f008 fb37 	bl	1000adfc <strchr>
1000278e:	2800      	cmp	r0, #0
10002790:	d0db      	beq.n	1000274a <create_name+0x1e>
10002792:	2006      	movs	r0, #6
10002794:	e0e0      	b.n	10002958 <create_name+0x22c>
10002796:	2e1f      	cmp	r6, #31
10002798:	d817      	bhi.n	100027ca <create_name+0x9e>
1000279a:	2304      	movs	r3, #4
1000279c:	4698      	mov	r8, r3
1000279e:	464b      	mov	r3, r9
100027a0:	9a03      	ldr	r2, [sp, #12]
100027a2:	601a      	str	r2, [r3, #0]
100027a4:	2c01      	cmp	r4, #1
100027a6:	d01e      	beq.n	100027e6 <create_name+0xba>
100027a8:	2c02      	cmp	r4, #2
100027aa:	d13b      	bne.n	10002824 <create_name+0xf8>
100027ac:	4ba4      	ldr	r3, [pc, #656]	; (10002a40 <create_name+0x314>)
100027ae:	18e3      	adds	r3, r4, r3
100027b0:	005b      	lsls	r3, r3, #1
100027b2:	5b5b      	ldrh	r3, [r3, r5]
100027b4:	2b2e      	cmp	r3, #46	; 0x2e
100027b6:	d135      	bne.n	10002824 <create_name+0xf8>
100027b8:	4ba2      	ldr	r3, [pc, #648]	; (10002a44 <create_name+0x318>)
100027ba:	18e3      	adds	r3, r4, r3
100027bc:	005b      	lsls	r3, r3, #1
100027be:	5b5b      	ldrh	r3, [r3, r5]
100027c0:	2b2e      	cmp	r3, #46	; 0x2e
100027c2:	d12f      	bne.n	10002824 <create_name+0xf8>
100027c4:	e015      	b.n	100027f2 <create_name+0xc6>
100027c6:	3301      	adds	r3, #1
100027c8:	9303      	str	r3, [sp, #12]
100027ca:	9b03      	ldr	r3, [sp, #12]
100027cc:	781a      	ldrb	r2, [r3, #0]
100027ce:	2a2f      	cmp	r2, #47	; 0x2f
100027d0:	d0f9      	beq.n	100027c6 <create_name+0x9a>
100027d2:	2a5c      	cmp	r2, #92	; 0x5c
100027d4:	d0f7      	beq.n	100027c6 <create_name+0x9a>
100027d6:	2a1f      	cmp	r2, #31
100027d8:	d902      	bls.n	100027e0 <create_name+0xb4>
100027da:	2300      	movs	r3, #0
100027dc:	4698      	mov	r8, r3
100027de:	e7de      	b.n	1000279e <create_name+0x72>
100027e0:	2304      	movs	r3, #4
100027e2:	4698      	mov	r8, r3
100027e4:	e7db      	b.n	1000279e <create_name+0x72>
100027e6:	4b96      	ldr	r3, [pc, #600]	; (10002a40 <create_name+0x314>)
100027e8:	18e3      	adds	r3, r4, r3
100027ea:	005b      	lsls	r3, r3, #1
100027ec:	5b5b      	ldrh	r3, [r3, r5]
100027ee:	2b2e      	cmp	r3, #46	; 0x2e
100027f0:	d1da      	bne.n	100027a8 <create_name+0x7c>
100027f2:	0063      	lsls	r3, r4, #1
100027f4:	18ed      	adds	r5, r5, r3
100027f6:	2300      	movs	r3, #0
100027f8:	802b      	strh	r3, [r5, #0]
100027fa:	e004      	b.n	10002806 <create_name+0xda>
100027fc:	2120      	movs	r1, #32
100027fe:	18fa      	adds	r2, r7, r3
10002800:	3220      	adds	r2, #32
10002802:	7011      	strb	r1, [r2, #0]
10002804:	3301      	adds	r3, #1
10002806:	2b0a      	cmp	r3, #10
10002808:	d803      	bhi.n	10002812 <create_name+0xe6>
1000280a:	42a3      	cmp	r3, r4
1000280c:	d2f6      	bcs.n	100027fc <create_name+0xd0>
1000280e:	212e      	movs	r1, #46	; 0x2e
10002810:	e7f5      	b.n	100027fe <create_name+0xd2>
10002812:	18fb      	adds	r3, r7, r3
10002814:	3320      	adds	r3, #32
10002816:	2220      	movs	r2, #32
10002818:	4641      	mov	r1, r8
1000281a:	4311      	orrs	r1, r2
1000281c:	7019      	strb	r1, [r3, #0]
1000281e:	2000      	movs	r0, #0
10002820:	e09a      	b.n	10002958 <create_name+0x22c>
10002822:	3c01      	subs	r4, #1
10002824:	2c00      	cmp	r4, #0
10002826:	d007      	beq.n	10002838 <create_name+0x10c>
10002828:	4b85      	ldr	r3, [pc, #532]	; (10002a40 <create_name+0x314>)
1000282a:	18e3      	adds	r3, r4, r3
1000282c:	005b      	lsls	r3, r3, #1
1000282e:	5aeb      	ldrh	r3, [r5, r3]
10002830:	2b20      	cmp	r3, #32
10002832:	d0f6      	beq.n	10002822 <create_name+0xf6>
10002834:	2b2e      	cmp	r3, #46	; 0x2e
10002836:	d0f4      	beq.n	10002822 <create_name+0xf6>
10002838:	0063      	lsls	r3, r4, #1
1000283a:	18eb      	adds	r3, r5, r3
1000283c:	2200      	movs	r2, #0
1000283e:	801a      	strh	r2, [r3, #0]
10002840:	2c00      	cmp	r4, #0
10002842:	d100      	bne.n	10002846 <create_name+0x11a>
10002844:	e0f8      	b.n	10002a38 <create_name+0x30c>
10002846:	2600      	movs	r6, #0
10002848:	e000      	b.n	1000284c <create_name+0x120>
1000284a:	3601      	adds	r6, #1
1000284c:	0073      	lsls	r3, r6, #1
1000284e:	5b5b      	ldrh	r3, [r3, r5]
10002850:	2b20      	cmp	r3, #32
10002852:	d0fa      	beq.n	1000284a <create_name+0x11e>
10002854:	2e00      	cmp	r6, #0
10002856:	d101      	bne.n	1000285c <create_name+0x130>
10002858:	2b2e      	cmp	r3, #46	; 0x2e
1000285a:	d106      	bne.n	1000286a <create_name+0x13e>
1000285c:	2303      	movs	r3, #3
1000285e:	4642      	mov	r2, r8
10002860:	431a      	orrs	r2, r3
10002862:	b2d3      	uxtb	r3, r2
10002864:	4698      	mov	r8, r3
10002866:	e000      	b.n	1000286a <create_name+0x13e>
10002868:	3c01      	subs	r4, #1
1000286a:	2c00      	cmp	r4, #0
1000286c:	d005      	beq.n	1000287a <create_name+0x14e>
1000286e:	4b74      	ldr	r3, [pc, #464]	; (10002a40 <create_name+0x314>)
10002870:	18e3      	adds	r3, r4, r3
10002872:	005b      	lsls	r3, r3, #1
10002874:	5b5b      	ldrh	r3, [r3, r5]
10002876:	2b2e      	cmp	r3, #46	; 0x2e
10002878:	d1f6      	bne.n	10002868 <create_name+0x13c>
1000287a:	0038      	movs	r0, r7
1000287c:	3020      	adds	r0, #32
1000287e:	220b      	movs	r2, #11
10002880:	2120      	movs	r1, #32
10002882:	f003 fc71 	bl	10006168 <__wrap_memset>
10002886:	2308      	movs	r3, #8
10002888:	469b      	mov	fp, r3
1000288a:	2300      	movs	r3, #0
1000288c:	9301      	str	r3, [sp, #4]
1000288e:	469a      	mov	sl, r3
10002890:	1c73      	adds	r3, r6, #1
10002892:	4699      	mov	r9, r3
10002894:	0076      	lsls	r6, r6, #1
10002896:	5bae      	ldrh	r6, [r5, r6]
10002898:	2e00      	cmp	r6, #0
1000289a:	d02f      	beq.n	100028fc <create_name+0x1d0>
1000289c:	2e20      	cmp	r6, #32
1000289e:	d01a      	beq.n	100028d6 <create_name+0x1aa>
100028a0:	2e2e      	cmp	r6, #46	; 0x2e
100028a2:	d016      	beq.n	100028d2 <create_name+0x1a6>
100028a4:	9b01      	ldr	r3, [sp, #4]
100028a6:	455b      	cmp	r3, fp
100028a8:	d21c      	bcs.n	100028e4 <create_name+0x1b8>
100028aa:	454c      	cmp	r4, r9
100028ac:	d01a      	beq.n	100028e4 <create_name+0x1b8>
100028ae:	2e7f      	cmp	r6, #127	; 0x7f
100028b0:	d869      	bhi.n	10002986 <create_name+0x25a>
100028b2:	2eff      	cmp	r6, #255	; 0xff
100028b4:	d800      	bhi.n	100028b8 <create_name+0x18c>
100028b6:	e082      	b.n	100029be <create_name+0x292>
100028b8:	465b      	mov	r3, fp
100028ba:	3b01      	subs	r3, #1
100028bc:	9a01      	ldr	r2, [sp, #4]
100028be:	4293      	cmp	r3, r2
100028c0:	d800      	bhi.n	100028c4 <create_name+0x198>
100028c2:	e073      	b.n	100029ac <create_name+0x280>
100028c4:	9a01      	ldr	r2, [sp, #4]
100028c6:	1c53      	adds	r3, r2, #1
100028c8:	0a31      	lsrs	r1, r6, #8
100028ca:	18ba      	adds	r2, r7, r2
100028cc:	3220      	adds	r2, #32
100028ce:	7011      	strb	r1, [r2, #0]
100028d0:	e084      	b.n	100029dc <create_name+0x2b0>
100028d2:	429c      	cmp	r4, r3
100028d4:	d0e6      	beq.n	100028a4 <create_name+0x178>
100028d6:	2303      	movs	r3, #3
100028d8:	4642      	mov	r2, r8
100028da:	431a      	orrs	r2, r3
100028dc:	b2d3      	uxtb	r3, r2
100028de:	4698      	mov	r8, r3
100028e0:	464e      	mov	r6, r9
100028e2:	e7d5      	b.n	10002890 <create_name+0x164>
100028e4:	465b      	mov	r3, fp
100028e6:	2b0b      	cmp	r3, #11
100028e8:	d03d      	beq.n	10002966 <create_name+0x23a>
100028ea:	454c      	cmp	r4, r9
100028ec:	d004      	beq.n	100028f8 <create_name+0x1cc>
100028ee:	2303      	movs	r3, #3
100028f0:	4642      	mov	r2, r8
100028f2:	431a      	orrs	r2, r3
100028f4:	b2d3      	uxtb	r3, r2
100028f6:	4698      	mov	r8, r3
100028f8:	454c      	cmp	r4, r9
100028fa:	d23a      	bcs.n	10002972 <create_name+0x246>
100028fc:	2320      	movs	r3, #32
100028fe:	5cfb      	ldrb	r3, [r7, r3]
10002900:	2be5      	cmp	r3, #229	; 0xe5
10002902:	d100      	bne.n	10002906 <create_name+0x1da>
10002904:	e08b      	b.n	10002a1e <create_name+0x2f2>
10002906:	465b      	mov	r3, fp
10002908:	2b08      	cmp	r3, #8
1000290a:	d100      	bne.n	1000290e <create_name+0x1e2>
1000290c:	e08b      	b.n	10002a26 <create_name+0x2fa>
1000290e:	230c      	movs	r3, #12
10002910:	4652      	mov	r2, sl
10002912:	4013      	ands	r3, r2
10002914:	2b0c      	cmp	r3, #12
10002916:	d003      	beq.n	10002920 <create_name+0x1f4>
10002918:	2303      	movs	r3, #3
1000291a:	4013      	ands	r3, r2
1000291c:	2b03      	cmp	r3, #3
1000291e:	d104      	bne.n	1000292a <create_name+0x1fe>
10002920:	2302      	movs	r3, #2
10002922:	4642      	mov	r2, r8
10002924:	431a      	orrs	r2, r3
10002926:	b2d3      	uxtb	r3, r2
10002928:	4698      	mov	r8, r3
1000292a:	4643      	mov	r3, r8
1000292c:	079b      	lsls	r3, r3, #30
1000292e:	d40f      	bmi.n	10002950 <create_name+0x224>
10002930:	4653      	mov	r3, sl
10002932:	07db      	lsls	r3, r3, #31
10002934:	d504      	bpl.n	10002940 <create_name+0x214>
10002936:	2310      	movs	r3, #16
10002938:	4642      	mov	r2, r8
1000293a:	431a      	orrs	r2, r3
1000293c:	b2d3      	uxtb	r3, r2
1000293e:	4698      	mov	r8, r3
10002940:	4653      	mov	r3, sl
10002942:	075b      	lsls	r3, r3, #29
10002944:	d504      	bpl.n	10002950 <create_name+0x224>
10002946:	2308      	movs	r3, #8
10002948:	4642      	mov	r2, r8
1000294a:	431a      	orrs	r2, r3
1000294c:	b2d3      	uxtb	r3, r2
1000294e:	4698      	mov	r8, r3
10002950:	232b      	movs	r3, #43	; 0x2b
10002952:	4642      	mov	r2, r8
10002954:	54fa      	strb	r2, [r7, r3]
10002956:	2000      	movs	r0, #0
10002958:	b005      	add	sp, #20
1000295a:	bcf0      	pop	{r4, r5, r6, r7}
1000295c:	46bb      	mov	fp, r7
1000295e:	46b2      	mov	sl, r6
10002960:	46a9      	mov	r9, r5
10002962:	46a0      	mov	r8, r4
10002964:	bdf0      	pop	{r4, r5, r6, r7, pc}
10002966:	2303      	movs	r3, #3
10002968:	4642      	mov	r2, r8
1000296a:	431a      	orrs	r2, r3
1000296c:	b2d3      	uxtb	r3, r2
1000296e:	4698      	mov	r8, r3
10002970:	e7c4      	b.n	100028fc <create_name+0x1d0>
10002972:	4653      	mov	r3, sl
10002974:	009b      	lsls	r3, r3, #2
10002976:	b2db      	uxtb	r3, r3
10002978:	469a      	mov	sl, r3
1000297a:	0026      	movs	r6, r4
1000297c:	230b      	movs	r3, #11
1000297e:	469b      	mov	fp, r3
10002980:	3b03      	subs	r3, #3
10002982:	9301      	str	r3, [sp, #4]
10002984:	e784      	b.n	10002890 <create_name+0x164>
10002986:	2302      	movs	r3, #2
10002988:	4642      	mov	r2, r8
1000298a:	431a      	orrs	r2, r3
1000298c:	b2d3      	uxtb	r3, r2
1000298e:	4698      	mov	r8, r3
10002990:	21b6      	movs	r1, #182	; 0xb6
10002992:	31ff      	adds	r1, #255	; 0xff
10002994:	0030      	movs	r0, r6
10002996:	f001 f8d7 	bl	10003b48 <ff_uni2oem>
1000299a:	0006      	movs	r6, r0
1000299c:	0603      	lsls	r3, r0, #24
1000299e:	d400      	bmi.n	100029a2 <create_name+0x276>
100029a0:	e787      	b.n	100028b2 <create_name+0x186>
100029a2:	237f      	movs	r3, #127	; 0x7f
100029a4:	4018      	ands	r0, r3
100029a6:	4b28      	ldr	r3, [pc, #160]	; (10002a48 <create_name+0x31c>)
100029a8:	5c1e      	ldrb	r6, [r3, r0]
100029aa:	e782      	b.n	100028b2 <create_name+0x186>
100029ac:	2303      	movs	r3, #3
100029ae:	4642      	mov	r2, r8
100029b0:	431a      	orrs	r2, r3
100029b2:	b2d3      	uxtb	r3, r2
100029b4:	4698      	mov	r8, r3
100029b6:	464e      	mov	r6, r9
100029b8:	465b      	mov	r3, fp
100029ba:	9301      	str	r3, [sp, #4]
100029bc:	e768      	b.n	10002890 <create_name+0x164>
100029be:	2e00      	cmp	r6, #0
100029c0:	d005      	beq.n	100029ce <create_name+0x2a2>
100029c2:	0031      	movs	r1, r6
100029c4:	4821      	ldr	r0, [pc, #132]	; (10002a4c <create_name+0x320>)
100029c6:	f008 fa19 	bl	1000adfc <strchr>
100029ca:	2800      	cmp	r0, #0
100029cc:	d00d      	beq.n	100029ea <create_name+0x2be>
100029ce:	2303      	movs	r3, #3
100029d0:	4642      	mov	r2, r8
100029d2:	431a      	orrs	r2, r3
100029d4:	b2d3      	uxtb	r3, r2
100029d6:	4698      	mov	r8, r3
100029d8:	9b01      	ldr	r3, [sp, #4]
100029da:	265f      	movs	r6, #95	; 0x5f
100029dc:	1c5a      	adds	r2, r3, #1
100029de:	9201      	str	r2, [sp, #4]
100029e0:	18fb      	adds	r3, r7, r3
100029e2:	3320      	adds	r3, #32
100029e4:	701e      	strb	r6, [r3, #0]
100029e6:	464e      	mov	r6, r9
100029e8:	e752      	b.n	10002890 <create_name+0x164>
100029ea:	0033      	movs	r3, r6
100029ec:	3b41      	subs	r3, #65	; 0x41
100029ee:	b29b      	uxth	r3, r3
100029f0:	2b19      	cmp	r3, #25
100029f2:	d804      	bhi.n	100029fe <create_name+0x2d2>
100029f4:	2302      	movs	r3, #2
100029f6:	4652      	mov	r2, sl
100029f8:	431a      	orrs	r2, r3
100029fa:	b2d3      	uxtb	r3, r2
100029fc:	469a      	mov	sl, r3
100029fe:	0033      	movs	r3, r6
10002a00:	3b61      	subs	r3, #97	; 0x61
10002a02:	b29b      	uxth	r3, r3
10002a04:	2b19      	cmp	r3, #25
10002a06:	d808      	bhi.n	10002a1a <create_name+0x2ee>
10002a08:	2301      	movs	r3, #1
10002a0a:	4652      	mov	r2, sl
10002a0c:	431a      	orrs	r2, r3
10002a0e:	b2d3      	uxtb	r3, r2
10002a10:	469a      	mov	sl, r3
10002a12:	3e20      	subs	r6, #32
10002a14:	b2b6      	uxth	r6, r6
10002a16:	9b01      	ldr	r3, [sp, #4]
10002a18:	e7e0      	b.n	100029dc <create_name+0x2b0>
10002a1a:	9b01      	ldr	r3, [sp, #4]
10002a1c:	e7de      	b.n	100029dc <create_name+0x2b0>
10002a1e:	3bc5      	subs	r3, #197	; 0xc5
10002a20:	2205      	movs	r2, #5
10002a22:	54fa      	strb	r2, [r7, r3]
10002a24:	e76f      	b.n	10002906 <create_name+0x1da>
10002a26:	4653      	mov	r3, sl
10002a28:	009b      	lsls	r3, r3, #2
10002a2a:	b2db      	uxtb	r3, r3
10002a2c:	469a      	mov	sl, r3
10002a2e:	e76e      	b.n	1000290e <create_name+0x1e2>
10002a30:	2006      	movs	r0, #6
10002a32:	e791      	b.n	10002958 <create_name+0x22c>
10002a34:	2006      	movs	r0, #6
10002a36:	e78f      	b.n	10002958 <create_name+0x22c>
10002a38:	2006      	movs	r0, #6
10002a3a:	e78d      	b.n	10002958 <create_name+0x22c>
10002a3c:	1000c14c 	.word	0x1000c14c
10002a40:	7fffffff 	.word	0x7fffffff
10002a44:	7ffffffe 	.word	0x7ffffffe
10002a48:	1000c160 	.word	0x1000c160
10002a4c:	1000c158 	.word	0x1000c158

10002a50 <cmp_lfn>:
10002a50:	b5f0      	push	{r4, r5, r6, r7, lr}
10002a52:	46d6      	mov	lr, sl
10002a54:	4647      	mov	r7, r8
10002a56:	b580      	push	{r7, lr}
10002a58:	b083      	sub	sp, #12
10002a5a:	4680      	mov	r8, r0
10002a5c:	000f      	movs	r7, r1
10002a5e:	0008      	movs	r0, r1
10002a60:	301a      	adds	r0, #26
10002a62:	f7fe fe4d 	bl	10001700 <ld_word>
10002a66:	2800      	cmp	r0, #0
10002a68:	d137      	bne.n	10002ada <cmp_lfn+0x8a>
10002a6a:	783b      	ldrb	r3, [r7, #0]
10002a6c:	263f      	movs	r6, #63	; 0x3f
10002a6e:	4033      	ands	r3, r6
10002a70:	3b01      	subs	r3, #1
10002a72:	005e      	lsls	r6, r3, #1
10002a74:	18f6      	adds	r6, r6, r3
10002a76:	00b6      	lsls	r6, r6, #2
10002a78:	18f6      	adds	r6, r6, r3
10002a7a:	2401      	movs	r4, #1
10002a7c:	2500      	movs	r5, #0
10002a7e:	e005      	b.n	10002a8c <cmp_lfn+0x3c>
10002a80:	2000      	movs	r0, #0
10002a82:	e02b      	b.n	10002adc <cmp_lfn+0x8c>
10002a84:	4a1c      	ldr	r2, [pc, #112]	; (10002af8 <cmp_lfn+0xa8>)
10002a86:	4290      	cmp	r0, r2
10002a88:	d12d      	bne.n	10002ae6 <cmp_lfn+0x96>
10002a8a:	3501      	adds	r5, #1
10002a8c:	2d0c      	cmp	r5, #12
10002a8e:	d818      	bhi.n	10002ac2 <cmp_lfn+0x72>
10002a90:	4b1a      	ldr	r3, [pc, #104]	; (10002afc <cmp_lfn+0xac>)
10002a92:	5d58      	ldrb	r0, [r3, r5]
10002a94:	1838      	adds	r0, r7, r0
10002a96:	f7fe fe33 	bl	10001700 <ld_word>
10002a9a:	9001      	str	r0, [sp, #4]
10002a9c:	2c00      	cmp	r4, #0
10002a9e:	d0f1      	beq.n	10002a84 <cmp_lfn+0x34>
10002aa0:	2eff      	cmp	r6, #255	; 0xff
10002aa2:	d8ed      	bhi.n	10002a80 <cmp_lfn+0x30>
10002aa4:	f001 f88a 	bl	10003bbc <ff_wtoupper>
10002aa8:	0004      	movs	r4, r0
10002aaa:	1c73      	adds	r3, r6, #1
10002aac:	469a      	mov	sl, r3
10002aae:	0076      	lsls	r6, r6, #1
10002ab0:	4643      	mov	r3, r8
10002ab2:	5af0      	ldrh	r0, [r6, r3]
10002ab4:	f001 f882 	bl	10003bbc <ff_wtoupper>
10002ab8:	4284      	cmp	r4, r0
10002aba:	d1e1      	bne.n	10002a80 <cmp_lfn+0x30>
10002abc:	9c01      	ldr	r4, [sp, #4]
10002abe:	4656      	mov	r6, sl
10002ac0:	e7e3      	b.n	10002a8a <cmp_lfn+0x3a>
10002ac2:	783b      	ldrb	r3, [r7, #0]
10002ac4:	065b      	lsls	r3, r3, #25
10002ac6:	d510      	bpl.n	10002aea <cmp_lfn+0x9a>
10002ac8:	2c00      	cmp	r4, #0
10002aca:	d010      	beq.n	10002aee <cmp_lfn+0x9e>
10002acc:	0076      	lsls	r6, r6, #1
10002ace:	4643      	mov	r3, r8
10002ad0:	5af3      	ldrh	r3, [r6, r3]
10002ad2:	2b00      	cmp	r3, #0
10002ad4:	d10d      	bne.n	10002af2 <cmp_lfn+0xa2>
10002ad6:	2001      	movs	r0, #1
10002ad8:	e000      	b.n	10002adc <cmp_lfn+0x8c>
10002ada:	2000      	movs	r0, #0
10002adc:	b003      	add	sp, #12
10002ade:	bcc0      	pop	{r6, r7}
10002ae0:	46ba      	mov	sl, r7
10002ae2:	46b0      	mov	r8, r6
10002ae4:	bdf0      	pop	{r4, r5, r6, r7, pc}
10002ae6:	2000      	movs	r0, #0
10002ae8:	e7f8      	b.n	10002adc <cmp_lfn+0x8c>
10002aea:	2001      	movs	r0, #1
10002aec:	e7f6      	b.n	10002adc <cmp_lfn+0x8c>
10002aee:	2001      	movs	r0, #1
10002af0:	e7f4      	b.n	10002adc <cmp_lfn+0x8c>
10002af2:	2000      	movs	r0, #0
10002af4:	e7f2      	b.n	10002adc <cmp_lfn+0x8c>
10002af6:	46c0      	nop			; (mov r8, r8)
10002af8:	0000ffff 	.word	0x0000ffff
10002afc:	1000c1e0 	.word	0x1000c1e0

10002b00 <dir_find>:
10002b00:	b5f8      	push	{r3, r4, r5, r6, r7, lr}
10002b02:	46ce      	mov	lr, r9
10002b04:	4647      	mov	r7, r8
10002b06:	b580      	push	{r7, lr}
10002b08:	0005      	movs	r5, r0
10002b0a:	6803      	ldr	r3, [r0, #0]
10002b0c:	4698      	mov	r8, r3
10002b0e:	2100      	movs	r1, #0
10002b10:	f7ff fabf 	bl	10002092 <dir_sdi>
10002b14:	1e04      	subs	r4, r0, #0
10002b16:	d162      	bne.n	10002bde <dir_find+0xde>
10002b18:	2301      	movs	r3, #1
10002b1a:	425b      	negs	r3, r3
10002b1c:	62eb      	str	r3, [r5, #44]	; 0x2c
10002b1e:	3301      	adds	r3, #1
10002b20:	33ff      	adds	r3, #255	; 0xff
10002b22:	4699      	mov	r9, r3
10002b24:	27ff      	movs	r7, #255	; 0xff
10002b26:	e009      	b.n	10002b3c <dir_find+0x3c>
10002b28:	2301      	movs	r3, #1
10002b2a:	425b      	negs	r3, r3
10002b2c:	62eb      	str	r3, [r5, #44]	; 0x2c
10002b2e:	27ff      	movs	r7, #255	; 0xff
10002b30:	2100      	movs	r1, #0
10002b32:	0028      	movs	r0, r5
10002b34:	f7ff fbef 	bl	10002316 <dir_next>
10002b38:	1e04      	subs	r4, r0, #0
10002b3a:	d150      	bne.n	10002bde <dir_find+0xde>
10002b3c:	69a9      	ldr	r1, [r5, #24]
10002b3e:	4640      	mov	r0, r8
10002b40:	f7fe ff4e 	bl	100019e0 <move_window>
10002b44:	1e04      	subs	r4, r0, #0
10002b46:	d14a      	bne.n	10002bde <dir_find+0xde>
10002b48:	69ee      	ldr	r6, [r5, #28]
10002b4a:	7832      	ldrb	r2, [r6, #0]
10002b4c:	2a00      	cmp	r2, #0
10002b4e:	d045      	beq.n	10002bdc <dir_find+0xdc>
10002b50:	7af1      	ldrb	r1, [r6, #11]
10002b52:	233f      	movs	r3, #63	; 0x3f
10002b54:	400b      	ands	r3, r1
10002b56:	71ab      	strb	r3, [r5, #6]
10002b58:	2ae5      	cmp	r2, #229	; 0xe5
10002b5a:	d0e5      	beq.n	10002b28 <dir_find+0x28>
10002b5c:	0709      	lsls	r1, r1, #28
10002b5e:	d501      	bpl.n	10002b64 <dir_find+0x64>
10002b60:	2b0f      	cmp	r3, #15
10002b62:	d1e1      	bne.n	10002b28 <dir_find+0x28>
10002b64:	2b0f      	cmp	r3, #15
10002b66:	d017      	beq.n	10002b98 <dir_find+0x98>
10002b68:	2f00      	cmp	r7, #0
10002b6a:	d104      	bne.n	10002b76 <dir_find+0x76>
10002b6c:	0030      	movs	r0, r6
10002b6e:	f7fe feab 	bl	100018c8 <sum_sfn>
10002b72:	4548      	cmp	r0, r9
10002b74:	d033      	beq.n	10002bde <dir_find+0xde>
10002b76:	232b      	movs	r3, #43	; 0x2b
10002b78:	5ceb      	ldrb	r3, [r5, r3]
10002b7a:	07db      	lsls	r3, r3, #31
10002b7c:	d407      	bmi.n	10002b8e <dir_find+0x8e>
10002b7e:	0029      	movs	r1, r5
10002b80:	3120      	adds	r1, #32
10002b82:	220b      	movs	r2, #11
10002b84:	0030      	movs	r0, r6
10002b86:	f007 ffe5 	bl	1000ab54 <memcmp>
10002b8a:	2800      	cmp	r0, #0
10002b8c:	d027      	beq.n	10002bde <dir_find+0xde>
10002b8e:	2301      	movs	r3, #1
10002b90:	425b      	negs	r3, r3
10002b92:	62eb      	str	r3, [r5, #44]	; 0x2c
10002b94:	27ff      	movs	r7, #255	; 0xff
10002b96:	e7cb      	b.n	10002b30 <dir_find+0x30>
10002b98:	331c      	adds	r3, #28
10002b9a:	5ceb      	ldrb	r3, [r5, r3]
10002b9c:	065b      	lsls	r3, r3, #25
10002b9e:	d4c7      	bmi.n	10002b30 <dir_find+0x30>
10002ba0:	0653      	lsls	r3, r2, #25
10002ba2:	d506      	bpl.n	10002bb2 <dir_find+0xb2>
10002ba4:	7b73      	ldrb	r3, [r6, #13]
10002ba6:	4699      	mov	r9, r3
10002ba8:	2340      	movs	r3, #64	; 0x40
10002baa:	439a      	bics	r2, r3
10002bac:	692b      	ldr	r3, [r5, #16]
10002bae:	62eb      	str	r3, [r5, #44]	; 0x2c
10002bb0:	0017      	movs	r7, r2
10002bb2:	42ba      	cmp	r2, r7
10002bb4:	d001      	beq.n	10002bba <dir_find+0xba>
10002bb6:	27ff      	movs	r7, #255	; 0xff
10002bb8:	e7ba      	b.n	10002b30 <dir_find+0x30>
10002bba:	7b73      	ldrb	r3, [r6, #13]
10002bbc:	454b      	cmp	r3, r9
10002bbe:	d001      	beq.n	10002bc4 <dir_find+0xc4>
10002bc0:	27ff      	movs	r7, #255	; 0xff
10002bc2:	e7b5      	b.n	10002b30 <dir_find+0x30>
10002bc4:	0031      	movs	r1, r6
10002bc6:	4643      	mov	r3, r8
10002bc8:	68d8      	ldr	r0, [r3, #12]
10002bca:	f7ff ff41 	bl	10002a50 <cmp_lfn>
10002bce:	2800      	cmp	r0, #0
10002bd0:	d002      	beq.n	10002bd8 <dir_find+0xd8>
10002bd2:	3f01      	subs	r7, #1
10002bd4:	b2ff      	uxtb	r7, r7
10002bd6:	e7ab      	b.n	10002b30 <dir_find+0x30>
10002bd8:	27ff      	movs	r7, #255	; 0xff
10002bda:	e7a9      	b.n	10002b30 <dir_find+0x30>
10002bdc:	2404      	movs	r4, #4
10002bde:	0020      	movs	r0, r4
10002be0:	bcc0      	pop	{r6, r7}
10002be2:	46b9      	mov	r9, r7
10002be4:	46b0      	mov	r8, r6
10002be6:	bdf8      	pop	{r3, r4, r5, r6, r7, pc}

10002be8 <follow_path>:
10002be8:	b570      	push	{r4, r5, r6, lr}
10002bea:	b082      	sub	sp, #8
10002bec:	0004      	movs	r4, r0
10002bee:	9101      	str	r1, [sp, #4]
10002bf0:	6806      	ldr	r6, [r0, #0]
10002bf2:	780b      	ldrb	r3, [r1, #0]
10002bf4:	2b2f      	cmp	r3, #47	; 0x2f
10002bf6:	d006      	beq.n	10002c06 <follow_path+0x1e>
10002bf8:	2b5c      	cmp	r3, #92	; 0x5c
10002bfa:	d004      	beq.n	10002c06 <follow_path+0x1e>
10002bfc:	69b3      	ldr	r3, [r6, #24]
10002bfe:	6083      	str	r3, [r0, #8]
10002c00:	e009      	b.n	10002c16 <follow_path+0x2e>
10002c02:	3301      	adds	r3, #1
10002c04:	9301      	str	r3, [sp, #4]
10002c06:	9b01      	ldr	r3, [sp, #4]
10002c08:	781a      	ldrb	r2, [r3, #0]
10002c0a:	2a2f      	cmp	r2, #47	; 0x2f
10002c0c:	d0f9      	beq.n	10002c02 <follow_path+0x1a>
10002c0e:	2a5c      	cmp	r2, #92	; 0x5c
10002c10:	d0f7      	beq.n	10002c02 <follow_path+0x1a>
10002c12:	2300      	movs	r3, #0
10002c14:	60a3      	str	r3, [r4, #8]
10002c16:	9b01      	ldr	r3, [sp, #4]
10002c18:	781b      	ldrb	r3, [r3, #0]
10002c1a:	2b1f      	cmp	r3, #31
10002c1c:	d81b      	bhi.n	10002c56 <follow_path+0x6e>
10002c1e:	232b      	movs	r3, #43	; 0x2b
10002c20:	2280      	movs	r2, #128	; 0x80
10002c22:	54e2      	strb	r2, [r4, r3]
10002c24:	2100      	movs	r1, #0
10002c26:	0020      	movs	r0, r4
10002c28:	f7ff fa33 	bl	10002092 <dir_sdi>
10002c2c:	0005      	movs	r5, r0
10002c2e:	e028      	b.n	10002c82 <follow_path+0x9a>
10002c30:	0753      	lsls	r3, r2, #29
10002c32:	d52b      	bpl.n	10002c8c <follow_path+0xa4>
10002c34:	0005      	movs	r5, r0
10002c36:	e024      	b.n	10002c82 <follow_path+0x9a>
10002c38:	0753      	lsls	r3, r2, #29
10002c3a:	d429      	bmi.n	10002c90 <follow_path+0xa8>
10002c3c:	79a3      	ldrb	r3, [r4, #6]
10002c3e:	06db      	lsls	r3, r3, #27
10002c40:	d528      	bpl.n	10002c94 <follow_path+0xac>
10002c42:	0033      	movs	r3, r6
10002c44:	3338      	adds	r3, #56	; 0x38
10002c46:	6922      	ldr	r2, [r4, #16]
10002c48:	05d1      	lsls	r1, r2, #23
10002c4a:	0dc9      	lsrs	r1, r1, #23
10002c4c:	1859      	adds	r1, r3, r1
10002c4e:	0030      	movs	r0, r6
10002c50:	f7fe fd83 	bl	1000175a <ld_clust>
10002c54:	60a0      	str	r0, [r4, #8]
10002c56:	a901      	add	r1, sp, #4
10002c58:	0020      	movs	r0, r4
10002c5a:	f7ff fd67 	bl	1000272c <create_name>
10002c5e:	1e05      	subs	r5, r0, #0
10002c60:	d10f      	bne.n	10002c82 <follow_path+0x9a>
10002c62:	0020      	movs	r0, r4
10002c64:	f7ff ff4c 	bl	10002b00 <dir_find>
10002c68:	222b      	movs	r2, #43	; 0x2b
10002c6a:	5ca2      	ldrb	r2, [r4, r2]
10002c6c:	2800      	cmp	r0, #0
10002c6e:	d0e3      	beq.n	10002c38 <follow_path+0x50>
10002c70:	2804      	cmp	r0, #4
10002c72:	d109      	bne.n	10002c88 <follow_path+0xa0>
10002c74:	0693      	lsls	r3, r2, #26
10002c76:	d5db      	bpl.n	10002c30 <follow_path+0x48>
10002c78:	0753      	lsls	r3, r2, #29
10002c7a:	d5ec      	bpl.n	10002c56 <follow_path+0x6e>
10002c7c:	232b      	movs	r3, #43	; 0x2b
10002c7e:	2280      	movs	r2, #128	; 0x80
10002c80:	54e2      	strb	r2, [r4, r3]
10002c82:	0028      	movs	r0, r5
10002c84:	b002      	add	sp, #8
10002c86:	bd70      	pop	{r4, r5, r6, pc}
10002c88:	0005      	movs	r5, r0
10002c8a:	e7fa      	b.n	10002c82 <follow_path+0x9a>
10002c8c:	2505      	movs	r5, #5
10002c8e:	e7f8      	b.n	10002c82 <follow_path+0x9a>
10002c90:	0005      	movs	r5, r0
10002c92:	e7f6      	b.n	10002c82 <follow_path+0x9a>
10002c94:	2505      	movs	r5, #5
10002c96:	e7f4      	b.n	10002c82 <follow_path+0x9a>

10002c98 <gen_numname>:
10002c98:	b5f0      	push	{r4, r5, r6, r7, lr}
10002c9a:	b083      	sub	sp, #12
10002c9c:	0005      	movs	r5, r0
10002c9e:	0016      	movs	r6, r2
10002ca0:	001c      	movs	r4, r3
10002ca2:	220b      	movs	r2, #11
10002ca4:	f003 fa66 	bl	10006174 <__wrap___aeabi_memcpy>
10002ca8:	2c05      	cmp	r4, #5
10002caa:	d80e      	bhi.n	10002cca <gen_numname+0x32>
10002cac:	2707      	movs	r7, #7
10002cae:	e01a      	b.n	10002ce6 <gen_numname+0x4e>
10002cb0:	3101      	adds	r1, #1
10002cb2:	290f      	cmp	r1, #15
10002cb4:	d809      	bhi.n	10002cca <gen_numname+0x32>
10002cb6:	0062      	lsls	r2, r4, #1
10002cb8:	2401      	movs	r4, #1
10002cba:	401c      	ands	r4, r3
10002cbc:	1914      	adds	r4, r2, r4
10002cbe:	085b      	lsrs	r3, r3, #1
10002cc0:	03d2      	lsls	r2, r2, #15
10002cc2:	d5f5      	bpl.n	10002cb0 <gen_numname+0x18>
10002cc4:	4a1e      	ldr	r2, [pc, #120]	; (10002d40 <gen_numname+0xa8>)
10002cc6:	4054      	eors	r4, r2
10002cc8:	e7f2      	b.n	10002cb0 <gen_numname+0x18>
10002cca:	8833      	ldrh	r3, [r6, #0]
10002ccc:	2b00      	cmp	r3, #0
10002cce:	d0ed      	beq.n	10002cac <gen_numname+0x14>
10002cd0:	3602      	adds	r6, #2
10002cd2:	2100      	movs	r1, #0
10002cd4:	e7ed      	b.n	10002cb2 <gen_numname+0x1a>
10002cd6:	1e7e      	subs	r6, r7, #1
10002cd8:	466b      	mov	r3, sp
10002cda:	55da      	strb	r2, [r3, r7]
10002cdc:	2f01      	cmp	r7, #1
10002cde:	d00d      	beq.n	10002cfc <gen_numname+0x64>
10002ce0:	290f      	cmp	r1, #15
10002ce2:	d90b      	bls.n	10002cfc <gen_numname+0x64>
10002ce4:	0037      	movs	r7, r6
10002ce6:	230f      	movs	r3, #15
10002ce8:	4023      	ands	r3, r4
10002cea:	001a      	movs	r2, r3
10002cec:	3230      	adds	r2, #48	; 0x30
10002cee:	0021      	movs	r1, r4
10002cf0:	0924      	lsrs	r4, r4, #4
10002cf2:	2a39      	cmp	r2, #57	; 0x39
10002cf4:	d9ef      	bls.n	10002cd6 <gen_numname+0x3e>
10002cf6:	3337      	adds	r3, #55	; 0x37
10002cf8:	001a      	movs	r2, r3
10002cfa:	e7ec      	b.n	10002cd6 <gen_numname+0x3e>
10002cfc:	237e      	movs	r3, #126	; 0x7e
10002cfe:	466a      	mov	r2, sp
10002d00:	5593      	strb	r3, [r2, r6]
10002d02:	2400      	movs	r4, #0
10002d04:	e000      	b.n	10002d08 <gen_numname+0x70>
10002d06:	3401      	adds	r4, #1
10002d08:	42b4      	cmp	r4, r6
10002d0a:	d211      	bcs.n	10002d30 <gen_numname+0x98>
10002d0c:	5d28      	ldrb	r0, [r5, r4]
10002d0e:	2820      	cmp	r0, #32
10002d10:	d00e      	beq.n	10002d30 <gen_numname+0x98>
10002d12:	f7fe fd12 	bl	1000173a <dbc_1st>
10002d16:	2800      	cmp	r0, #0
10002d18:	d0f5      	beq.n	10002d06 <gen_numname+0x6e>
10002d1a:	1ebb      	subs	r3, r7, #2
10002d1c:	42a3      	cmp	r3, r4
10002d1e:	d007      	beq.n	10002d30 <gen_numname+0x98>
10002d20:	3401      	adds	r4, #1
10002d22:	e7f0      	b.n	10002d06 <gen_numname+0x6e>
10002d24:	2220      	movs	r2, #32
10002d26:	1c63      	adds	r3, r4, #1
10002d28:	552a      	strb	r2, [r5, r4]
10002d2a:	2b07      	cmp	r3, #7
10002d2c:	d806      	bhi.n	10002d3c <gen_numname+0xa4>
10002d2e:	001c      	movs	r4, r3
10002d30:	2e07      	cmp	r6, #7
10002d32:	d8f7      	bhi.n	10002d24 <gen_numname+0x8c>
10002d34:	466b      	mov	r3, sp
10002d36:	5d9a      	ldrb	r2, [r3, r6]
10002d38:	3601      	adds	r6, #1
10002d3a:	e7f4      	b.n	10002d26 <gen_numname+0x8e>
10002d3c:	b003      	add	sp, #12
10002d3e:	bdf0      	pop	{r4, r5, r6, r7, pc}
10002d40:	00011021 	.word	0x00011021

10002d44 <dir_register>:
10002d44:	b5f0      	push	{r4, r5, r6, r7, lr}
10002d46:	46c6      	mov	lr, r8
10002d48:	b500      	push	{lr}
10002d4a:	b084      	sub	sp, #16
10002d4c:	0007      	movs	r7, r0
10002d4e:	6804      	ldr	r4, [r0, #0]
10002d50:	232b      	movs	r3, #43	; 0x2b
10002d52:	5cc5      	ldrb	r5, [r0, r3]
10002d54:	3334      	adds	r3, #52	; 0x34
10002d56:	002a      	movs	r2, r5
10002d58:	439a      	bics	r2, r3
10002d5a:	d000      	beq.n	10002d5e <dir_register+0x1a>
10002d5c:	e08e      	b.n	10002e7c <dir_register+0x138>
10002d5e:	2600      	movs	r6, #0
10002d60:	e000      	b.n	10002d64 <dir_register+0x20>
10002d62:	3601      	adds	r6, #1
10002d64:	0073      	lsls	r3, r6, #1
10002d66:	68e2      	ldr	r2, [r4, #12]
10002d68:	5a9b      	ldrh	r3, [r3, r2]
10002d6a:	2b00      	cmp	r3, #0
10002d6c:	d1f9      	bne.n	10002d62 <dir_register+0x1e>
10002d6e:	0039      	movs	r1, r7
10002d70:	3120      	adds	r1, #32
10002d72:	220c      	movs	r2, #12
10002d74:	a801      	add	r0, sp, #4
10002d76:	f003 f9fd 	bl	10006174 <__wrap___aeabi_memcpy>
10002d7a:	07eb      	lsls	r3, r5, #31
10002d7c:	d51d      	bpl.n	10002dba <dir_register+0x76>
10002d7e:	232b      	movs	r3, #43	; 0x2b
10002d80:	2240      	movs	r2, #64	; 0x40
10002d82:	54fa      	strb	r2, [r7, r3]
10002d84:	2501      	movs	r5, #1
10002d86:	e000      	b.n	10002d8a <dir_register+0x46>
10002d88:	3501      	adds	r5, #1
10002d8a:	2d63      	cmp	r5, #99	; 0x63
10002d8c:	d80c      	bhi.n	10002da8 <dir_register+0x64>
10002d8e:	0038      	movs	r0, r7
10002d90:	3020      	adds	r0, #32
10002d92:	002b      	movs	r3, r5
10002d94:	68e2      	ldr	r2, [r4, #12]
10002d96:	a901      	add	r1, sp, #4
10002d98:	f7ff ff7e 	bl	10002c98 <gen_numname>
10002d9c:	0038      	movs	r0, r7
10002d9e:	f7ff feaf 	bl	10002b00 <dir_find>
10002da2:	4680      	mov	r8, r0
10002da4:	2800      	cmp	r0, #0
10002da6:	d0ef      	beq.n	10002d88 <dir_register+0x44>
10002da8:	2d64      	cmp	r5, #100	; 0x64
10002daa:	d06a      	beq.n	10002e82 <dir_register+0x13e>
10002dac:	4643      	mov	r3, r8
10002dae:	2b04      	cmp	r3, #4
10002db0:	d11c      	bne.n	10002dec <dir_register+0xa8>
10002db2:	ab01      	add	r3, sp, #4
10002db4:	7ada      	ldrb	r2, [r3, #11]
10002db6:	232b      	movs	r3, #43	; 0x2b
10002db8:	54fa      	strb	r2, [r7, r3]
10002dba:	ab01      	add	r3, sp, #4
10002dbc:	7adb      	ldrb	r3, [r3, #11]
10002dbe:	079b      	lsls	r3, r3, #30
10002dc0:	d506      	bpl.n	10002dd0 <dir_register+0x8c>
10002dc2:	0030      	movs	r0, r6
10002dc4:	300c      	adds	r0, #12
10002dc6:	210d      	movs	r1, #13
10002dc8:	f002 fac8 	bl	1000535c <__wrap___aeabi_uidiv>
10002dcc:	1c45      	adds	r5, r0, #1
10002dce:	e000      	b.n	10002dd2 <dir_register+0x8e>
10002dd0:	2501      	movs	r5, #1
10002dd2:	0029      	movs	r1, r5
10002dd4:	0038      	movs	r0, r7
10002dd6:	f7ff fb08 	bl	100023ea <dir_alloc>
10002dda:	4680      	mov	r8, r0
10002ddc:	2800      	cmp	r0, #0
10002dde:	d102      	bne.n	10002de6 <dir_register+0xa2>
10002de0:	1e6e      	subs	r6, r5, #1
10002de2:	2d01      	cmp	r5, #1
10002de4:	d107      	bne.n	10002df6 <dir_register+0xb2>
10002de6:	4643      	mov	r3, r8
10002de8:	2b00      	cmp	r3, #0
10002dea:	d02c      	beq.n	10002e46 <dir_register+0x102>
10002dec:	4640      	mov	r0, r8
10002dee:	b004      	add	sp, #16
10002df0:	bc80      	pop	{r7}
10002df2:	46b8      	mov	r8, r7
10002df4:	bdf0      	pop	{r4, r5, r6, r7, pc}
10002df6:	0171      	lsls	r1, r6, #5
10002df8:	693b      	ldr	r3, [r7, #16]
10002dfa:	1a59      	subs	r1, r3, r1
10002dfc:	0038      	movs	r0, r7
10002dfe:	f7ff f948 	bl	10002092 <dir_sdi>
10002e02:	4680      	mov	r8, r0
10002e04:	2800      	cmp	r0, #0
10002e06:	d1ee      	bne.n	10002de6 <dir_register+0xa2>
10002e08:	0038      	movs	r0, r7
10002e0a:	3020      	adds	r0, #32
10002e0c:	f7fe fd5c 	bl	100018c8 <sum_sfn>
10002e10:	0005      	movs	r5, r0
10002e12:	69b9      	ldr	r1, [r7, #24]
10002e14:	0020      	movs	r0, r4
10002e16:	f7fe fde3 	bl	100019e0 <move_window>
10002e1a:	4680      	mov	r8, r0
10002e1c:	2800      	cmp	r0, #0
10002e1e:	d1e2      	bne.n	10002de6 <dir_register+0xa2>
10002e20:	b2f2      	uxtb	r2, r6
10002e22:	002b      	movs	r3, r5
10002e24:	69f9      	ldr	r1, [r7, #28]
10002e26:	68e0      	ldr	r0, [r4, #12]
10002e28:	f7fe fd08 	bl	1000183c <put_lfn>
10002e2c:	2301      	movs	r3, #1
10002e2e:	7123      	strb	r3, [r4, #4]
10002e30:	2100      	movs	r1, #0
10002e32:	0038      	movs	r0, r7
10002e34:	f7ff fa6f 	bl	10002316 <dir_next>
10002e38:	4680      	mov	r8, r0
10002e3a:	2800      	cmp	r0, #0
10002e3c:	d1d3      	bne.n	10002de6 <dir_register+0xa2>
10002e3e:	3e01      	subs	r6, #1
10002e40:	2e00      	cmp	r6, #0
10002e42:	d1e6      	bne.n	10002e12 <dir_register+0xce>
10002e44:	e7cf      	b.n	10002de6 <dir_register+0xa2>
10002e46:	69b9      	ldr	r1, [r7, #24]
10002e48:	0020      	movs	r0, r4
10002e4a:	f7fe fdc9 	bl	100019e0 <move_window>
10002e4e:	4680      	mov	r8, r0
10002e50:	2800      	cmp	r0, #0
10002e52:	d1cb      	bne.n	10002dec <dir_register+0xa8>
10002e54:	2220      	movs	r2, #32
10002e56:	2100      	movs	r1, #0
10002e58:	69f8      	ldr	r0, [r7, #28]
10002e5a:	f003 f985 	bl	10006168 <__wrap_memset>
10002e5e:	0039      	movs	r1, r7
10002e60:	3120      	adds	r1, #32
10002e62:	220b      	movs	r2, #11
10002e64:	69f8      	ldr	r0, [r7, #28]
10002e66:	f003 f985 	bl	10006174 <__wrap___aeabi_memcpy>
10002e6a:	232b      	movs	r3, #43	; 0x2b
10002e6c:	5cf9      	ldrb	r1, [r7, r3]
10002e6e:	69fa      	ldr	r2, [r7, #28]
10002e70:	3b13      	subs	r3, #19
10002e72:	400b      	ands	r3, r1
10002e74:	7313      	strb	r3, [r2, #12]
10002e76:	2301      	movs	r3, #1
10002e78:	7123      	strb	r3, [r4, #4]
10002e7a:	e7b7      	b.n	10002dec <dir_register+0xa8>
10002e7c:	2306      	movs	r3, #6
10002e7e:	4698      	mov	r8, r3
10002e80:	e7b4      	b.n	10002dec <dir_register+0xa8>
10002e82:	2307      	movs	r3, #7
10002e84:	4698      	mov	r8, r3
10002e86:	e7b1      	b.n	10002dec <dir_register+0xa8>

10002e88 <sync_fs>:
10002e88:	b570      	push	{r4, r5, r6, lr}
10002e8a:	0004      	movs	r4, r0
10002e8c:	f7fe fd83 	bl	10001996 <sync_window>
10002e90:	1e05      	subs	r5, r0, #0
10002e92:	d10a      	bne.n	10002eaa <sync_fs+0x22>
10002e94:	7823      	ldrb	r3, [r4, #0]
10002e96:	2b03      	cmp	r3, #3
10002e98:	d009      	beq.n	10002eae <sync_fs+0x26>
10002e9a:	7860      	ldrb	r0, [r4, #1]
10002e9c:	2200      	movs	r2, #0
10002e9e:	2100      	movs	r1, #0
10002ea0:	f7fe fb14 	bl	100014cc <disk_ioctl>
10002ea4:	2800      	cmp	r0, #0
10002ea6:	d000      	beq.n	10002eaa <sync_fs+0x22>
10002ea8:	2501      	movs	r5, #1
10002eaa:	0028      	movs	r0, r5
10002eac:	bd70      	pop	{r4, r5, r6, pc}
10002eae:	7963      	ldrb	r3, [r4, #5]
10002eb0:	2b01      	cmp	r3, #1
10002eb2:	d1f2      	bne.n	10002e9a <sync_fs+0x12>
10002eb4:	0026      	movs	r6, r4
10002eb6:	3638      	adds	r6, #56	; 0x38
10002eb8:	2280      	movs	r2, #128	; 0x80
10002eba:	0092      	lsls	r2, r2, #2
10002ebc:	2100      	movs	r1, #0
10002ebe:	0030      	movs	r0, r6
10002ec0:	f003 f952 	bl	10006168 <__wrap_memset>
10002ec4:	4912      	ldr	r1, [pc, #72]	; (10002f10 <sync_fs+0x88>)
10002ec6:	4b13      	ldr	r3, [pc, #76]	; (10002f14 <sync_fs+0x8c>)
10002ec8:	18e0      	adds	r0, r4, r3
10002eca:	f7fe fc2a 	bl	10001722 <st_word>
10002ece:	4912      	ldr	r1, [pc, #72]	; (10002f18 <sync_fs+0x90>)
10002ed0:	0030      	movs	r0, r6
10002ed2:	f7fe fc2a 	bl	1000172a <st_dword>
10002ed6:	2387      	movs	r3, #135	; 0x87
10002ed8:	009b      	lsls	r3, r3, #2
10002eda:	18e0      	adds	r0, r4, r3
10002edc:	490f      	ldr	r1, [pc, #60]	; (10002f1c <sync_fs+0x94>)
10002ede:	f7fe fc24 	bl	1000172a <st_dword>
10002ee2:	2388      	movs	r3, #136	; 0x88
10002ee4:	009b      	lsls	r3, r3, #2
10002ee6:	18e0      	adds	r0, r4, r3
10002ee8:	6961      	ldr	r1, [r4, #20]
10002eea:	f7fe fc1e 	bl	1000172a <st_dword>
10002eee:	2389      	movs	r3, #137	; 0x89
10002ef0:	009b      	lsls	r3, r3, #2
10002ef2:	18e0      	adds	r0, r4, r3
10002ef4:	6921      	ldr	r1, [r4, #16]
10002ef6:	f7fe fc18 	bl	1000172a <st_dword>
10002efa:	6a63      	ldr	r3, [r4, #36]	; 0x24
10002efc:	1c5a      	adds	r2, r3, #1
10002efe:	6362      	str	r2, [r4, #52]	; 0x34
10002f00:	7860      	ldrb	r0, [r4, #1]
10002f02:	2301      	movs	r3, #1
10002f04:	0031      	movs	r1, r6
10002f06:	f7fe fac3 	bl	10001490 <disk_write>
10002f0a:	2300      	movs	r3, #0
10002f0c:	7163      	strb	r3, [r4, #5]
10002f0e:	e7c4      	b.n	10002e9a <sync_fs+0x12>
10002f10:	0000aa55 	.word	0x0000aa55
10002f14:	00000236 	.word	0x00000236
10002f18:	41615252 	.word	0x41615252
10002f1c:	61417272 	.word	0x61417272

10002f20 <f_mount>:
10002f20:	b530      	push	{r4, r5, lr}
10002f22:	b085      	sub	sp, #20
10002f24:	9001      	str	r0, [sp, #4]
10002f26:	9100      	str	r1, [sp, #0]
10002f28:	0014      	movs	r4, r2
10002f2a:	9103      	str	r1, [sp, #12]
10002f2c:	a803      	add	r0, sp, #12
10002f2e:	f7fe fcdb 	bl	100018e8 <get_ldnumber>
10002f32:	2800      	cmp	r0, #0
10002f34:	db1e      	blt.n	10002f74 <f_mount+0x54>
10002f36:	0083      	lsls	r3, r0, #2
10002f38:	4a0f      	ldr	r2, [pc, #60]	; (10002f78 <f_mount+0x58>)
10002f3a:	589a      	ldr	r2, [r3, r2]
10002f3c:	2a00      	cmp	r2, #0
10002f3e:	d003      	beq.n	10002f48 <f_mount+0x28>
10002f40:	2100      	movs	r1, #0
10002f42:	4d0d      	ldr	r5, [pc, #52]	; (10002f78 <f_mount+0x58>)
10002f44:	5159      	str	r1, [r3, r5]
10002f46:	7011      	strb	r1, [r2, #0]
10002f48:	9b01      	ldr	r3, [sp, #4]
10002f4a:	2b00      	cmp	r3, #0
10002f4c:	d007      	beq.n	10002f5e <f_mount+0x3e>
10002f4e:	7058      	strb	r0, [r3, #1]
10002f50:	2300      	movs	r3, #0
10002f52:	9a01      	ldr	r2, [sp, #4]
10002f54:	7013      	strb	r3, [r2, #0]
10002f56:	0080      	lsls	r0, r0, #2
10002f58:	4a07      	ldr	r2, [pc, #28]	; (10002f78 <f_mount+0x58>)
10002f5a:	9b01      	ldr	r3, [sp, #4]
10002f5c:	5083      	str	r3, [r0, r2]
10002f5e:	2c00      	cmp	r4, #0
10002f60:	d102      	bne.n	10002f68 <f_mount+0x48>
10002f62:	0020      	movs	r0, r4
10002f64:	b005      	add	sp, #20
10002f66:	bd30      	pop	{r4, r5, pc}
10002f68:	2200      	movs	r2, #0
10002f6a:	a901      	add	r1, sp, #4
10002f6c:	4668      	mov	r0, sp
10002f6e:	f7fe fdf9 	bl	10001b64 <mount_volume>
10002f72:	e7f7      	b.n	10002f64 <f_mount+0x44>
10002f74:	200b      	movs	r0, #11
10002f76:	e7f5      	b.n	10002f64 <f_mount+0x44>
10002f78:	20001444 	.word	0x20001444

10002f7c <f_open>:
10002f7c:	b5f0      	push	{r4, r5, r6, r7, lr}
10002f7e:	46d6      	mov	lr, sl
10002f80:	464f      	mov	r7, r9
10002f82:	4646      	mov	r6, r8
10002f84:	b5c0      	push	{r6, r7, lr}
10002f86:	b090      	sub	sp, #64	; 0x40
10002f88:	0007      	movs	r7, r0
10002f8a:	9101      	str	r1, [sp, #4]
10002f8c:	0015      	movs	r5, r2
10002f8e:	2800      	cmp	r0, #0
10002f90:	d100      	bne.n	10002f94 <f_open+0x18>
10002f92:	e0fb      	b.n	1000318c <f_open+0x210>
10002f94:	263f      	movs	r6, #63	; 0x3f
10002f96:	4016      	ands	r6, r2
10002f98:	0032      	movs	r2, r6
10002f9a:	a903      	add	r1, sp, #12
10002f9c:	a801      	add	r0, sp, #4
10002f9e:	f7fe fde1 	bl	10001b64 <mount_volume>
10002fa2:	1e04      	subs	r4, r0, #0
10002fa4:	d00a      	beq.n	10002fbc <f_open+0x40>
10002fa6:	2c00      	cmp	r4, #0
10002fa8:	d001      	beq.n	10002fae <f_open+0x32>
10002faa:	2300      	movs	r3, #0
10002fac:	603b      	str	r3, [r7, #0]
10002fae:	0020      	movs	r0, r4
10002fb0:	b010      	add	sp, #64	; 0x40
10002fb2:	bce0      	pop	{r5, r6, r7}
10002fb4:	46ba      	mov	sl, r7
10002fb6:	46b1      	mov	r9, r6
10002fb8:	46a8      	mov	r8, r5
10002fba:	bdf0      	pop	{r4, r5, r6, r7, pc}
10002fbc:	9b03      	ldr	r3, [sp, #12]
10002fbe:	9304      	str	r3, [sp, #16]
10002fc0:	9901      	ldr	r1, [sp, #4]
10002fc2:	a804      	add	r0, sp, #16
10002fc4:	f7ff fe10 	bl	10002be8 <follow_path>
10002fc8:	1e04      	subs	r4, r0, #0
10002fca:	d104      	bne.n	10002fd6 <f_open+0x5a>
10002fcc:	aa04      	add	r2, sp, #16
10002fce:	232b      	movs	r3, #43	; 0x2b
10002fd0:	56d3      	ldrsb	r3, [r2, r3]
10002fd2:	2b00      	cmp	r3, #0
10002fd4:	db4b      	blt.n	1000306e <f_open+0xf2>
10002fd6:	231c      	movs	r3, #28
10002fd8:	422b      	tst	r3, r5
10002fda:	d058      	beq.n	1000308e <f_open+0x112>
10002fdc:	2c00      	cmp	r4, #0
10002fde:	d04d      	beq.n	1000307c <f_open+0x100>
10002fe0:	2c04      	cmp	r4, #4
10002fe2:	d046      	beq.n	10003072 <f_open+0xf6>
10002fe4:	2308      	movs	r3, #8
10002fe6:	431e      	orrs	r6, r3
10002fe8:	b2f6      	uxtb	r6, r6
10002fea:	2c00      	cmp	r4, #0
10002fec:	d15c      	bne.n	100030a8 <f_open+0x12c>
10002fee:	0733      	lsls	r3, r6, #28
10002ff0:	d55a      	bpl.n	100030a8 <f_open+0x12c>
10002ff2:	9b0b      	ldr	r3, [sp, #44]	; 0x2c
10002ff4:	9300      	str	r3, [sp, #0]
10002ff6:	4d66      	ldr	r5, [pc, #408]	; (10003190 <f_open+0x214>)
10002ff8:	0018      	movs	r0, r3
10002ffa:	300e      	adds	r0, #14
10002ffc:	0029      	movs	r1, r5
10002ffe:	f7fe fb94 	bl	1000172a <st_dword>
10003002:	9b0b      	ldr	r3, [sp, #44]	; 0x2c
10003004:	9300      	str	r3, [sp, #0]
10003006:	0018      	movs	r0, r3
10003008:	3016      	adds	r0, #22
1000300a:	0029      	movs	r1, r5
1000300c:	f7fe fb8d 	bl	1000172a <st_dword>
10003010:	9b03      	ldr	r3, [sp, #12]
10003012:	4698      	mov	r8, r3
10003014:	9b0b      	ldr	r3, [sp, #44]	; 0x2c
10003016:	4699      	mov	r9, r3
10003018:	0019      	movs	r1, r3
1000301a:	4640      	mov	r0, r8
1000301c:	f7fe fb9d 	bl	1000175a <ld_clust>
10003020:	0005      	movs	r5, r0
10003022:	2320      	movs	r3, #32
10003024:	464a      	mov	r2, r9
10003026:	72d3      	strb	r3, [r2, #11]
10003028:	9b0b      	ldr	r3, [sp, #44]	; 0x2c
1000302a:	9300      	str	r3, [sp, #0]
1000302c:	2200      	movs	r2, #0
1000302e:	0019      	movs	r1, r3
10003030:	4640      	mov	r0, r8
10003032:	f7fe fba5 	bl	10001780 <st_clust>
10003036:	980b      	ldr	r0, [sp, #44]	; 0x2c
10003038:	301c      	adds	r0, #28
1000303a:	2100      	movs	r1, #0
1000303c:	f7fe fb75 	bl	1000172a <st_dword>
10003040:	9b03      	ldr	r3, [sp, #12]
10003042:	2201      	movs	r2, #1
10003044:	711a      	strb	r2, [r3, #4]
10003046:	2d00      	cmp	r5, #0
10003048:	d02e      	beq.n	100030a8 <f_open+0x12c>
1000304a:	6b5b      	ldr	r3, [r3, #52]	; 0x34
1000304c:	4698      	mov	r8, r3
1000304e:	2200      	movs	r2, #0
10003050:	0029      	movs	r1, r5
10003052:	a804      	add	r0, sp, #16
10003054:	f7ff f8f6 	bl	10002244 <remove_chain>
10003058:	1e04      	subs	r4, r0, #0
1000305a:	d125      	bne.n	100030a8 <f_open+0x12c>
1000305c:	4641      	mov	r1, r8
1000305e:	9803      	ldr	r0, [sp, #12]
10003060:	f7fe fcbe 	bl	100019e0 <move_window>
10003064:	0004      	movs	r4, r0
10003066:	3d01      	subs	r5, #1
10003068:	9b03      	ldr	r3, [sp, #12]
1000306a:	611d      	str	r5, [r3, #16]
1000306c:	e01c      	b.n	100030a8 <f_open+0x12c>
1000306e:	3406      	adds	r4, #6
10003070:	e7b1      	b.n	10002fd6 <f_open+0x5a>
10003072:	a804      	add	r0, sp, #16
10003074:	f7ff fe66 	bl	10002d44 <dir_register>
10003078:	0004      	movs	r4, r0
1000307a:	e7b3      	b.n	10002fe4 <f_open+0x68>
1000307c:	ab04      	add	r3, sp, #16
1000307e:	799b      	ldrb	r3, [r3, #6]
10003080:	2211      	movs	r2, #17
10003082:	421a      	tst	r2, r3
10003084:	d10f      	bne.n	100030a6 <f_open+0x12a>
10003086:	076b      	lsls	r3, r5, #29
10003088:	d5af      	bpl.n	10002fea <f_open+0x6e>
1000308a:	2408      	movs	r4, #8
1000308c:	e00c      	b.n	100030a8 <f_open+0x12c>
1000308e:	2c00      	cmp	r4, #0
10003090:	d10a      	bne.n	100030a8 <f_open+0x12c>
10003092:	ab04      	add	r3, sp, #16
10003094:	799b      	ldrb	r3, [r3, #6]
10003096:	06da      	lsls	r2, r3, #27
10003098:	d443      	bmi.n	10003122 <f_open+0x1a6>
1000309a:	07aa      	lsls	r2, r5, #30
1000309c:	d504      	bpl.n	100030a8 <f_open+0x12c>
1000309e:	07db      	lsls	r3, r3, #31
100030a0:	d502      	bpl.n	100030a8 <f_open+0x12c>
100030a2:	2407      	movs	r4, #7
100030a4:	e00c      	b.n	100030c0 <f_open+0x144>
100030a6:	2407      	movs	r4, #7
100030a8:	2c00      	cmp	r4, #0
100030aa:	d109      	bne.n	100030c0 <f_open+0x144>
100030ac:	0733      	lsls	r3, r6, #28
100030ae:	d502      	bpl.n	100030b6 <f_open+0x13a>
100030b0:	2340      	movs	r3, #64	; 0x40
100030b2:	431e      	orrs	r6, r3
100030b4:	b2f6      	uxtb	r6, r6
100030b6:	9b03      	ldr	r3, [sp, #12]
100030b8:	6b5b      	ldr	r3, [r3, #52]	; 0x34
100030ba:	623b      	str	r3, [r7, #32]
100030bc:	9b0b      	ldr	r3, [sp, #44]	; 0x2c
100030be:	627b      	str	r3, [r7, #36]	; 0x24
100030c0:	2c00      	cmp	r4, #0
100030c2:	d000      	beq.n	100030c6 <f_open+0x14a>
100030c4:	e76f      	b.n	10002fa6 <f_open+0x2a>
100030c6:	9b03      	ldr	r3, [sp, #12]
100030c8:	469a      	mov	sl, r3
100030ca:	9b0b      	ldr	r3, [sp, #44]	; 0x2c
100030cc:	4698      	mov	r8, r3
100030ce:	0019      	movs	r1, r3
100030d0:	4650      	mov	r0, sl
100030d2:	f7fe fb42 	bl	1000175a <ld_clust>
100030d6:	0005      	movs	r5, r0
100030d8:	60b8      	str	r0, [r7, #8]
100030da:	4640      	mov	r0, r8
100030dc:	301c      	adds	r0, #28
100030de:	f7fe fb14 	bl	1000170a <ld_dword>
100030e2:	4680      	mov	r8, r0
100030e4:	60f8      	str	r0, [r7, #12]
100030e6:	4653      	mov	r3, sl
100030e8:	603b      	str	r3, [r7, #0]
100030ea:	88db      	ldrh	r3, [r3, #6]
100030ec:	80bb      	strh	r3, [r7, #4]
100030ee:	743e      	strb	r6, [r7, #16]
100030f0:	2300      	movs	r3, #0
100030f2:	747b      	strb	r3, [r7, #17]
100030f4:	61fb      	str	r3, [r7, #28]
100030f6:	617b      	str	r3, [r7, #20]
100030f8:	3328      	adds	r3, #40	; 0x28
100030fa:	4699      	mov	r9, r3
100030fc:	44b9      	add	r9, r7
100030fe:	2280      	movs	r2, #128	; 0x80
10003100:	0092      	lsls	r2, r2, #2
10003102:	2100      	movs	r1, #0
10003104:	4648      	mov	r0, r9
10003106:	f003 f82f 	bl	10006168 <__wrap_memset>
1000310a:	06b3      	lsls	r3, r6, #26
1000310c:	d400      	bmi.n	10003110 <f_open+0x194>
1000310e:	e74a      	b.n	10002fa6 <f_open+0x2a>
10003110:	4643      	mov	r3, r8
10003112:	2b00      	cmp	r3, #0
10003114:	d100      	bne.n	10003118 <f_open+0x19c>
10003116:	e746      	b.n	10002fa6 <f_open+0x2a>
10003118:	617b      	str	r3, [r7, #20]
1000311a:	4653      	mov	r3, sl
1000311c:	895e      	ldrh	r6, [r3, #10]
1000311e:	0276      	lsls	r6, r6, #9
10003120:	e006      	b.n	10003130 <f_open+0x1b4>
10003122:	2404      	movs	r4, #4
10003124:	e7cc      	b.n	100030c0 <f_open+0x144>
10003126:	1c6b      	adds	r3, r5, #1
10003128:	d00f      	beq.n	1000314a <f_open+0x1ce>
1000312a:	4643      	mov	r3, r8
1000312c:	1b9b      	subs	r3, r3, r6
1000312e:	4698      	mov	r8, r3
10003130:	2c00      	cmp	r4, #0
10003132:	d10c      	bne.n	1000314e <f_open+0x1d2>
10003134:	45b0      	cmp	r8, r6
10003136:	d90a      	bls.n	1000314e <f_open+0x1d2>
10003138:	0029      	movs	r1, r5
1000313a:	0038      	movs	r0, r7
1000313c:	f7fe ff38 	bl	10001fb0 <get_fat>
10003140:	0005      	movs	r5, r0
10003142:	2801      	cmp	r0, #1
10003144:	d8ef      	bhi.n	10003126 <f_open+0x1aa>
10003146:	2402      	movs	r4, #2
10003148:	e7ed      	b.n	10003126 <f_open+0x1aa>
1000314a:	2401      	movs	r4, #1
1000314c:	e7ed      	b.n	1000312a <f_open+0x1ae>
1000314e:	61bd      	str	r5, [r7, #24]
10003150:	2c00      	cmp	r4, #0
10003152:	d000      	beq.n	10003156 <f_open+0x1da>
10003154:	e727      	b.n	10002fa6 <f_open+0x2a>
10003156:	4643      	mov	r3, r8
10003158:	05db      	lsls	r3, r3, #23
1000315a:	d100      	bne.n	1000315e <f_open+0x1e2>
1000315c:	e723      	b.n	10002fa6 <f_open+0x2a>
1000315e:	9e03      	ldr	r6, [sp, #12]
10003160:	0029      	movs	r1, r5
10003162:	0030      	movs	r0, r6
10003164:	f7fe faed 	bl	10001742 <clst2sect>
10003168:	2800      	cmp	r0, #0
1000316a:	d101      	bne.n	10003170 <f_open+0x1f4>
1000316c:	2402      	movs	r4, #2
1000316e:	e71c      	b.n	10002faa <f_open+0x2e>
10003170:	4643      	mov	r3, r8
10003172:	0a5a      	lsrs	r2, r3, #9
10003174:	1812      	adds	r2, r2, r0
10003176:	61fa      	str	r2, [r7, #28]
10003178:	7870      	ldrb	r0, [r6, #1]
1000317a:	2301      	movs	r3, #1
1000317c:	4649      	mov	r1, r9
1000317e:	f7fe f969 	bl	10001454 <disk_read>
10003182:	2800      	cmp	r0, #0
10003184:	d100      	bne.n	10003188 <f_open+0x20c>
10003186:	e70e      	b.n	10002fa6 <f_open+0x2a>
10003188:	2401      	movs	r4, #1
1000318a:	e70e      	b.n	10002faa <f_open+0x2e>
1000318c:	2409      	movs	r4, #9
1000318e:	e70e      	b.n	10002fae <f_open+0x32>
10003190:	54210000 	.word	0x54210000

10003194 <f_read>:
10003194:	b5f0      	push	{r4, r5, r6, r7, lr}
10003196:	46de      	mov	lr, fp
10003198:	4657      	mov	r7, sl
1000319a:	464e      	mov	r6, r9
1000319c:	4645      	mov	r5, r8
1000319e:	b5e0      	push	{r5, r6, r7, lr}
100031a0:	b085      	sub	sp, #20
100031a2:	0004      	movs	r4, r0
100031a4:	000e      	movs	r6, r1
100031a6:	0017      	movs	r7, r2
100031a8:	4698      	mov	r8, r3
100031aa:	2300      	movs	r3, #0
100031ac:	4642      	mov	r2, r8
100031ae:	6013      	str	r3, [r2, #0]
100031b0:	a903      	add	r1, sp, #12
100031b2:	f7fe fbc7 	bl	10001944 <validate>
100031b6:	4681      	mov	r9, r0
100031b8:	2800      	cmp	r0, #0
100031ba:	d000      	beq.n	100031be <f_read+0x2a>
100031bc:	e09f      	b.n	100032fe <f_read+0x16a>
100031be:	7c63      	ldrb	r3, [r4, #17]
100031c0:	4699      	mov	r9, r3
100031c2:	2b00      	cmp	r3, #0
100031c4:	d000      	beq.n	100031c8 <f_read+0x34>
100031c6:	e09a      	b.n	100032fe <f_read+0x16a>
100031c8:	7c23      	ldrb	r3, [r4, #16]
100031ca:	07db      	lsls	r3, r3, #31
100031cc:	d400      	bmi.n	100031d0 <f_read+0x3c>
100031ce:	e0b4      	b.n	1000333a <f_read+0x1a6>
100031d0:	68e3      	ldr	r3, [r4, #12]
100031d2:	6962      	ldr	r2, [r4, #20]
100031d4:	1a9d      	subs	r5, r3, r2
100031d6:	42bd      	cmp	r5, r7
100031d8:	d355      	bcc.n	10003286 <f_read+0xf2>
100031da:	003d      	movs	r5, r7
100031dc:	e053      	b.n	10003286 <f_read+0xf2>
100031de:	69a1      	ldr	r1, [r4, #24]
100031e0:	0020      	movs	r0, r4
100031e2:	f7fe fee5 	bl	10001fb0 <get_fat>
100031e6:	e05f      	b.n	100032a8 <f_read+0x114>
100031e8:	2302      	movs	r3, #2
100031ea:	7463      	strb	r3, [r4, #17]
100031ec:	4699      	mov	r9, r3
100031ee:	e086      	b.n	100032fe <f_read+0x16a>
100031f0:	2301      	movs	r3, #1
100031f2:	7463      	strb	r3, [r4, #17]
100031f4:	4699      	mov	r9, r3
100031f6:	e082      	b.n	100032fe <f_read+0x16a>
100031f8:	2302      	movs	r3, #2
100031fa:	7463      	strb	r3, [r4, #17]
100031fc:	4699      	mov	r9, r3
100031fe:	e07e      	b.n	100032fe <f_read+0x16a>
10003200:	2310      	movs	r3, #16
10003202:	56e3      	ldrsb	r3, [r4, r3]
10003204:	2b00      	cmp	r3, #0
10003206:	db02      	blt.n	1000320e <f_read+0x7a>
10003208:	9b01      	ldr	r3, [sp, #4]
1000320a:	025f      	lsls	r7, r3, #9
1000320c:	e030      	b.n	10003270 <f_read+0xdc>
1000320e:	69e3      	ldr	r3, [r4, #28]
10003210:	1bdf      	subs	r7, r3, r7
10003212:	9b01      	ldr	r3, [sp, #4]
10003214:	429f      	cmp	r7, r3
10003216:	d2f7      	bcs.n	10003208 <f_read+0x74>
10003218:	0278      	lsls	r0, r7, #9
1000321a:	1830      	adds	r0, r6, r0
1000321c:	0021      	movs	r1, r4
1000321e:	3128      	adds	r1, #40	; 0x28
10003220:	2280      	movs	r2, #128	; 0x80
10003222:	0092      	lsls	r2, r2, #2
10003224:	f002 ffa6 	bl	10006174 <__wrap___aeabi_memcpy>
10003228:	e7ee      	b.n	10003208 <f_read+0x74>
1000322a:	69e2      	ldr	r2, [r4, #28]
1000322c:	4282      	cmp	r2, r0
1000322e:	d00e      	beq.n	1000324e <f_read+0xba>
10003230:	2310      	movs	r3, #16
10003232:	56e3      	ldrsb	r3, [r4, r3]
10003234:	2b00      	cmp	r3, #0
10003236:	db6a      	blt.n	1000330e <f_read+0x17a>
10003238:	0021      	movs	r1, r4
1000323a:	3128      	adds	r1, #40	; 0x28
1000323c:	9b03      	ldr	r3, [sp, #12]
1000323e:	7858      	ldrb	r0, [r3, #1]
10003240:	2301      	movs	r3, #1
10003242:	003a      	movs	r2, r7
10003244:	f7fe f906 	bl	10001454 <disk_read>
10003248:	2800      	cmp	r0, #0
1000324a:	d000      	beq.n	1000324e <f_read+0xba>
1000324c:	e071      	b.n	10003332 <f_read+0x19e>
1000324e:	61e7      	str	r7, [r4, #28]
10003250:	6963      	ldr	r3, [r4, #20]
10003252:	05d9      	lsls	r1, r3, #23
10003254:	0dc9      	lsrs	r1, r1, #23
10003256:	2780      	movs	r7, #128	; 0x80
10003258:	00bf      	lsls	r7, r7, #2
1000325a:	1a7f      	subs	r7, r7, r1
1000325c:	42bd      	cmp	r5, r7
1000325e:	d200      	bcs.n	10003262 <f_read+0xce>
10003260:	002f      	movs	r7, r5
10003262:	0023      	movs	r3, r4
10003264:	3328      	adds	r3, #40	; 0x28
10003266:	1859      	adds	r1, r3, r1
10003268:	003a      	movs	r2, r7
1000326a:	0030      	movs	r0, r6
1000326c:	f002 ff82 	bl	10006174 <__wrap___aeabi_memcpy>
10003270:	1bed      	subs	r5, r5, r7
10003272:	4643      	mov	r3, r8
10003274:	681b      	ldr	r3, [r3, #0]
10003276:	19db      	adds	r3, r3, r7
10003278:	4642      	mov	r2, r8
1000327a:	6013      	str	r3, [r2, #0]
1000327c:	19f6      	adds	r6, r6, r7
1000327e:	6963      	ldr	r3, [r4, #20]
10003280:	469c      	mov	ip, r3
10003282:	4467      	add	r7, ip
10003284:	6167      	str	r7, [r4, #20]
10003286:	2d00      	cmp	r5, #0
10003288:	d039      	beq.n	100032fe <f_read+0x16a>
1000328a:	6963      	ldr	r3, [r4, #20]
1000328c:	05da      	lsls	r2, r3, #23
1000328e:	d1df      	bne.n	10003250 <f_read+0xbc>
10003290:	0a5a      	lsrs	r2, r3, #9
10003292:	9903      	ldr	r1, [sp, #12]
10003294:	8949      	ldrh	r1, [r1, #10]
10003296:	3901      	subs	r1, #1
10003298:	0008      	movs	r0, r1
1000329a:	4010      	ands	r0, r2
1000329c:	4683      	mov	fp, r0
1000329e:	4211      	tst	r1, r2
100032a0:	d107      	bne.n	100032b2 <f_read+0x11e>
100032a2:	2b00      	cmp	r3, #0
100032a4:	d19b      	bne.n	100031de <f_read+0x4a>
100032a6:	68a0      	ldr	r0, [r4, #8]
100032a8:	2801      	cmp	r0, #1
100032aa:	d99d      	bls.n	100031e8 <f_read+0x54>
100032ac:	1c43      	adds	r3, r0, #1
100032ae:	d09f      	beq.n	100031f0 <f_read+0x5c>
100032b0:	61a0      	str	r0, [r4, #24]
100032b2:	9b03      	ldr	r3, [sp, #12]
100032b4:	469a      	mov	sl, r3
100032b6:	69a1      	ldr	r1, [r4, #24]
100032b8:	0018      	movs	r0, r3
100032ba:	f7fe fa42 	bl	10001742 <clst2sect>
100032be:	2800      	cmp	r0, #0
100032c0:	d09a      	beq.n	100031f8 <f_read+0x64>
100032c2:	4458      	add	r0, fp
100032c4:	0007      	movs	r7, r0
100032c6:	0a6a      	lsrs	r2, r5, #9
100032c8:	9201      	str	r2, [sp, #4]
100032ca:	2380      	movs	r3, #128	; 0x80
100032cc:	009b      	lsls	r3, r3, #2
100032ce:	429d      	cmp	r5, r3
100032d0:	d3ab      	bcc.n	1000322a <f_read+0x96>
100032d2:	0013      	movs	r3, r2
100032d4:	445b      	add	r3, fp
100032d6:	4652      	mov	r2, sl
100032d8:	8952      	ldrh	r2, [r2, #10]
100032da:	4293      	cmp	r3, r2
100032dc:	d902      	bls.n	100032e4 <f_read+0x150>
100032de:	465b      	mov	r3, fp
100032e0:	1ad3      	subs	r3, r2, r3
100032e2:	9301      	str	r3, [sp, #4]
100032e4:	4653      	mov	r3, sl
100032e6:	7858      	ldrb	r0, [r3, #1]
100032e8:	9b01      	ldr	r3, [sp, #4]
100032ea:	003a      	movs	r2, r7
100032ec:	0031      	movs	r1, r6
100032ee:	f7fe f8b1 	bl	10001454 <disk_read>
100032f2:	2800      	cmp	r0, #0
100032f4:	d100      	bne.n	100032f8 <f_read+0x164>
100032f6:	e783      	b.n	10003200 <f_read+0x6c>
100032f8:	2301      	movs	r3, #1
100032fa:	7463      	strb	r3, [r4, #17]
100032fc:	4699      	mov	r9, r3
100032fe:	4648      	mov	r0, r9
10003300:	b005      	add	sp, #20
10003302:	bcf0      	pop	{r4, r5, r6, r7}
10003304:	46bb      	mov	fp, r7
10003306:	46b2      	mov	sl, r6
10003308:	46a9      	mov	r9, r5
1000330a:	46a0      	mov	r8, r4
1000330c:	bdf0      	pop	{r4, r5, r6, r7, pc}
1000330e:	0021      	movs	r1, r4
10003310:	3128      	adds	r1, #40	; 0x28
10003312:	4653      	mov	r3, sl
10003314:	7858      	ldrb	r0, [r3, #1]
10003316:	2301      	movs	r3, #1
10003318:	f7fe f8ba 	bl	10001490 <disk_write>
1000331c:	2800      	cmp	r0, #0
1000331e:	d104      	bne.n	1000332a <f_read+0x196>
10003320:	7c22      	ldrb	r2, [r4, #16]
10003322:	237f      	movs	r3, #127	; 0x7f
10003324:	4013      	ands	r3, r2
10003326:	7423      	strb	r3, [r4, #16]
10003328:	e786      	b.n	10003238 <f_read+0xa4>
1000332a:	2301      	movs	r3, #1
1000332c:	7463      	strb	r3, [r4, #17]
1000332e:	4699      	mov	r9, r3
10003330:	e7e5      	b.n	100032fe <f_read+0x16a>
10003332:	2301      	movs	r3, #1
10003334:	7463      	strb	r3, [r4, #17]
10003336:	4699      	mov	r9, r3
10003338:	e7e1      	b.n	100032fe <f_read+0x16a>
1000333a:	2307      	movs	r3, #7
1000333c:	4699      	mov	r9, r3
1000333e:	e7de      	b.n	100032fe <f_read+0x16a>

10003340 <f_write>:
10003340:	b5f0      	push	{r4, r5, r6, r7, lr}
10003342:	46de      	mov	lr, fp
10003344:	4657      	mov	r7, sl
10003346:	464e      	mov	r6, r9
10003348:	4645      	mov	r5, r8
1000334a:	b5e0      	push	{r5, r6, r7, lr}
1000334c:	b085      	sub	sp, #20
1000334e:	0004      	movs	r4, r0
10003350:	000e      	movs	r6, r1
10003352:	0015      	movs	r5, r2
10003354:	4698      	mov	r8, r3
10003356:	2300      	movs	r3, #0
10003358:	4642      	mov	r2, r8
1000335a:	6013      	str	r3, [r2, #0]
1000335c:	a903      	add	r1, sp, #12
1000335e:	f7fe faf1 	bl	10001944 <validate>
10003362:	4681      	mov	r9, r0
10003364:	2800      	cmp	r0, #0
10003366:	d000      	beq.n	1000336a <f_write+0x2a>
10003368:	e0c4      	b.n	100034f4 <f_write+0x1b4>
1000336a:	7c63      	ldrb	r3, [r4, #17]
1000336c:	4699      	mov	r9, r3
1000336e:	2b00      	cmp	r3, #0
10003370:	d000      	beq.n	10003374 <f_write+0x34>
10003372:	e0bf      	b.n	100034f4 <f_write+0x1b4>
10003374:	7c23      	ldrb	r3, [r4, #16]
10003376:	079b      	lsls	r3, r3, #30
10003378:	d400      	bmi.n	1000337c <f_write+0x3c>
1000337a:	e0d7      	b.n	1000352c <f_write+0x1ec>
1000337c:	6963      	ldr	r3, [r4, #20]
1000337e:	195a      	adds	r2, r3, r5
10003380:	4293      	cmp	r3, r2
10003382:	d96d      	bls.n	10003460 <f_write+0x120>
10003384:	43dd      	mvns	r5, r3
10003386:	e06b      	b.n	10003460 <f_write+0x120>
10003388:	2100      	movs	r1, #0
1000338a:	0020      	movs	r0, r4
1000338c:	f7fe fedb 	bl	10002146 <create_chain>
10003390:	e07a      	b.n	10003488 <f_write+0x148>
10003392:	69a1      	ldr	r1, [r4, #24]
10003394:	0020      	movs	r0, r4
10003396:	f7fe fed6 	bl	10002146 <create_chain>
1000339a:	e075      	b.n	10003488 <f_write+0x148>
1000339c:	2302      	movs	r3, #2
1000339e:	7463      	strb	r3, [r4, #17]
100033a0:	4699      	mov	r9, r3
100033a2:	e0a7      	b.n	100034f4 <f_write+0x1b4>
100033a4:	2301      	movs	r3, #1
100033a6:	7463      	strb	r3, [r4, #17]
100033a8:	4699      	mov	r9, r3
100033aa:	e0a3      	b.n	100034f4 <f_write+0x1b4>
100033ac:	0021      	movs	r1, r4
100033ae:	3128      	adds	r1, #40	; 0x28
100033b0:	9b03      	ldr	r3, [sp, #12]
100033b2:	7858      	ldrb	r0, [r3, #1]
100033b4:	2301      	movs	r3, #1
100033b6:	69e2      	ldr	r2, [r4, #28]
100033b8:	f7fe f86a 	bl	10001490 <disk_write>
100033bc:	2800      	cmp	r0, #0
100033be:	d104      	bne.n	100033ca <f_write+0x8a>
100033c0:	7c22      	ldrb	r2, [r4, #16]
100033c2:	237f      	movs	r3, #127	; 0x7f
100033c4:	4013      	ands	r3, r2
100033c6:	7423      	strb	r3, [r4, #16]
100033c8:	e06e      	b.n	100034a8 <f_write+0x168>
100033ca:	2301      	movs	r3, #1
100033cc:	7463      	strb	r3, [r4, #17]
100033ce:	4699      	mov	r9, r3
100033d0:	e090      	b.n	100034f4 <f_write+0x1b4>
100033d2:	2302      	movs	r3, #2
100033d4:	7463      	strb	r3, [r4, #17]
100033d6:	4699      	mov	r9, r3
100033d8:	e08c      	b.n	100034f4 <f_write+0x1b4>
100033da:	69e3      	ldr	r3, [r4, #28]
100033dc:	1bdf      	subs	r7, r3, r7
100033de:	9b01      	ldr	r3, [sp, #4]
100033e0:	429f      	cmp	r7, r3
100033e2:	d302      	bcc.n	100033ea <f_write+0xaa>
100033e4:	9b01      	ldr	r3, [sp, #4]
100033e6:	025f      	lsls	r7, r3, #9
100033e8:	e02a      	b.n	10003440 <f_write+0x100>
100033ea:	0020      	movs	r0, r4
100033ec:	3028      	adds	r0, #40	; 0x28
100033ee:	0279      	lsls	r1, r7, #9
100033f0:	1871      	adds	r1, r6, r1
100033f2:	2280      	movs	r2, #128	; 0x80
100033f4:	0092      	lsls	r2, r2, #2
100033f6:	f002 febd 	bl	10006174 <__wrap___aeabi_memcpy>
100033fa:	7c22      	ldrb	r2, [r4, #16]
100033fc:	237f      	movs	r3, #127	; 0x7f
100033fe:	4013      	ands	r3, r2
10003400:	7423      	strb	r3, [r4, #16]
10003402:	e7ef      	b.n	100033e4 <f_write+0xa4>
10003404:	69e3      	ldr	r3, [r4, #28]
10003406:	4283      	cmp	r3, r0
10003408:	d004      	beq.n	10003414 <f_write+0xd4>
1000340a:	6963      	ldr	r3, [r4, #20]
1000340c:	68e2      	ldr	r2, [r4, #12]
1000340e:	4293      	cmp	r3, r2
10003410:	d200      	bcs.n	10003414 <f_write+0xd4>
10003412:	e077      	b.n	10003504 <f_write+0x1c4>
10003414:	61e7      	str	r7, [r4, #28]
10003416:	6963      	ldr	r3, [r4, #20]
10003418:	05d8      	lsls	r0, r3, #23
1000341a:	0dc0      	lsrs	r0, r0, #23
1000341c:	2780      	movs	r7, #128	; 0x80
1000341e:	00bf      	lsls	r7, r7, #2
10003420:	1a3f      	subs	r7, r7, r0
10003422:	42bd      	cmp	r5, r7
10003424:	d200      	bcs.n	10003428 <f_write+0xe8>
10003426:	002f      	movs	r7, r5
10003428:	0023      	movs	r3, r4
1000342a:	3328      	adds	r3, #40	; 0x28
1000342c:	1818      	adds	r0, r3, r0
1000342e:	003a      	movs	r2, r7
10003430:	0031      	movs	r1, r6
10003432:	f002 fe9f 	bl	10006174 <__wrap___aeabi_memcpy>
10003436:	7c22      	ldrb	r2, [r4, #16]
10003438:	2380      	movs	r3, #128	; 0x80
1000343a:	425b      	negs	r3, r3
1000343c:	4313      	orrs	r3, r2
1000343e:	7423      	strb	r3, [r4, #16]
10003440:	1bed      	subs	r5, r5, r7
10003442:	4643      	mov	r3, r8
10003444:	681b      	ldr	r3, [r3, #0]
10003446:	19db      	adds	r3, r3, r7
10003448:	4642      	mov	r2, r8
1000344a:	6013      	str	r3, [r2, #0]
1000344c:	19f6      	adds	r6, r6, r7
1000344e:	6963      	ldr	r3, [r4, #20]
10003450:	469c      	mov	ip, r3
10003452:	4467      	add	r7, ip
10003454:	6167      	str	r7, [r4, #20]
10003456:	68e3      	ldr	r3, [r4, #12]
10003458:	429f      	cmp	r7, r3
1000345a:	d200      	bcs.n	1000345e <f_write+0x11e>
1000345c:	001f      	movs	r7, r3
1000345e:	60e7      	str	r7, [r4, #12]
10003460:	2d00      	cmp	r5, #0
10003462:	d05e      	beq.n	10003522 <f_write+0x1e2>
10003464:	6963      	ldr	r3, [r4, #20]
10003466:	05da      	lsls	r2, r3, #23
10003468:	d1d5      	bne.n	10003416 <f_write+0xd6>
1000346a:	0a5a      	lsrs	r2, r3, #9
1000346c:	9903      	ldr	r1, [sp, #12]
1000346e:	8949      	ldrh	r1, [r1, #10]
10003470:	3901      	subs	r1, #1
10003472:	0008      	movs	r0, r1
10003474:	4010      	ands	r0, r2
10003476:	4683      	mov	fp, r0
10003478:	4211      	tst	r1, r2
1000347a:	d110      	bne.n	1000349e <f_write+0x15e>
1000347c:	2b00      	cmp	r3, #0
1000347e:	d188      	bne.n	10003392 <f_write+0x52>
10003480:	68a0      	ldr	r0, [r4, #8]
10003482:	2800      	cmp	r0, #0
10003484:	d100      	bne.n	10003488 <f_write+0x148>
10003486:	e77f      	b.n	10003388 <f_write+0x48>
10003488:	2800      	cmp	r0, #0
1000348a:	d04a      	beq.n	10003522 <f_write+0x1e2>
1000348c:	2801      	cmp	r0, #1
1000348e:	d085      	beq.n	1000339c <f_write+0x5c>
10003490:	1c43      	adds	r3, r0, #1
10003492:	d087      	beq.n	100033a4 <f_write+0x64>
10003494:	61a0      	str	r0, [r4, #24]
10003496:	68a3      	ldr	r3, [r4, #8]
10003498:	2b00      	cmp	r3, #0
1000349a:	d100      	bne.n	1000349e <f_write+0x15e>
1000349c:	60a0      	str	r0, [r4, #8]
1000349e:	2310      	movs	r3, #16
100034a0:	56e3      	ldrsb	r3, [r4, r3]
100034a2:	2b00      	cmp	r3, #0
100034a4:	da00      	bge.n	100034a8 <f_write+0x168>
100034a6:	e781      	b.n	100033ac <f_write+0x6c>
100034a8:	9b03      	ldr	r3, [sp, #12]
100034aa:	469a      	mov	sl, r3
100034ac:	69a1      	ldr	r1, [r4, #24]
100034ae:	0018      	movs	r0, r3
100034b0:	f7fe f947 	bl	10001742 <clst2sect>
100034b4:	2800      	cmp	r0, #0
100034b6:	d08c      	beq.n	100033d2 <f_write+0x92>
100034b8:	4458      	add	r0, fp
100034ba:	0007      	movs	r7, r0
100034bc:	0a6a      	lsrs	r2, r5, #9
100034be:	9201      	str	r2, [sp, #4]
100034c0:	2380      	movs	r3, #128	; 0x80
100034c2:	009b      	lsls	r3, r3, #2
100034c4:	429d      	cmp	r5, r3
100034c6:	d39d      	bcc.n	10003404 <f_write+0xc4>
100034c8:	0013      	movs	r3, r2
100034ca:	445b      	add	r3, fp
100034cc:	4652      	mov	r2, sl
100034ce:	8952      	ldrh	r2, [r2, #10]
100034d0:	4293      	cmp	r3, r2
100034d2:	d902      	bls.n	100034da <f_write+0x19a>
100034d4:	465b      	mov	r3, fp
100034d6:	1ad3      	subs	r3, r2, r3
100034d8:	9301      	str	r3, [sp, #4]
100034da:	4653      	mov	r3, sl
100034dc:	7858      	ldrb	r0, [r3, #1]
100034de:	9b01      	ldr	r3, [sp, #4]
100034e0:	003a      	movs	r2, r7
100034e2:	0031      	movs	r1, r6
100034e4:	f7fd ffd4 	bl	10001490 <disk_write>
100034e8:	2800      	cmp	r0, #0
100034ea:	d100      	bne.n	100034ee <f_write+0x1ae>
100034ec:	e775      	b.n	100033da <f_write+0x9a>
100034ee:	2301      	movs	r3, #1
100034f0:	7463      	strb	r3, [r4, #17]
100034f2:	4699      	mov	r9, r3
100034f4:	4648      	mov	r0, r9
100034f6:	b005      	add	sp, #20
100034f8:	bcf0      	pop	{r4, r5, r6, r7}
100034fa:	46bb      	mov	fp, r7
100034fc:	46b2      	mov	sl, r6
100034fe:	46a9      	mov	r9, r5
10003500:	46a0      	mov	r8, r4
10003502:	bdf0      	pop	{r4, r5, r6, r7, pc}
10003504:	0021      	movs	r1, r4
10003506:	3128      	adds	r1, #40	; 0x28
10003508:	4653      	mov	r3, sl
1000350a:	7858      	ldrb	r0, [r3, #1]
1000350c:	2301      	movs	r3, #1
1000350e:	003a      	movs	r2, r7
10003510:	f7fd ffa0 	bl	10001454 <disk_read>
10003514:	2800      	cmp	r0, #0
10003516:	d100      	bne.n	1000351a <f_write+0x1da>
10003518:	e77c      	b.n	10003414 <f_write+0xd4>
1000351a:	2301      	movs	r3, #1
1000351c:	7463      	strb	r3, [r4, #17]
1000351e:	4699      	mov	r9, r3
10003520:	e7e8      	b.n	100034f4 <f_write+0x1b4>
10003522:	7c23      	ldrb	r3, [r4, #16]
10003524:	2240      	movs	r2, #64	; 0x40
10003526:	4313      	orrs	r3, r2
10003528:	7423      	strb	r3, [r4, #16]
1000352a:	e7e3      	b.n	100034f4 <f_write+0x1b4>
1000352c:	2307      	movs	r3, #7
1000352e:	4699      	mov	r9, r3
10003530:	e7e0      	b.n	100034f4 <f_write+0x1b4>
	...

10003534 <f_sync>:
10003534:	b530      	push	{r4, r5, lr}
10003536:	b083      	sub	sp, #12
10003538:	0004      	movs	r4, r0
1000353a:	a901      	add	r1, sp, #4
1000353c:	f7fe fa02 	bl	10001944 <validate>
10003540:	2800      	cmp	r0, #0
10003542:	d10b      	bne.n	1000355c <f_sync+0x28>
10003544:	7c23      	ldrb	r3, [r4, #16]
10003546:	065a      	lsls	r2, r3, #25
10003548:	d508      	bpl.n	1000355c <f_sync+0x28>
1000354a:	b25b      	sxtb	r3, r3
1000354c:	2b00      	cmp	r3, #0
1000354e:	db07      	blt.n	10003560 <f_sync+0x2c>
10003550:	6a21      	ldr	r1, [r4, #32]
10003552:	9801      	ldr	r0, [sp, #4]
10003554:	f7fe fa44 	bl	100019e0 <move_window>
10003558:	2800      	cmp	r0, #0
1000355a:	d010      	beq.n	1000357e <f_sync+0x4a>
1000355c:	b003      	add	sp, #12
1000355e:	bd30      	pop	{r4, r5, pc}
10003560:	0021      	movs	r1, r4
10003562:	3128      	adds	r1, #40	; 0x28
10003564:	9b01      	ldr	r3, [sp, #4]
10003566:	7858      	ldrb	r0, [r3, #1]
10003568:	2301      	movs	r3, #1
1000356a:	69e2      	ldr	r2, [r4, #28]
1000356c:	f7fd ff90 	bl	10001490 <disk_write>
10003570:	2800      	cmp	r0, #0
10003572:	d128      	bne.n	100035c6 <f_sync+0x92>
10003574:	7c22      	ldrb	r2, [r4, #16]
10003576:	237f      	movs	r3, #127	; 0x7f
10003578:	4013      	ands	r3, r2
1000357a:	7423      	strb	r3, [r4, #16]
1000357c:	e7e8      	b.n	10003550 <f_sync+0x1c>
1000357e:	6a65      	ldr	r5, [r4, #36]	; 0x24
10003580:	7aeb      	ldrb	r3, [r5, #11]
10003582:	2220      	movs	r2, #32
10003584:	4313      	orrs	r3, r2
10003586:	72eb      	strb	r3, [r5, #11]
10003588:	68a2      	ldr	r2, [r4, #8]
1000358a:	0029      	movs	r1, r5
1000358c:	6820      	ldr	r0, [r4, #0]
1000358e:	f7fe f8f7 	bl	10001780 <st_clust>
10003592:	0028      	movs	r0, r5
10003594:	301c      	adds	r0, #28
10003596:	68e1      	ldr	r1, [r4, #12]
10003598:	f7fe f8c7 	bl	1000172a <st_dword>
1000359c:	0028      	movs	r0, r5
1000359e:	3016      	adds	r0, #22
100035a0:	490a      	ldr	r1, [pc, #40]	; (100035cc <f_sync+0x98>)
100035a2:	f7fe f8c2 	bl	1000172a <st_dword>
100035a6:	0028      	movs	r0, r5
100035a8:	3012      	adds	r0, #18
100035aa:	2100      	movs	r1, #0
100035ac:	f7fe f8b9 	bl	10001722 <st_word>
100035b0:	2301      	movs	r3, #1
100035b2:	9a01      	ldr	r2, [sp, #4]
100035b4:	7113      	strb	r3, [r2, #4]
100035b6:	0010      	movs	r0, r2
100035b8:	f7ff fc66 	bl	10002e88 <sync_fs>
100035bc:	7c23      	ldrb	r3, [r4, #16]
100035be:	2240      	movs	r2, #64	; 0x40
100035c0:	4393      	bics	r3, r2
100035c2:	7423      	strb	r3, [r4, #16]
100035c4:	e7ca      	b.n	1000355c <f_sync+0x28>
100035c6:	2001      	movs	r0, #1
100035c8:	e7c8      	b.n	1000355c <f_sync+0x28>
100035ca:	46c0      	nop			; (mov r8, r8)
100035cc:	54210000 	.word	0x54210000

100035d0 <f_close>:
100035d0:	b510      	push	{r4, lr}
100035d2:	b082      	sub	sp, #8
100035d4:	0004      	movs	r4, r0
100035d6:	f7ff ffad 	bl	10003534 <f_sync>
100035da:	2800      	cmp	r0, #0
100035dc:	d001      	beq.n	100035e2 <f_close+0x12>
100035de:	b002      	add	sp, #8
100035e0:	bd10      	pop	{r4, pc}
100035e2:	a901      	add	r1, sp, #4
100035e4:	0020      	movs	r0, r4
100035e6:	f7fe f9ad 	bl	10001944 <validate>
100035ea:	2800      	cmp	r0, #0
100035ec:	d1f7      	bne.n	100035de <f_close+0xe>
100035ee:	2300      	movs	r3, #0
100035f0:	6023      	str	r3, [r4, #0]
100035f2:	e7f4      	b.n	100035de <f_close+0xe>

100035f4 <f_chdir>:
100035f4:	b530      	push	{r4, r5, lr}
100035f6:	b091      	sub	sp, #68	; 0x44
100035f8:	9001      	str	r0, [sp, #4]
100035fa:	2200      	movs	r2, #0
100035fc:	a903      	add	r1, sp, #12
100035fe:	a801      	add	r0, sp, #4
10003600:	f7fe fab0 	bl	10001b64 <mount_volume>
10003604:	1e04      	subs	r4, r0, #0
10003606:	d002      	beq.n	1000360e <f_chdir+0x1a>
10003608:	0020      	movs	r0, r4
1000360a:	b011      	add	sp, #68	; 0x44
1000360c:	bd30      	pop	{r4, r5, pc}
1000360e:	9b03      	ldr	r3, [sp, #12]
10003610:	9304      	str	r3, [sp, #16]
10003612:	9901      	ldr	r1, [sp, #4]
10003614:	a804      	add	r0, sp, #16
10003616:	f7ff fae7 	bl	10002be8 <follow_path>
1000361a:	1e04      	subs	r4, r0, #0
1000361c:	d112      	bne.n	10003644 <f_chdir+0x50>
1000361e:	aa04      	add	r2, sp, #16
10003620:	232b      	movs	r3, #43	; 0x2b
10003622:	56d3      	ldrsb	r3, [r2, r3]
10003624:	2b00      	cmp	r3, #0
10003626:	db0a      	blt.n	1000363e <f_chdir+0x4a>
10003628:	ab04      	add	r3, sp, #16
1000362a:	799b      	ldrb	r3, [r3, #6]
1000362c:	06db      	lsls	r3, r3, #27
1000362e:	d50d      	bpl.n	1000364c <f_chdir+0x58>
10003630:	9d03      	ldr	r5, [sp, #12]
10003632:	990b      	ldr	r1, [sp, #44]	; 0x2c
10003634:	0028      	movs	r0, r5
10003636:	f7fe f890 	bl	1000175a <ld_clust>
1000363a:	61a8      	str	r0, [r5, #24]
1000363c:	e002      	b.n	10003644 <f_chdir+0x50>
1000363e:	9b03      	ldr	r3, [sp, #12]
10003640:	9a06      	ldr	r2, [sp, #24]
10003642:	619a      	str	r2, [r3, #24]
10003644:	2c04      	cmp	r4, #4
10003646:	d1df      	bne.n	10003608 <f_chdir+0x14>
10003648:	2405      	movs	r4, #5
1000364a:	e7dd      	b.n	10003608 <f_chdir+0x14>
1000364c:	2405      	movs	r4, #5
1000364e:	e7db      	b.n	10003608 <f_chdir+0x14>

10003650 <f_getcwd>:
10003650:	b5f0      	push	{r4, r5, r6, r7, lr}
10003652:	46c6      	mov	lr, r8
10003654:	b500      	push	{lr}
10003656:	b0d6      	sub	sp, #344	; 0x158
10003658:	9001      	str	r0, [sp, #4]
1000365a:	4688      	mov	r8, r1
1000365c:	0006      	movs	r6, r0
1000365e:	2300      	movs	r3, #0
10003660:	7003      	strb	r3, [r0, #0]
10003662:	2200      	movs	r2, #0
10003664:	a949      	add	r1, sp, #292	; 0x124
10003666:	a801      	add	r0, sp, #4
10003668:	f7fe fa7c 	bl	10001b64 <mount_volume>
1000366c:	1e04      	subs	r4, r0, #0
1000366e:	d16b      	bne.n	10003748 <f_getcwd+0xf8>
10003670:	9b49      	ldr	r3, [sp, #292]	; 0x124
10003672:	934a      	str	r3, [sp, #296]	; 0x128
10003674:	699b      	ldr	r3, [r3, #24]
10003676:	934c      	str	r3, [sp, #304]	; 0x130
10003678:	4645      	mov	r5, r8
1000367a:	e011      	b.n	100036a0 <f_getcwd+0x50>
1000367c:	1c5a      	adds	r2, r3, #1
1000367e:	42aa      	cmp	r2, r5
10003680:	d908      	bls.n	10003694 <f_getcwd+0x44>
10003682:	2411      	movs	r4, #17
10003684:	e04b      	b.n	1000371e <f_getcwd+0xce>
10003686:	3b01      	subs	r3, #1
10003688:	3d01      	subs	r5, #1
1000368a:	aa03      	add	r2, sp, #12
1000368c:	18d2      	adds	r2, r2, r3
1000368e:	7d92      	ldrb	r2, [r2, #22]
10003690:	9901      	ldr	r1, [sp, #4]
10003692:	554a      	strb	r2, [r1, r5]
10003694:	2b00      	cmp	r3, #0
10003696:	d1f6      	bne.n	10003686 <f_getcwd+0x36>
10003698:	3d01      	subs	r5, #1
1000369a:	332f      	adds	r3, #47	; 0x2f
1000369c:	9a01      	ldr	r2, [sp, #4]
1000369e:	5553      	strb	r3, [r2, r5]
100036a0:	9f4c      	ldr	r7, [sp, #304]	; 0x130
100036a2:	2f00      	cmp	r7, #0
100036a4:	d03b      	beq.n	1000371e <f_getcwd+0xce>
100036a6:	2120      	movs	r1, #32
100036a8:	a84a      	add	r0, sp, #296	; 0x128
100036aa:	f7fe fcf2 	bl	10002092 <dir_sdi>
100036ae:	1e04      	subs	r4, r0, #0
100036b0:	d135      	bne.n	1000371e <f_getcwd+0xce>
100036b2:	9950      	ldr	r1, [sp, #320]	; 0x140
100036b4:	9849      	ldr	r0, [sp, #292]	; 0x124
100036b6:	f7fe f993 	bl	100019e0 <move_window>
100036ba:	1e04      	subs	r4, r0, #0
100036bc:	d12f      	bne.n	1000371e <f_getcwd+0xce>
100036be:	9b51      	ldr	r3, [sp, #324]	; 0x144
100036c0:	9300      	str	r3, [sp, #0]
100036c2:	0019      	movs	r1, r3
100036c4:	9849      	ldr	r0, [sp, #292]	; 0x124
100036c6:	f7fe f848 	bl	1000175a <ld_clust>
100036ca:	904c      	str	r0, [sp, #304]	; 0x130
100036cc:	2100      	movs	r1, #0
100036ce:	a84a      	add	r0, sp, #296	; 0x128
100036d0:	f7fe fcdf 	bl	10002092 <dir_sdi>
100036d4:	1e04      	subs	r4, r0, #0
100036d6:	d122      	bne.n	1000371e <f_getcwd+0xce>
100036d8:	2100      	movs	r1, #0
100036da:	a84a      	add	r0, sp, #296	; 0x128
100036dc:	f7fe feac 	bl	10002438 <dir_read>
100036e0:	1e04      	subs	r4, r0, #0
100036e2:	d10b      	bne.n	100036fc <f_getcwd+0xac>
100036e4:	9951      	ldr	r1, [sp, #324]	; 0x144
100036e6:	9849      	ldr	r0, [sp, #292]	; 0x124
100036e8:	f7fe f837 	bl	1000175a <ld_clust>
100036ec:	42b8      	cmp	r0, r7
100036ee:	d005      	beq.n	100036fc <f_getcwd+0xac>
100036f0:	2100      	movs	r1, #0
100036f2:	a84a      	add	r0, sp, #296	; 0x128
100036f4:	f7fe fe0f 	bl	10002316 <dir_next>
100036f8:	1e04      	subs	r4, r0, #0
100036fa:	d0ed      	beq.n	100036d8 <f_getcwd+0x88>
100036fc:	2c04      	cmp	r4, #4
100036fe:	d00d      	beq.n	1000371c <f_getcwd+0xcc>
10003700:	2c00      	cmp	r4, #0
10003702:	d10c      	bne.n	1000371e <f_getcwd+0xce>
10003704:	a903      	add	r1, sp, #12
10003706:	a84a      	add	r0, sp, #296	; 0x128
10003708:	f7fe ff44 	bl	10002594 <get_fileinfo>
1000370c:	2300      	movs	r3, #0
1000370e:	aa03      	add	r2, sp, #12
10003710:	18d2      	adds	r2, r2, r3
10003712:	7d92      	ldrb	r2, [r2, #22]
10003714:	2a00      	cmp	r2, #0
10003716:	d0b1      	beq.n	1000367c <f_getcwd+0x2c>
10003718:	3301      	adds	r3, #1
1000371a:	e7f8      	b.n	1000370e <f_getcwd+0xbe>
1000371c:	2402      	movs	r4, #2
1000371e:	2c00      	cmp	r4, #0
10003720:	d112      	bne.n	10003748 <f_getcwd+0xf8>
10003722:	4545      	cmp	r5, r8
10003724:	d017      	beq.n	10003756 <f_getcwd+0x106>
10003726:	2d02      	cmp	r5, #2
10003728:	d91a      	bls.n	10003760 <f_getcwd+0x110>
1000372a:	4b0e      	ldr	r3, [pc, #56]	; (10003764 <f_getcwd+0x114>)
1000372c:	781b      	ldrb	r3, [r3, #0]
1000372e:	3330      	adds	r3, #48	; 0x30
10003730:	7033      	strb	r3, [r6, #0]
10003732:	233a      	movs	r3, #58	; 0x3a
10003734:	7073      	strb	r3, [r6, #1]
10003736:	3602      	adds	r6, #2
10003738:	002a      	movs	r2, r5
1000373a:	3501      	adds	r5, #1
1000373c:	9901      	ldr	r1, [sp, #4]
1000373e:	5c8a      	ldrb	r2, [r1, r2]
10003740:	7032      	strb	r2, [r6, #0]
10003742:	3601      	adds	r6, #1
10003744:	45a8      	cmp	r8, r5
10003746:	d8f7      	bhi.n	10003738 <f_getcwd+0xe8>
10003748:	2300      	movs	r3, #0
1000374a:	7033      	strb	r3, [r6, #0]
1000374c:	0020      	movs	r0, r4
1000374e:	b056      	add	sp, #344	; 0x158
10003750:	bc80      	pop	{r7}
10003752:	46b8      	mov	r8, r7
10003754:	bdf0      	pop	{r4, r5, r6, r7, pc}
10003756:	3d01      	subs	r5, #1
10003758:	232f      	movs	r3, #47	; 0x2f
1000375a:	9a01      	ldr	r2, [sp, #4]
1000375c:	5553      	strb	r3, [r2, r5]
1000375e:	e7e2      	b.n	10003726 <f_getcwd+0xd6>
10003760:	2411      	movs	r4, #17
10003762:	e7f1      	b.n	10003748 <f_getcwd+0xf8>
10003764:	20002c6a 	.word	0x20002c6a

10003768 <f_opendir>:
10003768:	b510      	push	{r4, lr}
1000376a:	b084      	sub	sp, #16
1000376c:	1e04      	subs	r4, r0, #0
1000376e:	9101      	str	r1, [sp, #4]
10003770:	d02d      	beq.n	100037ce <f_opendir+0x66>
10003772:	2200      	movs	r2, #0
10003774:	a903      	add	r1, sp, #12
10003776:	a801      	add	r0, sp, #4
10003778:	f7fe f9f4 	bl	10001b64 <mount_volume>
1000377c:	2800      	cmp	r0, #0
1000377e:	d005      	beq.n	1000378c <f_opendir+0x24>
10003780:	2800      	cmp	r0, #0
10003782:	d001      	beq.n	10003788 <f_opendir+0x20>
10003784:	2300      	movs	r3, #0
10003786:	6023      	str	r3, [r4, #0]
10003788:	b004      	add	sp, #16
1000378a:	bd10      	pop	{r4, pc}
1000378c:	9b03      	ldr	r3, [sp, #12]
1000378e:	6023      	str	r3, [r4, #0]
10003790:	9901      	ldr	r1, [sp, #4]
10003792:	0020      	movs	r0, r4
10003794:	f7ff fa28 	bl	10002be8 <follow_path>
10003798:	2800      	cmp	r0, #0
1000379a:	d112      	bne.n	100037c2 <f_opendir+0x5a>
1000379c:	232b      	movs	r3, #43	; 0x2b
1000379e:	56e3      	ldrsb	r3, [r4, r3]
100037a0:	2b00      	cmp	r3, #0
100037a2:	db07      	blt.n	100037b4 <f_opendir+0x4c>
100037a4:	79a3      	ldrb	r3, [r4, #6]
100037a6:	06db      	lsls	r3, r3, #27
100037a8:	d50f      	bpl.n	100037ca <f_opendir+0x62>
100037aa:	69e1      	ldr	r1, [r4, #28]
100037ac:	9803      	ldr	r0, [sp, #12]
100037ae:	f7fd ffd4 	bl	1000175a <ld_clust>
100037b2:	60a0      	str	r0, [r4, #8]
100037b4:	9b03      	ldr	r3, [sp, #12]
100037b6:	88db      	ldrh	r3, [r3, #6]
100037b8:	80a3      	strh	r3, [r4, #4]
100037ba:	2100      	movs	r1, #0
100037bc:	0020      	movs	r0, r4
100037be:	f7fe fc68 	bl	10002092 <dir_sdi>
100037c2:	2804      	cmp	r0, #4
100037c4:	d1dc      	bne.n	10003780 <f_opendir+0x18>
100037c6:	2005      	movs	r0, #5
100037c8:	e7dc      	b.n	10003784 <f_opendir+0x1c>
100037ca:	2005      	movs	r0, #5
100037cc:	e7f9      	b.n	100037c2 <f_opendir+0x5a>
100037ce:	2009      	movs	r0, #9
100037d0:	e7da      	b.n	10003788 <f_opendir+0x20>

100037d2 <f_closedir>:
100037d2:	b510      	push	{r4, lr}
100037d4:	b082      	sub	sp, #8
100037d6:	0004      	movs	r4, r0
100037d8:	a901      	add	r1, sp, #4
100037da:	f7fe f8b3 	bl	10001944 <validate>
100037de:	2800      	cmp	r0, #0
100037e0:	d101      	bne.n	100037e6 <f_closedir+0x14>
100037e2:	2300      	movs	r3, #0
100037e4:	6023      	str	r3, [r4, #0]
100037e6:	b002      	add	sp, #8
100037e8:	bd10      	pop	{r4, pc}

100037ea <f_readdir>:
100037ea:	b570      	push	{r4, r5, r6, lr}
100037ec:	b082      	sub	sp, #8
100037ee:	0005      	movs	r5, r0
100037f0:	000e      	movs	r6, r1
100037f2:	a901      	add	r1, sp, #4
100037f4:	f7fe f8a6 	bl	10001944 <validate>
100037f8:	1e04      	subs	r4, r0, #0
100037fa:	d11a      	bne.n	10003832 <f_readdir+0x48>
100037fc:	2e00      	cmp	r6, #0
100037fe:	d013      	beq.n	10003828 <f_readdir+0x3e>
10003800:	2100      	movs	r1, #0
10003802:	0028      	movs	r0, r5
10003804:	f7fe fe18 	bl	10002438 <dir_read>
10003808:	2804      	cmp	r0, #4
1000380a:	d001      	beq.n	10003810 <f_readdir+0x26>
1000380c:	2800      	cmp	r0, #0
1000380e:	d113      	bne.n	10003838 <f_readdir+0x4e>
10003810:	0031      	movs	r1, r6
10003812:	0028      	movs	r0, r5
10003814:	f7fe febe 	bl	10002594 <get_fileinfo>
10003818:	2100      	movs	r1, #0
1000381a:	0028      	movs	r0, r5
1000381c:	f7fe fd7b 	bl	10002316 <dir_next>
10003820:	2804      	cmp	r0, #4
10003822:	d006      	beq.n	10003832 <f_readdir+0x48>
10003824:	0004      	movs	r4, r0
10003826:	e004      	b.n	10003832 <f_readdir+0x48>
10003828:	2100      	movs	r1, #0
1000382a:	0028      	movs	r0, r5
1000382c:	f7fe fc31 	bl	10002092 <dir_sdi>
10003830:	0004      	movs	r4, r0
10003832:	0020      	movs	r0, r4
10003834:	b002      	add	sp, #8
10003836:	bd70      	pop	{r4, r5, r6, pc}
10003838:	0004      	movs	r4, r0
1000383a:	e7fa      	b.n	10003832 <f_readdir+0x48>

1000383c <f_unlink>:
1000383c:	b5f0      	push	{r4, r5, r6, r7, lr}
1000383e:	b09d      	sub	sp, #116	; 0x74
10003840:	9001      	str	r0, [sp, #4]
10003842:	2202      	movs	r2, #2
10003844:	a91b      	add	r1, sp, #108	; 0x6c
10003846:	a801      	add	r0, sp, #4
10003848:	f7fe f98c 	bl	10001b64 <mount_volume>
1000384c:	1e04      	subs	r4, r0, #0
1000384e:	d002      	beq.n	10003856 <f_unlink+0x1a>
10003850:	0020      	movs	r0, r4
10003852:	b01d      	add	sp, #116	; 0x74
10003854:	bdf0      	pop	{r4, r5, r6, r7, pc}
10003856:	9b1b      	ldr	r3, [sp, #108]	; 0x6c
10003858:	930f      	str	r3, [sp, #60]	; 0x3c
1000385a:	9901      	ldr	r1, [sp, #4]
1000385c:	a80f      	add	r0, sp, #60	; 0x3c
1000385e:	f7ff f9c3 	bl	10002be8 <follow_path>
10003862:	1e04      	subs	r4, r0, #0
10003864:	d104      	bne.n	10003870 <f_unlink+0x34>
10003866:	aa0f      	add	r2, sp, #60	; 0x3c
10003868:	232b      	movs	r3, #43	; 0x2b
1000386a:	5cd3      	ldrb	r3, [r2, r3]
1000386c:	069b      	lsls	r3, r3, #26
1000386e:	d443      	bmi.n	100038f8 <f_unlink+0xbc>
10003870:	2c00      	cmp	r4, #0
10003872:	d1ed      	bne.n	10003850 <f_unlink+0x14>
10003874:	aa0f      	add	r2, sp, #60	; 0x3c
10003876:	232b      	movs	r3, #43	; 0x2b
10003878:	56d3      	ldrsb	r3, [r2, r3]
1000387a:	2b00      	cmp	r3, #0
1000387c:	db1e      	blt.n	100038bc <f_unlink+0x80>
1000387e:	7996      	ldrb	r6, [r2, #6]
10003880:	07f3      	lsls	r3, r6, #31
10003882:	d42d      	bmi.n	100038e0 <f_unlink+0xa4>
10003884:	9f1b      	ldr	r7, [sp, #108]	; 0x6c
10003886:	9916      	ldr	r1, [sp, #88]	; 0x58
10003888:	0038      	movs	r0, r7
1000388a:	f7fd ff66 	bl	1000175a <ld_clust>
1000388e:	0005      	movs	r5, r0
10003890:	06f3      	lsls	r3, r6, #27
10003892:	d515      	bpl.n	100038c0 <f_unlink+0x84>
10003894:	69bb      	ldr	r3, [r7, #24]
10003896:	4283      	cmp	r3, r0
10003898:	d030      	beq.n	100038fc <f_unlink+0xc0>
1000389a:	9703      	str	r7, [sp, #12]
1000389c:	9005      	str	r0, [sp, #20]
1000389e:	2100      	movs	r1, #0
100038a0:	a803      	add	r0, sp, #12
100038a2:	f7fe fbf6 	bl	10002092 <dir_sdi>
100038a6:	1e04      	subs	r4, r0, #0
100038a8:	d10a      	bne.n	100038c0 <f_unlink+0x84>
100038aa:	2100      	movs	r1, #0
100038ac:	a803      	add	r0, sp, #12
100038ae:	f7fe fdc3 	bl	10002438 <dir_read>
100038b2:	1e04      	subs	r4, r0, #0
100038b4:	d017      	beq.n	100038e6 <f_unlink+0xaa>
100038b6:	2804      	cmp	r0, #4
100038b8:	d102      	bne.n	100038c0 <f_unlink+0x84>
100038ba:	e003      	b.n	100038c4 <f_unlink+0x88>
100038bc:	2500      	movs	r5, #0
100038be:	2406      	movs	r4, #6
100038c0:	2c00      	cmp	r4, #0
100038c2:	d1c5      	bne.n	10003850 <f_unlink+0x14>
100038c4:	a80f      	add	r0, sp, #60	; 0x3c
100038c6:	f7fe fe23 	bl	10002510 <dir_remove>
100038ca:	1e04      	subs	r4, r0, #0
100038cc:	d101      	bne.n	100038d2 <f_unlink+0x96>
100038ce:	2d00      	cmp	r5, #0
100038d0:	d10b      	bne.n	100038ea <f_unlink+0xae>
100038d2:	2c00      	cmp	r4, #0
100038d4:	d1bc      	bne.n	10003850 <f_unlink+0x14>
100038d6:	981b      	ldr	r0, [sp, #108]	; 0x6c
100038d8:	f7ff fad6 	bl	10002e88 <sync_fs>
100038dc:	0004      	movs	r4, r0
100038de:	e7b7      	b.n	10003850 <f_unlink+0x14>
100038e0:	2500      	movs	r5, #0
100038e2:	2407      	movs	r4, #7
100038e4:	e7ec      	b.n	100038c0 <f_unlink+0x84>
100038e6:	2407      	movs	r4, #7
100038e8:	e7ea      	b.n	100038c0 <f_unlink+0x84>
100038ea:	2200      	movs	r2, #0
100038ec:	0029      	movs	r1, r5
100038ee:	a80f      	add	r0, sp, #60	; 0x3c
100038f0:	f7fe fca8 	bl	10002244 <remove_chain>
100038f4:	0004      	movs	r4, r0
100038f6:	e7ec      	b.n	100038d2 <f_unlink+0x96>
100038f8:	2406      	movs	r4, #6
100038fa:	e7a9      	b.n	10003850 <f_unlink+0x14>
100038fc:	2407      	movs	r4, #7
100038fe:	e7a7      	b.n	10003850 <f_unlink+0x14>

10003900 <f_mkdir>:
10003900:	b5f0      	push	{r4, r5, r6, r7, lr}
10003902:	b095      	sub	sp, #84	; 0x54
10003904:	9001      	str	r0, [sp, #4]
10003906:	2202      	movs	r2, #2
10003908:	a913      	add	r1, sp, #76	; 0x4c
1000390a:	a801      	add	r0, sp, #4
1000390c:	f7fe f92a 	bl	10001b64 <mount_volume>
10003910:	1e04      	subs	r4, r0, #0
10003912:	d002      	beq.n	1000391a <f_mkdir+0x1a>
10003914:	0020      	movs	r0, r4
10003916:	b015      	add	sp, #84	; 0x54
10003918:	bdf0      	pop	{r4, r5, r6, r7, pc}
1000391a:	9b13      	ldr	r3, [sp, #76]	; 0x4c
1000391c:	9307      	str	r3, [sp, #28]
1000391e:	9901      	ldr	r1, [sp, #4]
10003920:	a807      	add	r0, sp, #28
10003922:	f7ff f961 	bl	10002be8 <follow_path>
10003926:	2800      	cmp	r0, #0
10003928:	d008      	beq.n	1000393c <f_mkdir+0x3c>
1000392a:	2804      	cmp	r0, #4
1000392c:	d107      	bne.n	1000393e <f_mkdir+0x3e>
1000392e:	aa07      	add	r2, sp, #28
10003930:	232b      	movs	r3, #43	; 0x2b
10003932:	5cd3      	ldrb	r3, [r2, r3]
10003934:	069b      	lsls	r3, r3, #26
10003936:	d502      	bpl.n	1000393e <f_mkdir+0x3e>
10003938:	2406      	movs	r4, #6
1000393a:	e7eb      	b.n	10003914 <f_mkdir+0x14>
1000393c:	2008      	movs	r0, #8
1000393e:	2804      	cmp	r0, #4
10003940:	d001      	beq.n	10003946 <f_mkdir+0x46>
10003942:	0004      	movs	r4, r0
10003944:	e7e6      	b.n	10003914 <f_mkdir+0x14>
10003946:	9b13      	ldr	r3, [sp, #76]	; 0x4c
10003948:	9303      	str	r3, [sp, #12]
1000394a:	2100      	movs	r1, #0
1000394c:	a803      	add	r0, sp, #12
1000394e:	f7fe fbfa 	bl	10002146 <create_chain>
10003952:	1e05      	subs	r5, r0, #0
10003954:	d100      	bne.n	10003958 <f_mkdir+0x58>
10003956:	2407      	movs	r4, #7
10003958:	2d01      	cmp	r5, #1
1000395a:	d01e      	beq.n	1000399a <f_mkdir+0x9a>
1000395c:	1c6b      	adds	r3, r5, #1
1000395e:	d056      	beq.n	10003a0e <f_mkdir+0x10e>
10003960:	2c00      	cmp	r4, #0
10003962:	d01c      	beq.n	1000399e <f_mkdir+0x9e>
10003964:	2c00      	cmp	r4, #0
10003966:	d154      	bne.n	10003a12 <f_mkdir+0x112>
10003968:	9b0e      	ldr	r3, [sp, #56]	; 0x38
1000396a:	9300      	str	r3, [sp, #0]
1000396c:	0018      	movs	r0, r3
1000396e:	3016      	adds	r0, #22
10003970:	492b      	ldr	r1, [pc, #172]	; (10003a20 <f_mkdir+0x120>)
10003972:	f7fd feda 	bl	1000172a <st_dword>
10003976:	9b0e      	ldr	r3, [sp, #56]	; 0x38
10003978:	9300      	str	r3, [sp, #0]
1000397a:	002a      	movs	r2, r5
1000397c:	0019      	movs	r1, r3
1000397e:	9813      	ldr	r0, [sp, #76]	; 0x4c
10003980:	f7fd fefe 	bl	10001780 <st_clust>
10003984:	9b0e      	ldr	r3, [sp, #56]	; 0x38
10003986:	2210      	movs	r2, #16
10003988:	72da      	strb	r2, [r3, #11]
1000398a:	2301      	movs	r3, #1
1000398c:	9a13      	ldr	r2, [sp, #76]	; 0x4c
1000398e:	7113      	strb	r3, [r2, #4]
10003990:	0010      	movs	r0, r2
10003992:	f7ff fa79 	bl	10002e88 <sync_fs>
10003996:	0004      	movs	r4, r0
10003998:	e7bc      	b.n	10003914 <f_mkdir+0x14>
1000399a:	2402      	movs	r4, #2
1000399c:	e7de      	b.n	1000395c <f_mkdir+0x5c>
1000399e:	0029      	movs	r1, r5
100039a0:	9813      	ldr	r0, [sp, #76]	; 0x4c
100039a2:	f7fe fc8d 	bl	100022c0 <dir_clear>
100039a6:	1e04      	subs	r4, r0, #0
100039a8:	d1dc      	bne.n	10003964 <f_mkdir+0x64>
100039aa:	9c13      	ldr	r4, [sp, #76]	; 0x4c
100039ac:	0020      	movs	r0, r4
100039ae:	3038      	adds	r0, #56	; 0x38
100039b0:	220b      	movs	r2, #11
100039b2:	2120      	movs	r1, #32
100039b4:	f002 fbd8 	bl	10006168 <__wrap_memset>
100039b8:	272e      	movs	r7, #46	; 0x2e
100039ba:	2338      	movs	r3, #56	; 0x38
100039bc:	54e7      	strb	r7, [r4, r3]
100039be:	330b      	adds	r3, #11
100039c0:	2210      	movs	r2, #16
100039c2:	54e2      	strb	r2, [r4, r3]
100039c4:	0020      	movs	r0, r4
100039c6:	304e      	adds	r0, #78	; 0x4e
100039c8:	4915      	ldr	r1, [pc, #84]	; (10003a20 <f_mkdir+0x120>)
100039ca:	f7fd feae 	bl	1000172a <st_dword>
100039ce:	9913      	ldr	r1, [sp, #76]	; 0x4c
100039d0:	3138      	adds	r1, #56	; 0x38
100039d2:	002a      	movs	r2, r5
100039d4:	9813      	ldr	r0, [sp, #76]	; 0x4c
100039d6:	f7fd fed3 	bl	10001780 <st_clust>
100039da:	9c13      	ldr	r4, [sp, #76]	; 0x4c
100039dc:	0026      	movs	r6, r4
100039de:	3658      	adds	r6, #88	; 0x58
100039e0:	0021      	movs	r1, r4
100039e2:	3138      	adds	r1, #56	; 0x38
100039e4:	2220      	movs	r2, #32
100039e6:	0030      	movs	r0, r6
100039e8:	f002 fbc4 	bl	10006174 <__wrap___aeabi_memcpy>
100039ec:	2359      	movs	r3, #89	; 0x59
100039ee:	54e7      	strb	r7, [r4, r3]
100039f0:	9b09      	ldr	r3, [sp, #36]	; 0x24
100039f2:	9300      	str	r3, [sp, #0]
100039f4:	001a      	movs	r2, r3
100039f6:	0031      	movs	r1, r6
100039f8:	0020      	movs	r0, r4
100039fa:	f7fd fec1 	bl	10001780 <st_clust>
100039fe:	2301      	movs	r3, #1
10003a00:	9a13      	ldr	r2, [sp, #76]	; 0x4c
10003a02:	7113      	strb	r3, [r2, #4]
10003a04:	a807      	add	r0, sp, #28
10003a06:	f7ff f99d 	bl	10002d44 <dir_register>
10003a0a:	0004      	movs	r4, r0
10003a0c:	e7aa      	b.n	10003964 <f_mkdir+0x64>
10003a0e:	2401      	movs	r4, #1
10003a10:	e7a8      	b.n	10003964 <f_mkdir+0x64>
10003a12:	2200      	movs	r2, #0
10003a14:	0029      	movs	r1, r5
10003a16:	a803      	add	r0, sp, #12
10003a18:	f7fe fc14 	bl	10002244 <remove_chain>
10003a1c:	e77a      	b.n	10003914 <f_mkdir+0x14>
10003a1e:	46c0      	nop			; (mov r8, r8)
10003a20:	54210000 	.word	0x54210000

10003a24 <f_rename>:
10003a24:	b570      	push	{r4, r5, r6, lr}
10003a26:	b0a4      	sub	sp, #144	; 0x90
10003a28:	9001      	str	r0, [sp, #4]
10003a2a:	9100      	str	r1, [sp, #0]
10003a2c:	4668      	mov	r0, sp
10003a2e:	f7fd ff5b 	bl	100018e8 <get_ldnumber>
10003a32:	2202      	movs	r2, #2
10003a34:	a923      	add	r1, sp, #140	; 0x8c
10003a36:	a801      	add	r0, sp, #4
10003a38:	f7fe f894 	bl	10001b64 <mount_volume>
10003a3c:	1e04      	subs	r4, r0, #0
10003a3e:	d002      	beq.n	10003a46 <f_rename+0x22>
10003a40:	0020      	movs	r0, r4
10003a42:	b024      	add	sp, #144	; 0x90
10003a44:	bd70      	pop	{r4, r5, r6, pc}
10003a46:	9b23      	ldr	r3, [sp, #140]	; 0x8c
10003a48:	9317      	str	r3, [sp, #92]	; 0x5c
10003a4a:	9901      	ldr	r1, [sp, #4]
10003a4c:	a817      	add	r0, sp, #92	; 0x5c
10003a4e:	f7ff f8cb 	bl	10002be8 <follow_path>
10003a52:	1e04      	subs	r4, r0, #0
10003a54:	d105      	bne.n	10003a62 <f_rename+0x3e>
10003a56:	aa17      	add	r2, sp, #92	; 0x5c
10003a58:	232b      	movs	r3, #43	; 0x2b
10003a5a:	5cd3      	ldrb	r3, [r2, r3]
10003a5c:	225f      	movs	r2, #95	; 0x5f
10003a5e:	4393      	bics	r3, r2
10003a60:	d16f      	bne.n	10003b42 <f_rename+0x11e>
10003a62:	2c00      	cmp	r4, #0
10003a64:	d1ec      	bne.n	10003a40 <f_rename+0x1c>
10003a66:	ac17      	add	r4, sp, #92	; 0x5c
10003a68:	2220      	movs	r2, #32
10003a6a:	991e      	ldr	r1, [sp, #120]	; 0x78
10003a6c:	a803      	add	r0, sp, #12
10003a6e:	f002 fb81 	bl	10006174 <__wrap___aeabi_memcpy>
10003a72:	a80b      	add	r0, sp, #44	; 0x2c
10003a74:	0002      	movs	r2, r0
10003a76:	cc2a      	ldmia	r4!, {r1, r3, r5}
10003a78:	c22a      	stmia	r2!, {r1, r3, r5}
10003a7a:	cc2a      	ldmia	r4!, {r1, r3, r5}
10003a7c:	c22a      	stmia	r2!, {r1, r3, r5}
10003a7e:	cc2a      	ldmia	r4!, {r1, r3, r5}
10003a80:	c22a      	stmia	r2!, {r1, r3, r5}
10003a82:	cc2a      	ldmia	r4!, {r1, r3, r5}
10003a84:	c22a      	stmia	r2!, {r1, r3, r5}
10003a86:	9900      	ldr	r1, [sp, #0]
10003a88:	f7ff f8ae 	bl	10002be8 <follow_path>
10003a8c:	1e04      	subs	r4, r0, #0
10003a8e:	d10b      	bne.n	10003aa8 <f_rename+0x84>
10003a90:	9b0d      	ldr	r3, [sp, #52]	; 0x34
10003a92:	9a19      	ldr	r2, [sp, #100]	; 0x64
10003a94:	4293      	cmp	r3, r2
10003a96:	d001      	beq.n	10003a9c <f_rename+0x78>
10003a98:	2408      	movs	r4, #8
10003a9a:	e007      	b.n	10003aac <f_rename+0x88>
10003a9c:	9b0f      	ldr	r3, [sp, #60]	; 0x3c
10003a9e:	9a1b      	ldr	r2, [sp, #108]	; 0x6c
10003aa0:	4293      	cmp	r3, r2
10003aa2:	d00f      	beq.n	10003ac4 <f_rename+0xa0>
10003aa4:	3408      	adds	r4, #8
10003aa6:	e001      	b.n	10003aac <f_rename+0x88>
10003aa8:	2804      	cmp	r0, #4
10003aaa:	d00b      	beq.n	10003ac4 <f_rename+0xa0>
10003aac:	2c00      	cmp	r4, #0
10003aae:	d1c7      	bne.n	10003a40 <f_rename+0x1c>
10003ab0:	a817      	add	r0, sp, #92	; 0x5c
10003ab2:	f7fe fd2d 	bl	10002510 <dir_remove>
10003ab6:	1e04      	subs	r4, r0, #0
10003ab8:	d1c2      	bne.n	10003a40 <f_rename+0x1c>
10003aba:	9823      	ldr	r0, [sp, #140]	; 0x8c
10003abc:	f7ff f9e4 	bl	10002e88 <sync_fs>
10003ac0:	0004      	movs	r4, r0
10003ac2:	e7bd      	b.n	10003a40 <f_rename+0x1c>
10003ac4:	a80b      	add	r0, sp, #44	; 0x2c
10003ac6:	f7ff f93d 	bl	10002d44 <dir_register>
10003aca:	1e04      	subs	r4, r0, #0
10003acc:	d1ee      	bne.n	10003aac <f_rename+0x88>
10003ace:	9d12      	ldr	r5, [sp, #72]	; 0x48
10003ad0:	0028      	movs	r0, r5
10003ad2:	300d      	adds	r0, #13
10003ad4:	2213      	movs	r2, #19
10003ad6:	2119      	movs	r1, #25
10003ad8:	4469      	add	r1, sp
10003ada:	f002 fb4b 	bl	10006174 <__wrap___aeabi_memcpy>
10003ade:	ab03      	add	r3, sp, #12
10003ae0:	7adb      	ldrb	r3, [r3, #11]
10003ae2:	72eb      	strb	r3, [r5, #11]
10003ae4:	06da      	lsls	r2, r3, #27
10003ae6:	d402      	bmi.n	10003aee <f_rename+0xca>
10003ae8:	2220      	movs	r2, #32
10003aea:	4313      	orrs	r3, r2
10003aec:	72eb      	strb	r3, [r5, #11]
10003aee:	9e23      	ldr	r6, [sp, #140]	; 0x8c
10003af0:	2301      	movs	r3, #1
10003af2:	7133      	strb	r3, [r6, #4]
10003af4:	7aeb      	ldrb	r3, [r5, #11]
10003af6:	06db      	lsls	r3, r3, #27
10003af8:	d5d8      	bpl.n	10003aac <f_rename+0x88>
10003afa:	9b19      	ldr	r3, [sp, #100]	; 0x64
10003afc:	9a0d      	ldr	r2, [sp, #52]	; 0x34
10003afe:	4293      	cmp	r3, r2
10003b00:	d0d4      	beq.n	10003aac <f_rename+0x88>
10003b02:	0029      	movs	r1, r5
10003b04:	0030      	movs	r0, r6
10003b06:	f7fd fe28 	bl	1000175a <ld_clust>
10003b0a:	0001      	movs	r1, r0
10003b0c:	0030      	movs	r0, r6
10003b0e:	f7fd fe18 	bl	10001742 <clst2sect>
10003b12:	1e01      	subs	r1, r0, #0
10003b14:	d101      	bne.n	10003b1a <f_rename+0xf6>
10003b16:	2402      	movs	r4, #2
10003b18:	e792      	b.n	10003a40 <f_rename+0x1c>
10003b1a:	0030      	movs	r0, r6
10003b1c:	f7fd ff60 	bl	100019e0 <move_window>
10003b20:	0004      	movs	r4, r0
10003b22:	9823      	ldr	r0, [sp, #140]	; 0x8c
10003b24:	0001      	movs	r1, r0
10003b26:	3158      	adds	r1, #88	; 0x58
10003b28:	2c00      	cmp	r4, #0
10003b2a:	d1bf      	bne.n	10003aac <f_rename+0x88>
10003b2c:	2359      	movs	r3, #89	; 0x59
10003b2e:	5cc3      	ldrb	r3, [r0, r3]
10003b30:	2b2e      	cmp	r3, #46	; 0x2e
10003b32:	d1bb      	bne.n	10003aac <f_rename+0x88>
10003b34:	9a0d      	ldr	r2, [sp, #52]	; 0x34
10003b36:	f7fd fe23 	bl	10001780 <st_clust>
10003b3a:	2301      	movs	r3, #1
10003b3c:	9a23      	ldr	r2, [sp, #140]	; 0x8c
10003b3e:	7113      	strb	r3, [r2, #4]
10003b40:	e7b4      	b.n	10003aac <f_rename+0x88>
10003b42:	2406      	movs	r4, #6
10003b44:	e77c      	b.n	10003a40 <f_rename+0x1c>
	...

10003b48 <ff_uni2oem>:
10003b48:	287f      	cmp	r0, #127	; 0x7f
10003b4a:	d801      	bhi.n	10003b50 <ff_uni2oem+0x8>
10003b4c:	b280      	uxth	r0, r0
10003b4e:	4770      	bx	lr
10003b50:	2380      	movs	r3, #128	; 0x80
10003b52:	025b      	lsls	r3, r3, #9
10003b54:	4298      	cmp	r0, r3
10003b56:	d215      	bcs.n	10003b84 <ff_uni2oem+0x3c>
10003b58:	23b6      	movs	r3, #182	; 0xb6
10003b5a:	33ff      	adds	r3, #255	; 0xff
10003b5c:	4299      	cmp	r1, r3
10003b5e:	d00f      	beq.n	10003b80 <ff_uni2oem+0x38>
10003b60:	2000      	movs	r0, #0
10003b62:	e7f4      	b.n	10003b4e <ff_uni2oem+0x6>
10003b64:	3301      	adds	r3, #1
10003b66:	b29b      	uxth	r3, r3
10003b68:	2b7f      	cmp	r3, #127	; 0x7f
10003b6a:	d804      	bhi.n	10003b76 <ff_uni2oem+0x2e>
10003b6c:	005a      	lsls	r2, r3, #1
10003b6e:	4906      	ldr	r1, [pc, #24]	; (10003b88 <ff_uni2oem+0x40>)
10003b70:	5a8a      	ldrh	r2, [r1, r2]
10003b72:	4282      	cmp	r2, r0
10003b74:	d1f6      	bne.n	10003b64 <ff_uni2oem+0x1c>
10003b76:	3380      	adds	r3, #128	; 0x80
10003b78:	0018      	movs	r0, r3
10003b7a:	23ff      	movs	r3, #255	; 0xff
10003b7c:	4018      	ands	r0, r3
10003b7e:	e7e6      	b.n	10003b4e <ff_uni2oem+0x6>
10003b80:	2300      	movs	r3, #0
10003b82:	e7f1      	b.n	10003b68 <ff_uni2oem+0x20>
10003b84:	2000      	movs	r0, #0
10003b86:	e7e2      	b.n	10003b4e <ff_uni2oem+0x6>
10003b88:	1000c4c4 	.word	0x1000c4c4

10003b8c <ff_oem2uni>:
10003b8c:	287f      	cmp	r0, #127	; 0x7f
10003b8e:	d904      	bls.n	10003b9a <ff_oem2uni+0xe>
10003b90:	23b6      	movs	r3, #182	; 0xb6
10003b92:	33ff      	adds	r3, #255	; 0xff
10003b94:	4299      	cmp	r1, r3
10003b96:	d001      	beq.n	10003b9c <ff_oem2uni+0x10>
10003b98:	2000      	movs	r0, #0
10003b9a:	4770      	bx	lr
10003b9c:	28ff      	cmp	r0, #255	; 0xff
10003b9e:	d806      	bhi.n	10003bae <ff_oem2uni+0x22>
10003ba0:	4b04      	ldr	r3, [pc, #16]	; (10003bb4 <ff_oem2uni+0x28>)
10003ba2:	469c      	mov	ip, r3
10003ba4:	4460      	add	r0, ip
10003ba6:	0040      	lsls	r0, r0, #1
10003ba8:	4b03      	ldr	r3, [pc, #12]	; (10003bb8 <ff_oem2uni+0x2c>)
10003baa:	5a18      	ldrh	r0, [r3, r0]
10003bac:	e7f5      	b.n	10003b9a <ff_oem2uni+0xe>
10003bae:	2000      	movs	r0, #0
10003bb0:	e7f3      	b.n	10003b9a <ff_oem2uni+0xe>
10003bb2:	46c0      	nop			; (mov r8, r8)
10003bb4:	7fffff80 	.word	0x7fffff80
10003bb8:	1000c4c4 	.word	0x1000c4c4

10003bbc <ff_wtoupper>:
10003bbc:	b5f0      	push	{r4, r5, r6, r7, lr}
10003bbe:	2380      	movs	r3, #128	; 0x80
10003bc0:	025b      	lsls	r3, r3, #9
10003bc2:	4298      	cmp	r0, r3
10003bc4:	d227      	bcs.n	10003c16 <ff_wtoupper+0x5a>
10003bc6:	b286      	uxth	r6, r0
10003bc8:	2380      	movs	r3, #128	; 0x80
10003bca:	015b      	lsls	r3, r3, #5
10003bcc:	429e      	cmp	r6, r3
10003bce:	d201      	bcs.n	10003bd4 <ff_wtoupper+0x18>
10003bd0:	4b20      	ldr	r3, [pc, #128]	; (10003c54 <ff_wtoupper+0x98>)
10003bd2:	e002      	b.n	10003bda <ff_wtoupper+0x1e>
10003bd4:	4b20      	ldr	r3, [pc, #128]	; (10003c58 <ff_wtoupper+0x9c>)
10003bd6:	e000      	b.n	10003bda <ff_wtoupper+0x1e>
10003bd8:	002b      	movs	r3, r5
10003bda:	881a      	ldrh	r2, [r3, #0]
10003bdc:	2a00      	cmp	r2, #0
10003bde:	d019      	beq.n	10003c14 <ff_wtoupper+0x58>
10003be0:	4296      	cmp	r6, r2
10003be2:	d317      	bcc.n	10003c14 <ff_wtoupper+0x58>
10003be4:	1d1d      	adds	r5, r3, #4
10003be6:	8859      	ldrh	r1, [r3, #2]
10003be8:	0a0c      	lsrs	r4, r1, #8
10003bea:	23ff      	movs	r3, #255	; 0xff
10003bec:	400b      	ands	r3, r1
10003bee:	0401      	lsls	r1, r0, #16
10003bf0:	0c09      	lsrs	r1, r1, #16
10003bf2:	189f      	adds	r7, r3, r2
10003bf4:	42b9      	cmp	r1, r7
10003bf6:	db04      	blt.n	10003c02 <ff_wtoupper+0x46>
10003bf8:	2c00      	cmp	r4, #0
10003bfa:	d1ed      	bne.n	10003bd8 <ff_wtoupper+0x1c>
10003bfc:	005b      	lsls	r3, r3, #1
10003bfe:	18eb      	adds	r3, r5, r3
10003c00:	e7eb      	b.n	10003bda <ff_wtoupper+0x1e>
10003c02:	2c08      	cmp	r4, #8
10003c04:	d806      	bhi.n	10003c14 <ff_wtoupper+0x58>
10003c06:	00a4      	lsls	r4, r4, #2
10003c08:	4b14      	ldr	r3, [pc, #80]	; (10003c5c <ff_wtoupper+0xa0>)
10003c0a:	591b      	ldr	r3, [r3, r4]
10003c0c:	469f      	mov	pc, r3
10003c0e:	1a8a      	subs	r2, r1, r2
10003c10:	0052      	lsls	r2, r2, #1
10003c12:	5aae      	ldrh	r6, [r5, r2]
10003c14:	0030      	movs	r0, r6
10003c16:	bdf0      	pop	{r4, r5, r6, r7, pc}
10003c18:	1ab2      	subs	r2, r6, r2
10003c1a:	2301      	movs	r3, #1
10003c1c:	401a      	ands	r2, r3
10003c1e:	1ab6      	subs	r6, r6, r2
10003c20:	b2b6      	uxth	r6, r6
10003c22:	e7f7      	b.n	10003c14 <ff_wtoupper+0x58>
10003c24:	3e10      	subs	r6, #16
10003c26:	b2b6      	uxth	r6, r6
10003c28:	e7f4      	b.n	10003c14 <ff_wtoupper+0x58>
10003c2a:	3e20      	subs	r6, #32
10003c2c:	b2b6      	uxth	r6, r6
10003c2e:	e7f1      	b.n	10003c14 <ff_wtoupper+0x58>
10003c30:	3e30      	subs	r6, #48	; 0x30
10003c32:	b2b6      	uxth	r6, r6
10003c34:	e7ee      	b.n	10003c14 <ff_wtoupper+0x58>
10003c36:	3e1a      	subs	r6, #26
10003c38:	b2b6      	uxth	r6, r6
10003c3a:	e7eb      	b.n	10003c14 <ff_wtoupper+0x58>
10003c3c:	3608      	adds	r6, #8
10003c3e:	b2b6      	uxth	r6, r6
10003c40:	e7e8      	b.n	10003c14 <ff_wtoupper+0x58>
10003c42:	3e50      	subs	r6, #80	; 0x50
10003c44:	b2b6      	uxth	r6, r6
10003c46:	e7e5      	b.n	10003c14 <ff_wtoupper+0x58>
10003c48:	4b05      	ldr	r3, [pc, #20]	; (10003c60 <ff_wtoupper+0xa4>)
10003c4a:	469c      	mov	ip, r3
10003c4c:	4466      	add	r6, ip
10003c4e:	b2b6      	uxth	r6, r6
10003c50:	e7e0      	b.n	10003c14 <ff_wtoupper+0x58>
10003c52:	46c0      	nop			; (mov r8, r8)
10003c54:	1000c214 	.word	0x1000c214
10003c58:	1000c408 	.word	0x1000c408
10003c5c:	1000c1f0 	.word	0x1000c1f0
10003c60:	ffffe3a0 	.word	0xffffe3a0

10003c64 <gpio_set_function>:
10003c64:	b510      	push	{r4, lr}
10003c66:	0083      	lsls	r3, r0, #2
10003c68:	4a08      	ldr	r2, [pc, #32]	; (10003c8c <gpio_set_function+0x28>)
10003c6a:	189a      	adds	r2, r3, r2
10003c6c:	6812      	ldr	r2, [r2, #0]
10003c6e:	2440      	movs	r4, #64	; 0x40
10003c70:	4054      	eors	r4, r2
10003c72:	22c0      	movs	r2, #192	; 0xc0
10003c74:	4022      	ands	r2, r4
10003c76:	4c06      	ldr	r4, [pc, #24]	; (10003c90 <gpio_set_function+0x2c>)
10003c78:	46a4      	mov	ip, r4
10003c7a:	4463      	add	r3, ip
10003c7c:	601a      	str	r2, [r3, #0]
10003c7e:	00c0      	lsls	r0, r0, #3
10003c80:	4b04      	ldr	r3, [pc, #16]	; (10003c94 <gpio_set_function+0x30>)
10003c82:	469c      	mov	ip, r3
10003c84:	4460      	add	r0, ip
10003c86:	6041      	str	r1, [r0, #4]
10003c88:	bd10      	pop	{r4, pc}
10003c8a:	46c0      	nop			; (mov r8, r8)
10003c8c:	4001c004 	.word	0x4001c004
10003c90:	4001d004 	.word	0x4001d004
10003c94:	40014000 	.word	0x40014000

10003c98 <gpio_init>:
10003c98:	b510      	push	{r4, lr}
10003c9a:	2301      	movs	r3, #1
10003c9c:	4083      	lsls	r3, r0
10003c9e:	22d0      	movs	r2, #208	; 0xd0
10003ca0:	0612      	lsls	r2, r2, #24
10003ca2:	6293      	str	r3, [r2, #40]	; 0x28
10003ca4:	6193      	str	r3, [r2, #24]
10003ca6:	2105      	movs	r1, #5
10003ca8:	f7ff ffdc 	bl	10003c64 <gpio_set_function>
10003cac:	bd10      	pop	{r4, pc}
	...

10003cb0 <panic>:
10003cb0:	b40f      	push	{r0, r1, r2, r3}
10003cb2:	b500      	push	{lr}
10003cb4:	b083      	sub	sp, #12
10003cb6:	4808      	ldr	r0, [pc, #32]	; (10003cd8 <panic+0x28>)
10003cb8:	f003 fd0e 	bl	100076d8 <__wrap_puts>
10003cbc:	9b04      	ldr	r3, [sp, #16]
10003cbe:	2b00      	cmp	r3, #0
10003cc0:	d007      	beq.n	10003cd2 <panic+0x22>
10003cc2:	a905      	add	r1, sp, #20
10003cc4:	9101      	str	r1, [sp, #4]
10003cc6:	0018      	movs	r0, r3
10003cc8:	f003 fd16 	bl	100076f8 <__wrap_vprintf>
10003ccc:	4803      	ldr	r0, [pc, #12]	; (10003cdc <panic+0x2c>)
10003cce:	f003 fd03 	bl	100076d8 <__wrap_puts>
10003cd2:	2001      	movs	r0, #1
10003cd4:	f003 faf4 	bl	100072c0 <_exit>
10003cd8:	1000c5c4 	.word	0x1000c5c4
10003cdc:	1000bf6c 	.word	0x1000bf6c

10003ce0 <hw_claim_lock>:
10003ce0:	f3ef 8010 	mrs	r0, PRIMASK
10003ce4:	b672      	cpsid	i
10003ce6:	4b03      	ldr	r3, [pc, #12]	; (10003cf4 <hw_claim_lock+0x14>)
10003ce8:	681b      	ldr	r3, [r3, #0]
10003cea:	2b00      	cmp	r3, #0
10003cec:	d0fb      	beq.n	10003ce6 <hw_claim_lock+0x6>
10003cee:	f3bf 8f5f 	dmb	sy
10003cf2:	4770      	bx	lr
10003cf4:	d000012c 	.word	0xd000012c

10003cf8 <hw_claim_unlock>:
10003cf8:	f3bf 8f5f 	dmb	sy
10003cfc:	4b02      	ldr	r3, [pc, #8]	; (10003d08 <hw_claim_unlock+0x10>)
10003cfe:	2200      	movs	r2, #0
10003d00:	601a      	str	r2, [r3, #0]
10003d02:	f380 8810 	msr	PRIMASK, r0
10003d06:	4770      	bx	lr
10003d08:	d000012c 	.word	0xd000012c

10003d0c <hw_claim_or_assert>:
10003d0c:	b5f8      	push	{r3, r4, r5, r6, r7, lr}
10003d0e:	0006      	movs	r6, r0
10003d10:	000c      	movs	r4, r1
10003d12:	0015      	movs	r5, r2
10003d14:	f7ff ffe4 	bl	10003ce0 <hw_claim_lock>
10003d18:	08e3      	lsrs	r3, r4, #3
10003d1a:	18f7      	adds	r7, r6, r3
10003d1c:	5cf1      	ldrb	r1, [r6, r3]
10003d1e:	2207      	movs	r2, #7
10003d20:	4022      	ands	r2, r4
10003d22:	2301      	movs	r3, #1
10003d24:	4093      	lsls	r3, r2
10003d26:	420b      	tst	r3, r1
10003d28:	d105      	bne.n	10003d36 <hw_claim_or_assert+0x2a>
10003d2a:	b2db      	uxtb	r3, r3
10003d2c:	430b      	orrs	r3, r1
10003d2e:	703b      	strb	r3, [r7, #0]
10003d30:	f7ff ffe2 	bl	10003cf8 <hw_claim_unlock>
10003d34:	bdf8      	pop	{r3, r4, r5, r6, r7, pc}
10003d36:	0021      	movs	r1, r4
10003d38:	0028      	movs	r0, r5
10003d3a:	f7ff ffb9 	bl	10003cb0 <panic>

10003d3e <hw_claim_unused_from_range>:
10003d3e:	b5f0      	push	{r4, r5, r6, r7, lr}
10003d40:	b083      	sub	sp, #12
10003d42:	0006      	movs	r6, r0
10003d44:	9101      	str	r1, [sp, #4]
10003d46:	0014      	movs	r4, r2
10003d48:	001f      	movs	r7, r3
10003d4a:	f7ff ffc9 	bl	10003ce0 <hw_claim_lock>
10003d4e:	e000      	b.n	10003d52 <hw_claim_unused_from_range+0x14>
10003d50:	3401      	adds	r4, #1
10003d52:	42bc      	cmp	r4, r7
10003d54:	d80c      	bhi.n	10003d70 <hw_claim_unused_from_range+0x32>
10003d56:	08e3      	lsrs	r3, r4, #3
10003d58:	18f5      	adds	r5, r6, r3
10003d5a:	5cf3      	ldrb	r3, [r6, r3]
10003d5c:	2107      	movs	r1, #7
10003d5e:	4021      	ands	r1, r4
10003d60:	2201      	movs	r2, #1
10003d62:	408a      	lsls	r2, r1
10003d64:	421a      	tst	r2, r3
10003d66:	d1f3      	bne.n	10003d50 <hw_claim_unused_from_range+0x12>
10003d68:	b2d2      	uxtb	r2, r2
10003d6a:	431a      	orrs	r2, r3
10003d6c:	702a      	strb	r2, [r5, #0]
10003d6e:	e001      	b.n	10003d74 <hw_claim_unused_from_range+0x36>
10003d70:	2401      	movs	r4, #1
10003d72:	4264      	negs	r4, r4
10003d74:	f7ff ffc0 	bl	10003cf8 <hw_claim_unlock>
10003d78:	2c00      	cmp	r4, #0
10003d7a:	db02      	blt.n	10003d82 <hw_claim_unused_from_range+0x44>
10003d7c:	0020      	movs	r0, r4
10003d7e:	b003      	add	sp, #12
10003d80:	bdf0      	pop	{r4, r5, r6, r7, pc}
10003d82:	9b01      	ldr	r3, [sp, #4]
10003d84:	2b00      	cmp	r3, #0
10003d86:	d0f9      	beq.n	10003d7c <hw_claim_unused_from_range+0x3e>
10003d88:	9808      	ldr	r0, [sp, #32]
10003d8a:	f7ff ff91 	bl	10003cb0 <panic>
	...

10003d90 <next_striped_spin_lock_num>:
10003d90:	4a05      	ldr	r2, [pc, #20]	; (10003da8 <next_striped_spin_lock_num+0x18>)
10003d92:	7810      	ldrb	r0, [r2, #0]
10003d94:	1c43      	adds	r3, r0, #1
10003d96:	b2db      	uxtb	r3, r3
10003d98:	7013      	strb	r3, [r2, #0]
10003d9a:	2b17      	cmp	r3, #23
10003d9c:	d902      	bls.n	10003da4 <next_striped_spin_lock_num+0x14>
10003d9e:	0013      	movs	r3, r2
10003da0:	2210      	movs	r2, #16
10003da2:	701a      	strb	r2, [r3, #0]
10003da4:	4770      	bx	lr
10003da6:	46c0      	nop			; (mov r8, r8)
10003da8:	20000960 	.word	0x20000960

10003dac <spin_lock_claim_unused>:
10003dac:	b500      	push	{lr}
10003dae:	b083      	sub	sp, #12
10003db0:	0001      	movs	r1, r0
10003db2:	4b04      	ldr	r3, [pc, #16]	; (10003dc4 <spin_lock_claim_unused+0x18>)
10003db4:	9300      	str	r3, [sp, #0]
10003db6:	231f      	movs	r3, #31
10003db8:	2218      	movs	r2, #24
10003dba:	4803      	ldr	r0, [pc, #12]	; (10003dc8 <spin_lock_claim_unused+0x1c>)
10003dbc:	f7ff ffbf 	bl	10003d3e <hw_claim_unused_from_range>
10003dc0:	b003      	add	sp, #12
10003dc2:	bd00      	pop	{pc}
10003dc4:	1000c5d4 	.word	0x1000c5d4
10003dc8:	20001cd4 	.word	0x20001cd4

10003dcc <spin_locks_reset>:
10003dcc:	2300      	movs	r3, #0
10003dce:	e007      	b.n	10003de0 <spin_locks_reset+0x14>
10003dd0:	4a05      	ldr	r2, [pc, #20]	; (10003de8 <spin_locks_reset+0x1c>)
10003dd2:	189a      	adds	r2, r3, r2
10003dd4:	0092      	lsls	r2, r2, #2
10003dd6:	f3bf 8f5f 	dmb	sy
10003dda:	2100      	movs	r1, #0
10003ddc:	6011      	str	r1, [r2, #0]
10003dde:	3301      	adds	r3, #1
10003de0:	2b1f      	cmp	r3, #31
10003de2:	d9f5      	bls.n	10003dd0 <spin_locks_reset+0x4>
10003de4:	4770      	bx	lr
10003de6:	46c0      	nop			; (mov r8, r8)
10003de8:	34000040 	.word	0x34000040

10003dec <set_raw_irq_handler_and_unlock>:
10003dec:	4b07      	ldr	r3, [pc, #28]	; (10003e0c <set_raw_irq_handler_and_unlock+0x20>)
10003dee:	689b      	ldr	r3, [r3, #8]
10003df0:	3010      	adds	r0, #16
10003df2:	0080      	lsls	r0, r0, #2
10003df4:	5019      	str	r1, [r3, r0]
10003df6:	f3bf 8f5f 	dmb	sy
10003dfa:	f3bf 8f5f 	dmb	sy
10003dfe:	4b04      	ldr	r3, [pc, #16]	; (10003e10 <set_raw_irq_handler_and_unlock+0x24>)
10003e00:	2100      	movs	r1, #0
10003e02:	6019      	str	r1, [r3, #0]
10003e04:	f382 8810 	msr	PRIMASK, r2
10003e08:	4770      	bx	lr
10003e0a:	46c0      	nop			; (mov r8, r8)
10003e0c:	e000ed00 	.word	0xe000ed00
10003e10:	d0000124 	.word	0xd0000124

10003e14 <nvic_ipr0>:
10003e14:	4800      	ldr	r0, [pc, #0]	; (10003e18 <nvic_ipr0+0x4>)
10003e16:	4770      	bx	lr
10003e18:	e000e400 	.word	0xe000e400

10003e1c <runtime_init_per_core_irq_priorities>:
10003e1c:	b510      	push	{r4, lr}
10003e1e:	f7ff fff9 	bl	10003e14 <nvic_ipr0>
10003e22:	2300      	movs	r3, #0
10003e24:	e002      	b.n	10003e2c <runtime_init_per_core_irq_priorities+0x10>
10003e26:	4a03      	ldr	r2, [pc, #12]	; (10003e34 <runtime_init_per_core_irq_priorities+0x18>)
10003e28:	c004      	stmia	r0!, {r2}
10003e2a:	3301      	adds	r3, #1
10003e2c:	2b07      	cmp	r3, #7
10003e2e:	d9fa      	bls.n	10003e26 <runtime_init_per_core_irq_priorities+0xa>
10003e30:	bd10      	pop	{r4, pc}
10003e32:	46c0      	nop			; (mov r8, r8)
10003e34:	80808080 	.word	0x80808080

10003e38 <make_j_16>:
10003e38:	b510      	push	{r4, lr}
10003e3a:	1a09      	subs	r1, r1, r0
10003e3c:	1f08      	subs	r0, r1, #4
10003e3e:	4b0b      	ldr	r3, [pc, #44]	; (10003e6c <make_j_16+0x34>)
10003e40:	469c      	mov	ip, r3
10003e42:	4461      	add	r1, ip
10003e44:	4a0a      	ldr	r2, [pc, #40]	; (10003e70 <make_j_16+0x38>)
10003e46:	4291      	cmp	r1, r2
10003e48:	d808      	bhi.n	10003e5c <make_j_16+0x24>
10003e4a:	07c3      	lsls	r3, r0, #31
10003e4c:	d406      	bmi.n	10003e5c <make_j_16+0x24>
10003e4e:	1040      	asrs	r0, r0, #1
10003e50:	0540      	lsls	r0, r0, #21
10003e52:	0d40      	lsrs	r0, r0, #21
10003e54:	4b07      	ldr	r3, [pc, #28]	; (10003e74 <make_j_16+0x3c>)
10003e56:	4318      	orrs	r0, r3
10003e58:	b280      	uxth	r0, r0
10003e5a:	bd10      	pop	{r4, pc}
10003e5c:	2102      	movs	r1, #2
10003e5e:	4b06      	ldr	r3, [pc, #24]	; (10003e78 <make_j_16+0x40>)
10003e60:	4a06      	ldr	r2, [pc, #24]	; (10003e7c <make_j_16+0x44>)
10003e62:	31ff      	adds	r1, #255	; 0xff
10003e64:	4806      	ldr	r0, [pc, #24]	; (10003e80 <make_j_16+0x48>)
10003e66:	f003 fa7f 	bl	10007368 <__assert_func>
10003e6a:	46c0      	nop			; (mov r8, r8)
10003e6c:	000007fc 	.word	0x000007fc
10003e70:	00000ffe 	.word	0x00000ffe
10003e74:	ffffe000 	.word	0xffffe000
10003e78:	1000c5f0 	.word	0x1000c5f0
10003e7c:	1000c84c 	.word	0x1000c84c
10003e80:	1000c620 	.word	0x1000c620

10003e84 <insert_bl_32>:
10003e84:	b510      	push	{r4, lr}
10003e86:	1a09      	subs	r1, r1, r0
10003e88:	3904      	subs	r1, #4
10003e8a:	084c      	lsrs	r4, r1, #1
10003e8c:	0b09      	lsrs	r1, r1, #12
10003e8e:	d108      	bne.n	10003ea2 <insert_bl_32+0x1e>
10003e90:	0549      	lsls	r1, r1, #21
10003e92:	0d49      	lsrs	r1, r1, #21
10003e94:	4a06      	ldr	r2, [pc, #24]	; (10003eb0 <insert_bl_32+0x2c>)
10003e96:	4311      	orrs	r1, r2
10003e98:	8001      	strh	r1, [r0, #0]
10003e9a:	4b06      	ldr	r3, [pc, #24]	; (10003eb4 <insert_bl_32+0x30>)
10003e9c:	4323      	orrs	r3, r4
10003e9e:	8043      	strh	r3, [r0, #2]
10003ea0:	bd10      	pop	{r4, pc}
10003ea2:	210a      	movs	r1, #10
10003ea4:	4b04      	ldr	r3, [pc, #16]	; (10003eb8 <insert_bl_32+0x34>)
10003ea6:	4a05      	ldr	r2, [pc, #20]	; (10003ebc <insert_bl_32+0x38>)
10003ea8:	31ff      	adds	r1, #255	; 0xff
10003eaa:	4805      	ldr	r0, [pc, #20]	; (10003ec0 <insert_bl_32+0x3c>)
10003eac:	f003 fa5c 	bl	10007368 <__assert_func>
10003eb0:	fffff000 	.word	0xfffff000
10003eb4:	fffff800 	.word	0xfffff800
10003eb8:	1000c660 	.word	0x1000c660
10003ebc:	1000c828 	.word	0x1000c828
10003ec0:	1000c620 	.word	0x1000c620

10003ec4 <irq_is_enabled>:
10003ec4:	2301      	movs	r3, #1
10003ec6:	4083      	lsls	r3, r0
10003ec8:	4a03      	ldr	r2, [pc, #12]	; (10003ed8 <irq_is_enabled+0x14>)
10003eca:	6810      	ldr	r0, [r2, #0]
10003ecc:	4018      	ands	r0, r3
10003ece:	1e43      	subs	r3, r0, #1
10003ed0:	4198      	sbcs	r0, r3
10003ed2:	b2c0      	uxtb	r0, r0
10003ed4:	4770      	bx	lr
10003ed6:	46c0      	nop			; (mov r8, r8)
10003ed8:	e000e100 	.word	0xe000e100

10003edc <irq_set_mask_n_enabled>:
10003edc:	2a00      	cmp	r2, #0
10003ede:	d005      	beq.n	10003eec <irq_set_mask_n_enabled+0x10>
10003ee0:	4b04      	ldr	r3, [pc, #16]	; (10003ef4 <irq_set_mask_n_enabled+0x18>)
10003ee2:	22c0      	movs	r2, #192	; 0xc0
10003ee4:	0052      	lsls	r2, r2, #1
10003ee6:	5099      	str	r1, [r3, r2]
10003ee8:	6019      	str	r1, [r3, #0]
10003eea:	4770      	bx	lr
10003eec:	4a01      	ldr	r2, [pc, #4]	; (10003ef4 <irq_set_mask_n_enabled+0x18>)
10003eee:	2380      	movs	r3, #128	; 0x80
10003ef0:	50d1      	str	r1, [r2, r3]
10003ef2:	e7fa      	b.n	10003eea <irq_set_mask_n_enabled+0xe>
10003ef4:	e000e100 	.word	0xe000e100

10003ef8 <irq_set_enabled>:
10003ef8:	b510      	push	{r4, lr}
10003efa:	000a      	movs	r2, r1
10003efc:	231f      	movs	r3, #31
10003efe:	4003      	ands	r3, r0
10003f00:	2101      	movs	r1, #1
10003f02:	4099      	lsls	r1, r3
10003f04:	0940      	lsrs	r0, r0, #5
10003f06:	f7ff ffe9 	bl	10003edc <irq_set_mask_n_enabled>
10003f0a:	bd10      	pop	{r4, pc}

10003f0c <irq_get_vtable_handler>:
10003f0c:	4b02      	ldr	r3, [pc, #8]	; (10003f18 <irq_get_vtable_handler+0xc>)
10003f0e:	689b      	ldr	r3, [r3, #8]
10003f10:	3010      	adds	r0, #16
10003f12:	0080      	lsls	r0, r0, #2
10003f14:	58c0      	ldr	r0, [r0, r3]
10003f16:	4770      	bx	lr
10003f18:	e000ed00 	.word	0xe000ed00

10003f1c <irq_set_exclusive_handler>:
10003f1c:	b570      	push	{r4, r5, r6, lr}
10003f1e:	0004      	movs	r4, r0
10003f20:	000d      	movs	r5, r1
10003f22:	f3ef 8610 	mrs	r6, PRIMASK
10003f26:	b672      	cpsid	i
10003f28:	4b0c      	ldr	r3, [pc, #48]	; (10003f5c <irq_set_exclusive_handler+0x40>)
10003f2a:	681b      	ldr	r3, [r3, #0]
10003f2c:	2b00      	cmp	r3, #0
10003f2e:	d0fb      	beq.n	10003f28 <irq_set_exclusive_handler+0xc>
10003f30:	f3bf 8f5f 	dmb	sy
10003f34:	0020      	movs	r0, r4
10003f36:	f7ff ffe9 	bl	10003f0c <irq_get_vtable_handler>
10003f3a:	4b09      	ldr	r3, [pc, #36]	; (10003f60 <irq_set_exclusive_handler+0x44>)
10003f3c:	4298      	cmp	r0, r3
10003f3e:	d001      	beq.n	10003f44 <irq_set_exclusive_handler+0x28>
10003f40:	42a8      	cmp	r0, r5
10003f42:	d105      	bne.n	10003f50 <irq_set_exclusive_handler+0x34>
10003f44:	0032      	movs	r2, r6
10003f46:	0029      	movs	r1, r5
10003f48:	0020      	movs	r0, r4
10003f4a:	f7ff ff4f 	bl	10003dec <set_raw_irq_handler_and_unlock>
10003f4e:	bd70      	pop	{r4, r5, r6, pc}
10003f50:	4b04      	ldr	r3, [pc, #16]	; (10003f64 <irq_set_exclusive_handler+0x48>)
10003f52:	4a05      	ldr	r2, [pc, #20]	; (10003f68 <irq_set_exclusive_handler+0x4c>)
10003f54:	21e1      	movs	r1, #225	; 0xe1
10003f56:	4805      	ldr	r0, [pc, #20]	; (10003f6c <irq_set_exclusive_handler+0x50>)
10003f58:	f003 fa06 	bl	10007368 <__assert_func>
10003f5c:	d0000124 	.word	0xd0000124
10003f60:	100001cd 	.word	0x100001cd
10003f64:	1000c670 	.word	0x1000c670
10003f68:	1000c880 	.word	0x1000c880
10003f6c:	1000c620 	.word	0x1000c620

10003f70 <irq_add_shared_handler>:
10003f70:	b5f0      	push	{r4, r5, r6, r7, lr}
10003f72:	46de      	mov	lr, fp
10003f74:	4657      	mov	r7, sl
10003f76:	464e      	mov	r6, r9
10003f78:	4645      	mov	r5, r8
10003f7a:	b5e0      	push	{r5, r6, r7, lr}
10003f7c:	b089      	sub	sp, #36	; 0x24
10003f7e:	4681      	mov	r9, r0
10003f80:	9101      	str	r1, [sp, #4]
10003f82:	0015      	movs	r5, r2
10003f84:	f3ef 8b10 	mrs	fp, PRIMASK
10003f88:	b672      	cpsid	i
10003f8a:	4b75      	ldr	r3, [pc, #468]	; (10004160 <irq_add_shared_handler+0x1f0>)
10003f8c:	681b      	ldr	r3, [r3, #0]
10003f8e:	2b00      	cmp	r3, #0
10003f90:	d0fb      	beq.n	10003f8a <irq_add_shared_handler+0x1a>
10003f92:	f3bf 8f5f 	dmb	sy
10003f96:	4b73      	ldr	r3, [pc, #460]	; (10004164 <irq_add_shared_handler+0x1f4>)
10003f98:	2700      	movs	r7, #0
10003f9a:	57df      	ldrsb	r7, [r3, r7]
10003f9c:	2f00      	cmp	r7, #0
10003f9e:	db3f      	blt.n	10004020 <irq_add_shared_handler+0xb0>
10003fa0:	007c      	lsls	r4, r7, #1
10003fa2:	19e4      	adds	r4, r4, r7
10003fa4:	00a4      	lsls	r4, r4, #2
10003fa6:	4870      	ldr	r0, [pc, #448]	; (10004168 <irq_add_shared_handler+0x1f8>)
10003fa8:	1824      	adds	r4, r4, r0
10003faa:	2206      	movs	r2, #6
10003fac:	56a2      	ldrsb	r2, [r4, r2]
10003fae:	4b6d      	ldr	r3, [pc, #436]	; (10004164 <irq_add_shared_handler+0x1f4>)
10003fb0:	701a      	strb	r2, [r3, #0]
10003fb2:	4b6e      	ldr	r3, [pc, #440]	; (1000416c <irq_add_shared_handler+0x1fc>)
10003fb4:	689a      	ldr	r2, [r3, #8]
10003fb6:	464b      	mov	r3, r9
10003fb8:	3310      	adds	r3, #16
10003fba:	009b      	lsls	r3, r3, #2
10003fbc:	58d3      	ldr	r3, [r2, r3]
10003fbe:	4698      	mov	r8, r3
10003fc0:	1a1b      	subs	r3, r3, r0
10003fc2:	2b2f      	cmp	r3, #47	; 0x2f
10003fc4:	d93a      	bls.n	1000403c <irq_add_shared_handler+0xcc>
10003fc6:	4b6a      	ldr	r3, [pc, #424]	; (10004170 <irq_add_shared_handler+0x200>)
10003fc8:	4598      	cmp	r8, r3
10003fca:	d130      	bne.n	1000402e <irq_add_shared_handler+0xbe>
10003fcc:	ae05      	add	r6, sp, #20
10003fce:	4b69      	ldr	r3, [pc, #420]	; (10004174 <irq_add_shared_handler+0x204>)
10003fd0:	8033      	strh	r3, [r6, #0]
10003fd2:	007b      	lsls	r3, r7, #1
10003fd4:	469a      	mov	sl, r3
10003fd6:	19d8      	adds	r0, r3, r7
10003fd8:	0080      	lsls	r0, r0, #2
10003fda:	4b63      	ldr	r3, [pc, #396]	; (10004168 <irq_add_shared_handler+0x1f8>)
10003fdc:	4698      	mov	r8, r3
10003fde:	4440      	add	r0, r8
10003fe0:	3002      	adds	r0, #2
10003fe2:	4965      	ldr	r1, [pc, #404]	; (10004178 <irq_add_shared_handler+0x208>)
10003fe4:	f7ff ff28 	bl	10003e38 <make_j_16>
10003fe8:	8070      	strh	r0, [r6, #2]
10003fea:	4b64      	ldr	r3, [pc, #400]	; (1000417c <irq_add_shared_handler+0x20c>)
10003fec:	80b3      	strh	r3, [r6, #4]
10003fee:	23ff      	movs	r3, #255	; 0xff
10003ff0:	71b3      	strb	r3, [r6, #6]
10003ff2:	71f5      	strb	r5, [r6, #7]
10003ff4:	9b01      	ldr	r3, [sp, #4]
10003ff6:	9307      	str	r3, [sp, #28]
10003ff8:	4457      	add	r7, sl
10003ffa:	00bf      	lsls	r7, r7, #2
10003ffc:	4447      	add	r7, r8
10003ffe:	ce0e      	ldmia	r6!, {r1, r2, r3}
10004000:	c70e      	stmia	r7!, {r1, r2, r3}
10004002:	2301      	movs	r3, #1
10004004:	431c      	orrs	r4, r3
10004006:	46a0      	mov	r8, r4
10004008:	465a      	mov	r2, fp
1000400a:	4641      	mov	r1, r8
1000400c:	4648      	mov	r0, r9
1000400e:	f7ff feed 	bl	10003dec <set_raw_irq_handler_and_unlock>
10004012:	b009      	add	sp, #36	; 0x24
10004014:	bcf0      	pop	{r4, r5, r6, r7}
10004016:	46bb      	mov	fp, r7
10004018:	46b2      	mov	sl, r6
1000401a:	46a9      	mov	r9, r5
1000401c:	46a0      	mov	r8, r4
1000401e:	bdf0      	pop	{r4, r5, r6, r7, pc}
10004020:	216e      	movs	r1, #110	; 0x6e
10004022:	4b57      	ldr	r3, [pc, #348]	; (10004180 <irq_add_shared_handler+0x210>)
10004024:	4a57      	ldr	r2, [pc, #348]	; (10004184 <irq_add_shared_handler+0x214>)
10004026:	31ff      	adds	r1, #255	; 0xff
10004028:	4857      	ldr	r0, [pc, #348]	; (10004188 <irq_add_shared_handler+0x218>)
1000402a:	f003 f99d 	bl	10007368 <__assert_func>
1000402e:	21ba      	movs	r1, #186	; 0xba
10004030:	4b56      	ldr	r3, [pc, #344]	; (1000418c <irq_add_shared_handler+0x21c>)
10004032:	4a54      	ldr	r2, [pc, #336]	; (10004184 <irq_add_shared_handler+0x214>)
10004034:	0049      	lsls	r1, r1, #1
10004036:	4854      	ldr	r0, [pc, #336]	; (10004188 <irq_add_shared_handler+0x218>)
10004038:	f003 f996 	bl	10007368 <__assert_func>
1000403c:	2301      	movs	r3, #1
1000403e:	4642      	mov	r2, r8
10004040:	439a      	bics	r2, r3
10004042:	4692      	mov	sl, r2
10004044:	1a10      	subs	r0, r2, r0
10004046:	210c      	movs	r1, #12
10004048:	f001 f988 	bl	1000535c <__wrap___aeabi_uidiv>
1000404c:	2900      	cmp	r1, #0
1000404e:	d10f      	bne.n	10004070 <irq_add_shared_handler+0x100>
10004050:	4653      	mov	r3, sl
10004052:	2600      	movs	r6, #0
10004054:	79da      	ldrb	r2, [r3, #7]
10004056:	42aa      	cmp	r2, r5
10004058:	d912      	bls.n	10004080 <irq_add_shared_handler+0x110>
1000405a:	2106      	movs	r1, #6
1000405c:	5659      	ldrsb	r1, [r3, r1]
1000405e:	2900      	cmp	r1, #0
10004060:	db0d      	blt.n	1000407e <irq_add_shared_handler+0x10e>
10004062:	004a      	lsls	r2, r1, #1
10004064:	1852      	adds	r2, r2, r1
10004066:	0092      	lsls	r2, r2, #2
10004068:	001e      	movs	r6, r3
1000406a:	4b3f      	ldr	r3, [pc, #252]	; (10004168 <irq_add_shared_handler+0x1f8>)
1000406c:	189b      	adds	r3, r3, r2
1000406e:	e7f1      	b.n	10004054 <irq_add_shared_handler+0xe4>
10004070:	2186      	movs	r1, #134	; 0x86
10004072:	4b47      	ldr	r3, [pc, #284]	; (10004190 <irq_add_shared_handler+0x220>)
10004074:	4a43      	ldr	r2, [pc, #268]	; (10004184 <irq_add_shared_handler+0x214>)
10004076:	31ff      	adds	r1, #255	; 0xff
10004078:	4843      	ldr	r0, [pc, #268]	; (10004188 <irq_add_shared_handler+0x218>)
1000407a:	f003 f975 	bl	10007368 <__assert_func>
1000407e:	001e      	movs	r6, r3
10004080:	2e00      	cmp	r6, #0
10004082:	d03b      	beq.n	100040fc <irq_add_shared_handler+0x18c>
10004084:	ab05      	add	r3, sp, #20
10004086:	4a43      	ldr	r2, [pc, #268]	; (10004194 <irq_add_shared_handler+0x224>)
10004088:	801a      	strh	r2, [r3, #0]
1000408a:	3a81      	subs	r2, #129	; 0x81
1000408c:	805a      	strh	r2, [r3, #2]
1000408e:	2306      	movs	r3, #6
10004090:	56f3      	ldrsb	r3, [r6, r3]
10004092:	9302      	str	r3, [sp, #8]
10004094:	2b00      	cmp	r3, #0
10004096:	da17      	bge.n	100040c8 <irq_add_shared_handler+0x158>
10004098:	483f      	ldr	r0, [pc, #252]	; (10004198 <irq_add_shared_handler+0x228>)
1000409a:	ab05      	add	r3, sp, #20
1000409c:	469a      	mov	sl, r3
1000409e:	8098      	strh	r0, [r3, #4]
100040a0:	9a02      	ldr	r2, [sp, #8]
100040a2:	719a      	strb	r2, [r3, #6]
100040a4:	71dd      	strb	r5, [r3, #7]
100040a6:	9a01      	ldr	r2, [sp, #4]
100040a8:	9207      	str	r2, [sp, #28]
100040aa:	1d30      	adds	r0, r6, #4
100040ac:	0021      	movs	r1, r4
100040ae:	f7ff fec3 	bl	10003e38 <make_j_16>
100040b2:	80b0      	strh	r0, [r6, #4]
100040b4:	71b7      	strb	r7, [r6, #6]
100040b6:	007b      	lsls	r3, r7, #1
100040b8:	19db      	adds	r3, r3, r7
100040ba:	009b      	lsls	r3, r3, #2
100040bc:	4f2a      	ldr	r7, [pc, #168]	; (10004168 <irq_add_shared_handler+0x1f8>)
100040be:	18ff      	adds	r7, r7, r3
100040c0:	4653      	mov	r3, sl
100040c2:	cb07      	ldmia	r3!, {r0, r1, r2}
100040c4:	c707      	stmia	r7!, {r0, r1, r2}
100040c6:	e79f      	b.n	10004008 <irq_add_shared_handler+0x98>
100040c8:	0078      	lsls	r0, r7, #1
100040ca:	19c0      	adds	r0, r0, r7
100040cc:	0080      	lsls	r0, r0, #2
100040ce:	4b26      	ldr	r3, [pc, #152]	; (10004168 <irq_add_shared_handler+0x1f8>)
100040d0:	18c0      	adds	r0, r0, r3
100040d2:	3004      	adds	r0, #4
100040d4:	1d32      	adds	r2, r6, #4
100040d6:	88b3      	ldrh	r3, [r6, #4]
100040d8:	0ad9      	lsrs	r1, r3, #11
100040da:	291c      	cmp	r1, #28
100040dc:	d107      	bne.n	100040ee <irq_add_shared_handler+0x17e>
100040de:	055b      	lsls	r3, r3, #21
100040e0:	1559      	asrs	r1, r3, #21
100040e2:	3102      	adds	r1, #2
100040e4:	0049      	lsls	r1, r1, #1
100040e6:	1851      	adds	r1, r2, r1
100040e8:	f7ff fea6 	bl	10003e38 <make_j_16>
100040ec:	e7d5      	b.n	1000409a <irq_add_shared_handler+0x12a>
100040ee:	2110      	movs	r1, #16
100040f0:	4b2a      	ldr	r3, [pc, #168]	; (1000419c <irq_add_shared_handler+0x22c>)
100040f2:	4a2b      	ldr	r2, [pc, #172]	; (100041a0 <irq_add_shared_handler+0x230>)
100040f4:	31ff      	adds	r1, #255	; 0xff
100040f6:	4824      	ldr	r0, [pc, #144]	; (10004188 <irq_add_shared_handler+0x218>)
100040f8:	f003 f936 	bl	10007368 <__assert_func>
100040fc:	ae05      	add	r6, sp, #20
100040fe:	4b1d      	ldr	r3, [pc, #116]	; (10004174 <irq_add_shared_handler+0x204>)
10004100:	8033      	strh	r3, [r6, #0]
10004102:	007b      	lsls	r3, r7, #1
10004104:	9302      	str	r3, [sp, #8]
10004106:	19d8      	adds	r0, r3, r7
10004108:	0080      	lsls	r0, r0, #2
1000410a:	4a17      	ldr	r2, [pc, #92]	; (10004168 <irq_add_shared_handler+0x1f8>)
1000410c:	4690      	mov	r8, r2
1000410e:	0002      	movs	r2, r0
10004110:	4442      	add	r2, r8
10004112:	9203      	str	r2, [sp, #12]
10004114:	1c90      	adds	r0, r2, #2
10004116:	4918      	ldr	r1, [pc, #96]	; (10004178 <irq_add_shared_handler+0x208>)
10004118:	f7ff fe8e 	bl	10003e38 <make_j_16>
1000411c:	8070      	strh	r0, [r6, #2]
1000411e:	9a03      	ldr	r2, [sp, #12]
10004120:	1d10      	adds	r0, r2, #4
10004122:	4651      	mov	r1, sl
10004124:	f7ff fe88 	bl	10003e38 <make_j_16>
10004128:	80b0      	strh	r0, [r6, #4]
1000412a:	4b1e      	ldr	r3, [pc, #120]	; (100041a4 <irq_add_shared_handler+0x234>)
1000412c:	4652      	mov	r2, sl
1000412e:	4641      	mov	r1, r8
10004130:	1a52      	subs	r2, r2, r1
10004132:	4152      	adcs	r2, r2
10004134:	4353      	muls	r3, r2
10004136:	0d1b      	lsrs	r3, r3, #20
10004138:	71b3      	strb	r3, [r6, #6]
1000413a:	71f5      	strb	r5, [r6, #7]
1000413c:	9a01      	ldr	r2, [sp, #4]
1000413e:	9207      	str	r2, [sp, #28]
10004140:	9b02      	ldr	r3, [sp, #8]
10004142:	469c      	mov	ip, r3
10004144:	4467      	add	r7, ip
10004146:	00bf      	lsls	r7, r7, #2
10004148:	4447      	add	r7, r8
1000414a:	ce0e      	ldmia	r6!, {r1, r2, r3}
1000414c:	c70e      	stmia	r7!, {r1, r2, r3}
1000414e:	4b11      	ldr	r3, [pc, #68]	; (10004194 <irq_add_shared_handler+0x224>)
10004150:	4652      	mov	r2, sl
10004152:	8013      	strh	r3, [r2, #0]
10004154:	3b81      	subs	r3, #129	; 0x81
10004156:	8053      	strh	r3, [r2, #2]
10004158:	2301      	movs	r3, #1
1000415a:	431c      	orrs	r4, r3
1000415c:	46a0      	mov	r8, r4
1000415e:	e753      	b.n	10004008 <irq_add_shared_handler+0x98>
10004160:	d0000124 	.word	0xd0000124
10004164:	20002c6e 	.word	0x20002c6e
10004168:	20000964 	.word	0x20000964
1000416c:	e000ed00 	.word	0xe000ed00
10004170:	100001cd 	.word	0x100001cd
10004174:	ffffa100 	.word	0xffffa100
10004178:	20000994 	.word	0x20000994
1000417c:	ffffbd01 	.word	0xffffbd01
10004180:	1000c6a8 	.word	0x1000c6a8
10004184:	1000c868 	.word	0x1000c868
10004188:	1000c620 	.word	0x1000c620
1000418c:	1000c6d0 	.word	0x1000c6d0
10004190:	1000c6f8 	.word	0x1000c6f8
10004194:	00004801 	.word	0x00004801
10004198:	0000bd01 	.word	0x0000bd01
1000419c:	1000c77c 	.word	0x1000c77c
100041a0:	1000c858 	.word	0x1000c858
100041a4:	0000aaaa 	.word	0x0000aaaa

100041a8 <irq_remove_handler>:
100041a8:	b5f0      	push	{r4, r5, r6, r7, lr}
100041aa:	46ce      	mov	lr, r9
100041ac:	4647      	mov	r7, r8
100041ae:	b580      	push	{r7, lr}
100041b0:	b083      	sub	sp, #12
100041b2:	0006      	movs	r6, r0
100041b4:	000d      	movs	r5, r1
100041b6:	f3ef 8810 	mrs	r8, PRIMASK
100041ba:	b672      	cpsid	i
100041bc:	4b56      	ldr	r3, [pc, #344]	; (10004318 <irq_remove_handler+0x170>)
100041be:	681b      	ldr	r3, [r3, #0]
100041c0:	2b00      	cmp	r3, #0
100041c2:	d0fb      	beq.n	100041bc <irq_remove_handler+0x14>
100041c4:	f3bf 8f5f 	dmb	sy
100041c8:	4b54      	ldr	r3, [pc, #336]	; (1000431c <irq_remove_handler+0x174>)
100041ca:	689a      	ldr	r2, [r3, #8]
100041cc:	0034      	movs	r4, r6
100041ce:	3410      	adds	r4, #16
100041d0:	00a3      	lsls	r3, r4, #2
100041d2:	58d7      	ldr	r7, [r2, r3]
100041d4:	4b52      	ldr	r3, [pc, #328]	; (10004320 <irq_remove_handler+0x178>)
100041d6:	429f      	cmp	r7, r3
100041d8:	d007      	beq.n	100041ea <irq_remove_handler+0x42>
100041da:	42af      	cmp	r7, r5
100041dc:	d100      	bne.n	100041e0 <irq_remove_handler+0x38>
100041de:	e098      	b.n	10004312 <irq_remove_handler+0x16a>
100041e0:	9701      	str	r7, [sp, #4]
100041e2:	4b50      	ldr	r3, [pc, #320]	; (10004324 <irq_remove_handler+0x17c>)
100041e4:	1afb      	subs	r3, r7, r3
100041e6:	2b2f      	cmp	r3, #47	; 0x2f
100041e8:	d909      	bls.n	100041fe <irq_remove_handler+0x56>
100041ea:	4642      	mov	r2, r8
100041ec:	0039      	movs	r1, r7
100041ee:	0030      	movs	r0, r6
100041f0:	f7ff fdfc 	bl	10003dec <set_raw_irq_handler_and_unlock>
100041f4:	b003      	add	sp, #12
100041f6:	bcc0      	pop	{r6, r7}
100041f8:	46b9      	mov	r9, r7
100041fa:	46b0      	mov	r8, r6
100041fc:	bdf0      	pop	{r4, r5, r6, r7, pc}
100041fe:	0030      	movs	r0, r6
10004200:	f7ff fe60 	bl	10003ec4 <irq_is_enabled>
10004204:	4681      	mov	r9, r0
10004206:	2100      	movs	r1, #0
10004208:	0030      	movs	r0, r6
1000420a:	f7ff fe75 	bl	10003ef8 <irq_set_enabled>
1000420e:	f3bf 8f5f 	dmb	sy
10004212:	f3ef 8105 	mrs	r1, IPSR
10004216:	2900      	cmp	r1, #0
10004218:	d001      	beq.n	1000421e <irq_remove_handler+0x76>
1000421a:	428c      	cmp	r4, r1
1000421c:	d111      	bne.n	10004242 <irq_remove_handler+0x9a>
1000421e:	2301      	movs	r3, #1
10004220:	9c01      	ldr	r4, [sp, #4]
10004222:	439c      	bics	r4, r3
10004224:	2200      	movs	r2, #0
10004226:	68a3      	ldr	r3, [r4, #8]
10004228:	429d      	cmp	r5, r3
1000422a:	d012      	beq.n	10004252 <irq_remove_handler+0xaa>
1000422c:	2206      	movs	r2, #6
1000422e:	56a2      	ldrsb	r2, [r4, r2]
10004230:	2a00      	cmp	r2, #0
10004232:	db0d      	blt.n	10004250 <irq_remove_handler+0xa8>
10004234:	0053      	lsls	r3, r2, #1
10004236:	189b      	adds	r3, r3, r2
10004238:	009b      	lsls	r3, r3, #2
1000423a:	0022      	movs	r2, r4
1000423c:	4c39      	ldr	r4, [pc, #228]	; (10004324 <irq_remove_handler+0x17c>)
1000423e:	18e4      	adds	r4, r4, r3
10004240:	e7f1      	b.n	10004226 <irq_remove_handler+0x7e>
10004242:	21f4      	movs	r1, #244	; 0xf4
10004244:	4b38      	ldr	r3, [pc, #224]	; (10004328 <irq_remove_handler+0x180>)
10004246:	4a39      	ldr	r2, [pc, #228]	; (1000432c <irq_remove_handler+0x184>)
10004248:	31ff      	adds	r1, #255	; 0xff
1000424a:	4839      	ldr	r0, [pc, #228]	; (10004330 <irq_remove_handler+0x188>)
1000424c:	f003 f88c 	bl	10007368 <__assert_func>
10004250:	0022      	movs	r2, r4
10004252:	429d      	cmp	r5, r3
10004254:	d157      	bne.n	10004306 <irq_remove_handler+0x15e>
10004256:	2506      	movs	r5, #6
10004258:	5765      	ldrsb	r5, [r4, r5]
1000425a:	2d00      	cmp	r5, #0
1000425c:	db39      	blt.n	100042d2 <irq_remove_handler+0x12a>
1000425e:	006b      	lsls	r3, r5, #1
10004260:	195b      	adds	r3, r3, r5
10004262:	009a      	lsls	r2, r3, #2
10004264:	4b2f      	ldr	r3, [pc, #188]	; (10004324 <irq_remove_handler+0x17c>)
10004266:	189b      	adds	r3, r3, r2
10004268:	689a      	ldr	r2, [r3, #8]
1000426a:	60a2      	str	r2, [r4, #8]
1000426c:	79da      	ldrb	r2, [r3, #7]
1000426e:	71e2      	strb	r2, [r4, #7]
10004270:	2206      	movs	r2, #6
10004272:	569a      	ldrsb	r2, [r3, r2]
10004274:	71a2      	strb	r2, [r4, #6]
10004276:	799b      	ldrb	r3, [r3, #6]
10004278:	b25b      	sxtb	r3, r3
1000427a:	2b00      	cmp	r3, #0
1000427c:	da0f      	bge.n	1000429e <irq_remove_handler+0xf6>
1000427e:	482d      	ldr	r0, [pc, #180]	; (10004334 <irq_remove_handler+0x18c>)
10004280:	80a0      	strh	r0, [r4, #4]
10004282:	006b      	lsls	r3, r5, #1
10004284:	195b      	adds	r3, r3, r5
10004286:	009b      	lsls	r3, r3, #2
10004288:	4a26      	ldr	r2, [pc, #152]	; (10004324 <irq_remove_handler+0x17c>)
1000428a:	18d3      	adds	r3, r2, r3
1000428c:	4a2a      	ldr	r2, [pc, #168]	; (10004338 <irq_remove_handler+0x190>)
1000428e:	7811      	ldrb	r1, [r2, #0]
10004290:	7199      	strb	r1, [r3, #6]
10004292:	7015      	strb	r5, [r2, #0]
10004294:	4649      	mov	r1, r9
10004296:	0030      	movs	r0, r6
10004298:	f7ff fe2e 	bl	10003ef8 <irq_set_enabled>
1000429c:	e7a5      	b.n	100041ea <irq_remove_handler+0x42>
1000429e:	1d20      	adds	r0, r4, #4
100042a0:	006b      	lsls	r3, r5, #1
100042a2:	195b      	adds	r3, r3, r5
100042a4:	009b      	lsls	r3, r3, #2
100042a6:	4a1f      	ldr	r2, [pc, #124]	; (10004324 <irq_remove_handler+0x17c>)
100042a8:	189b      	adds	r3, r3, r2
100042aa:	1d1a      	adds	r2, r3, #4
100042ac:	889b      	ldrh	r3, [r3, #4]
100042ae:	0ad9      	lsrs	r1, r3, #11
100042b0:	291c      	cmp	r1, #28
100042b2:	d107      	bne.n	100042c4 <irq_remove_handler+0x11c>
100042b4:	055b      	lsls	r3, r3, #21
100042b6:	155b      	asrs	r3, r3, #21
100042b8:	3302      	adds	r3, #2
100042ba:	0059      	lsls	r1, r3, #1
100042bc:	1851      	adds	r1, r2, r1
100042be:	f7ff fdbb 	bl	10003e38 <make_j_16>
100042c2:	e7dd      	b.n	10004280 <irq_remove_handler+0xd8>
100042c4:	2110      	movs	r1, #16
100042c6:	4b1d      	ldr	r3, [pc, #116]	; (1000433c <irq_remove_handler+0x194>)
100042c8:	4a1d      	ldr	r2, [pc, #116]	; (10004340 <irq_remove_handler+0x198>)
100042ca:	31ff      	adds	r1, #255	; 0xff
100042cc:	4818      	ldr	r0, [pc, #96]	; (10004330 <irq_remove_handler+0x188>)
100042ce:	f003 f84b 	bl	10007368 <__assert_func>
100042d2:	2900      	cmp	r1, #0
100042d4:	d112      	bne.n	100042fc <irq_remove_handler+0x154>
100042d6:	2a00      	cmp	r2, #0
100042d8:	d00e      	beq.n	100042f8 <irq_remove_handler+0x150>
100042da:	23ff      	movs	r3, #255	; 0xff
100042dc:	7193      	strb	r3, [r2, #6]
100042de:	4b19      	ldr	r3, [pc, #100]	; (10004344 <irq_remove_handler+0x19c>)
100042e0:	8093      	strh	r3, [r2, #4]
100042e2:	4a15      	ldr	r2, [pc, #84]	; (10004338 <irq_remove_handler+0x190>)
100042e4:	7813      	ldrb	r3, [r2, #0]
100042e6:	71a3      	strb	r3, [r4, #6]
100042e8:	4b17      	ldr	r3, [pc, #92]	; (10004348 <irq_remove_handler+0x1a0>)
100042ea:	490e      	ldr	r1, [pc, #56]	; (10004324 <irq_remove_handler+0x17c>)
100042ec:	1a64      	subs	r4, r4, r1
100042ee:	4164      	adcs	r4, r4
100042f0:	4363      	muls	r3, r4
100042f2:	0d1b      	lsrs	r3, r3, #20
100042f4:	7013      	strb	r3, [r2, #0]
100042f6:	e7cd      	b.n	10004294 <irq_remove_handler+0xec>
100042f8:	4f09      	ldr	r7, [pc, #36]	; (10004320 <irq_remove_handler+0x178>)
100042fa:	e7f2      	b.n	100042e2 <irq_remove_handler+0x13a>
100042fc:	1d20      	adds	r0, r4, #4
100042fe:	4913      	ldr	r1, [pc, #76]	; (1000434c <irq_remove_handler+0x1a4>)
10004300:	f7ff fdc0 	bl	10003e84 <insert_bl_32>
10004304:	e7c6      	b.n	10004294 <irq_remove_handler+0xec>
10004306:	4b12      	ldr	r3, [pc, #72]	; (10004350 <irq_remove_handler+0x1a8>)
10004308:	4a08      	ldr	r2, [pc, #32]	; (1000432c <irq_remove_handler+0x184>)
1000430a:	4912      	ldr	r1, [pc, #72]	; (10004354 <irq_remove_handler+0x1ac>)
1000430c:	4808      	ldr	r0, [pc, #32]	; (10004330 <irq_remove_handler+0x188>)
1000430e:	f003 f82b 	bl	10007368 <__assert_func>
10004312:	4f03      	ldr	r7, [pc, #12]	; (10004320 <irq_remove_handler+0x178>)
10004314:	e769      	b.n	100041ea <irq_remove_handler+0x42>
10004316:	46c0      	nop			; (mov r8, r8)
10004318:	d0000124 	.word	0xd0000124
1000431c:	e000ed00 	.word	0xe000ed00
10004320:	100001cd 	.word	0x100001cd
10004324:	20000964 	.word	0x20000964
10004328:	1000c794 	.word	0x1000c794
1000432c:	1000c838 	.word	0x1000c838
10004330:	1000c620 	.word	0x1000c620
10004334:	0000bd01 	.word	0x0000bd01
10004338:	20002c6e 	.word	0x20002c6e
1000433c:	1000c77c 	.word	0x1000c77c
10004340:	1000c858 	.word	0x1000c858
10004344:	ffffbd01 	.word	0xffffbd01
10004348:	0000aaaa 	.word	0x0000aaaa
1000434c:	2000099e 	.word	0x2000099e
10004350:	1000c7c8 	.word	0x1000c7c8
10004354:	00000235 	.word	0x00000235

10004358 <irq_add_tail_to_free_list>:
10004358:	b570      	push	{r4, r5, r6, lr}
1000435a:	2101      	movs	r1, #1
1000435c:	4301      	orrs	r1, r0
1000435e:	4b2c      	ldr	r3, [pc, #176]	; (10004410 <irq_add_tail_to_free_list+0xb8>)
10004360:	1acb      	subs	r3, r1, r3
10004362:	2b2f      	cmp	r3, #47	; 0x2f
10004364:	d828      	bhi.n	100043b8 <irq_add_tail_to_free_list+0x60>
10004366:	f3ef 8305 	mrs	r3, IPSR
1000436a:	2b00      	cmp	r3, #0
1000436c:	d02a      	beq.n	100043c4 <irq_add_tail_to_free_list+0x6c>
1000436e:	f3ef 8c10 	mrs	ip, PRIMASK
10004372:	b672      	cpsid	i
10004374:	4a27      	ldr	r2, [pc, #156]	; (10004414 <irq_add_tail_to_free_list+0xbc>)
10004376:	6812      	ldr	r2, [r2, #0]
10004378:	2a00      	cmp	r2, #0
1000437a:	d0fb      	beq.n	10004374 <irq_add_tail_to_free_list+0x1c>
1000437c:	f3bf 8f5f 	dmb	sy
10004380:	4a25      	ldr	r2, [pc, #148]	; (10004418 <irq_add_tail_to_free_list+0xc0>)
10004382:	0004      	movs	r4, r0
10004384:	4d22      	ldr	r5, [pc, #136]	; (10004410 <irq_add_tail_to_free_list+0xb8>)
10004386:	1b64      	subs	r4, r4, r5
10004388:	4164      	adcs	r4, r4
1000438a:	4362      	muls	r2, r4
1000438c:	0d12      	lsrs	r2, r2, #20
1000438e:	b254      	sxtb	r4, r2
10004390:	4a22      	ldr	r2, [pc, #136]	; (1000441c <irq_add_tail_to_free_list+0xc4>)
10004392:	6892      	ldr	r2, [r2, #8]
10004394:	009b      	lsls	r3, r3, #2
10004396:	58d2      	ldr	r2, [r2, r3]
10004398:	428a      	cmp	r2, r1
1000439a:	d019      	beq.n	100043d0 <irq_add_tail_to_free_list+0x78>
1000439c:	2200      	movs	r2, #0
1000439e:	2a03      	cmp	r2, #3
100043a0:	d830      	bhi.n	10004404 <irq_add_tail_to_free_list+0xac>
100043a2:	0053      	lsls	r3, r2, #1
100043a4:	189b      	adds	r3, r3, r2
100043a6:	009b      	lsls	r3, r3, #2
100043a8:	4919      	ldr	r1, [pc, #100]	; (10004410 <irq_add_tail_to_free_list+0xb8>)
100043aa:	18cb      	adds	r3, r1, r3
100043ac:	799b      	ldrb	r3, [r3, #6]
100043ae:	b25b      	sxtb	r3, r3
100043b0:	42a3      	cmp	r3, r4
100043b2:	d01d      	beq.n	100043f0 <irq_add_tail_to_free_list+0x98>
100043b4:	3201      	adds	r2, #1
100043b6:	e7f2      	b.n	1000439e <irq_add_tail_to_free_list+0x46>
100043b8:	4b19      	ldr	r3, [pc, #100]	; (10004420 <irq_add_tail_to_free_list+0xc8>)
100043ba:	4a1a      	ldr	r2, [pc, #104]	; (10004424 <irq_add_tail_to_free_list+0xcc>)
100043bc:	491a      	ldr	r1, [pc, #104]	; (10004428 <irq_add_tail_to_free_list+0xd0>)
100043be:	481b      	ldr	r0, [pc, #108]	; (1000442c <irq_add_tail_to_free_list+0xd4>)
100043c0:	f002 ffd2 	bl	10007368 <__assert_func>
100043c4:	4b1a      	ldr	r3, [pc, #104]	; (10004430 <irq_add_tail_to_free_list+0xd8>)
100043c6:	4a17      	ldr	r2, [pc, #92]	; (10004424 <irq_add_tail_to_free_list+0xcc>)
100043c8:	491a      	ldr	r1, [pc, #104]	; (10004434 <irq_add_tail_to_free_list+0xdc>)
100043ca:	4818      	ldr	r0, [pc, #96]	; (1000442c <irq_add_tail_to_free_list+0xd4>)
100043cc:	f002 ffcc 	bl	10007368 <__assert_func>
100043d0:	4a12      	ldr	r2, [pc, #72]	; (1000441c <irq_add_tail_to_free_list+0xc4>)
100043d2:	6892      	ldr	r2, [r2, #8]
100043d4:	4918      	ldr	r1, [pc, #96]	; (10004438 <irq_add_tail_to_free_list+0xe0>)
100043d6:	50d1      	str	r1, [r2, r3]
100043d8:	4b18      	ldr	r3, [pc, #96]	; (1000443c <irq_add_tail_to_free_list+0xe4>)
100043da:	781a      	ldrb	r2, [r3, #0]
100043dc:	7182      	strb	r2, [r0, #6]
100043de:	701c      	strb	r4, [r3, #0]
100043e0:	f3bf 8f5f 	dmb	sy
100043e4:	4b0b      	ldr	r3, [pc, #44]	; (10004414 <irq_add_tail_to_free_list+0xbc>)
100043e6:	2200      	movs	r2, #0
100043e8:	601a      	str	r2, [r3, #0]
100043ea:	f38c 8810 	msr	PRIMASK, ip
100043ee:	bd70      	pop	{r4, r5, r6, pc}
100043f0:	000d      	movs	r5, r1
100043f2:	0053      	lsls	r3, r2, #1
100043f4:	1899      	adds	r1, r3, r2
100043f6:	0089      	lsls	r1, r1, #2
100043f8:	1869      	adds	r1, r5, r1
100043fa:	26ff      	movs	r6, #255	; 0xff
100043fc:	718e      	strb	r6, [r1, #6]
100043fe:	4a10      	ldr	r2, [pc, #64]	; (10004440 <irq_add_tail_to_free_list+0xe8>)
10004400:	808a      	strh	r2, [r1, #4]
10004402:	e7e9      	b.n	100043d8 <irq_add_tail_to_free_list+0x80>
10004404:	4b0f      	ldr	r3, [pc, #60]	; (10004444 <irq_add_tail_to_free_list+0xec>)
10004406:	4a07      	ldr	r2, [pc, #28]	; (10004424 <irq_add_tail_to_free_list+0xcc>)
10004408:	490f      	ldr	r1, [pc, #60]	; (10004448 <irq_add_tail_to_free_list+0xf0>)
1000440a:	4808      	ldr	r0, [pc, #32]	; (1000442c <irq_add_tail_to_free_list+0xd4>)
1000440c:	f002 ffac 	bl	10007368 <__assert_func>
10004410:	20000964 	.word	0x20000964
10004414:	d0000124 	.word	0xd0000124
10004418:	0000aaaa 	.word	0x0000aaaa
1000441c:	e000ed00 	.word	0xe000ed00
10004420:	1000c7d0 	.word	0x1000c7d0
10004424:	1000c80c 	.word	0x1000c80c
10004428:	0000026e 	.word	0x0000026e
1000442c:	1000c620 	.word	0x1000c620
10004430:	1000c7f8 	.word	0x1000c7f8
10004434:	00000271 	.word	0x00000271
10004438:	100001cd 	.word	0x100001cd
1000443c:	20002c6e 	.word	0x20002c6e
10004440:	ffffbd01 	.word	0xffffbd01
10004444:	1000c804 	.word	0x1000c804
10004448:	00000282 	.word	0x00000282

1000444c <lock_init>:
1000444c:	4b02      	ldr	r3, [pc, #8]	; (10004458 <lock_init+0xc>)
1000444e:	469c      	mov	ip, r3
10004450:	4461      	add	r1, ip
10004452:	0089      	lsls	r1, r1, #2
10004454:	6001      	str	r1, [r0, #0]
10004456:	4770      	bx	lr
10004458:	34000040 	.word	0x34000040

1000445c <mutex_init>:
1000445c:	b510      	push	{r4, lr}
1000445e:	0004      	movs	r4, r0
10004460:	f7ff fc96 	bl	10003d90 <next_striped_spin_lock_num>
10004464:	0001      	movs	r1, r0
10004466:	0020      	movs	r0, r4
10004468:	f7ff fff0 	bl	1000444c <lock_init>
1000446c:	23ff      	movs	r3, #255	; 0xff
1000446e:	7123      	strb	r3, [r4, #4]
10004470:	f3bf 8f5f 	dmb	sy
10004474:	bd10      	pop	{r4, pc}

10004476 <recursive_mutex_init>:
10004476:	b510      	push	{r4, lr}
10004478:	0004      	movs	r4, r0
1000447a:	f7ff fc89 	bl	10003d90 <next_striped_spin_lock_num>
1000447e:	0001      	movs	r1, r0
10004480:	0020      	movs	r0, r4
10004482:	f7ff ffe3 	bl	1000444c <lock_init>
10004486:	23ff      	movs	r3, #255	; 0xff
10004488:	7123      	strb	r3, [r4, #4]
1000448a:	2300      	movs	r3, #0
1000448c:	7163      	strb	r3, [r4, #5]
1000448e:	f3bf 8f5f 	dmb	sy
10004492:	bd10      	pop	{r4, pc}

10004494 <runtime_init_mutex>:
10004494:	b510      	push	{r4, lr}
10004496:	4c0d      	ldr	r4, [pc, #52]	; (100044cc <runtime_init_mutex+0x38>)
10004498:	e009      	b.n	100044ae <runtime_init_mutex+0x1a>
1000449a:	4b0d      	ldr	r3, [pc, #52]	; (100044d0 <runtime_init_mutex+0x3c>)
1000449c:	4a0d      	ldr	r2, [pc, #52]	; (100044d4 <runtime_init_mutex+0x40>)
1000449e:	211a      	movs	r1, #26
100044a0:	480d      	ldr	r0, [pc, #52]	; (100044d8 <runtime_init_mutex+0x44>)
100044a2:	f002 ff61 	bl	10007368 <__assert_func>
100044a6:	0020      	movs	r0, r4
100044a8:	f7ff ffd8 	bl	1000445c <mutex_init>
100044ac:	3408      	adds	r4, #8
100044ae:	4b0b      	ldr	r3, [pc, #44]	; (100044dc <runtime_init_mutex+0x48>)
100044b0:	429c      	cmp	r4, r3
100044b2:	d209      	bcs.n	100044c8 <runtime_init_mutex+0x34>
100044b4:	6823      	ldr	r3, [r4, #0]
100044b6:	2b00      	cmp	r3, #0
100044b8:	d0f5      	beq.n	100044a6 <runtime_init_mutex+0x12>
100044ba:	2b01      	cmp	r3, #1
100044bc:	d1ed      	bne.n	1000449a <runtime_init_mutex+0x6>
100044be:	0020      	movs	r0, r4
100044c0:	f7ff ffd9 	bl	10004476 <recursive_mutex_init>
100044c4:	3408      	adds	r4, #8
100044c6:	e7f2      	b.n	100044ae <runtime_init_mutex+0x1a>
100044c8:	bd10      	pop	{r4, pc}
100044ca:	46c0      	nop			; (mov r8, r8)
100044cc:	20001268 	.word	0x20001268
100044d0:	1000c89c 	.word	0x1000c89c
100044d4:	1000c970 	.word	0x1000c970
100044d8:	1000c8bc 	.word	0x1000c8bc
100044dc:	20001270 	.word	0x20001270

100044e0 <critical_section_init_with_lock_num>:
100044e0:	4b03      	ldr	r3, [pc, #12]	; (100044f0 <critical_section_init_with_lock_num+0x10>)
100044e2:	469c      	mov	ip, r3
100044e4:	4461      	add	r1, ip
100044e6:	0089      	lsls	r1, r1, #2
100044e8:	6001      	str	r1, [r0, #0]
100044ea:	f3bf 8f5f 	dmb	sy
100044ee:	4770      	bx	lr
100044f0:	34000040 	.word	0x34000040

100044f4 <critical_section_init>:
100044f4:	b510      	push	{r4, lr}
100044f6:	0004      	movs	r4, r0
100044f8:	2001      	movs	r0, #1
100044fa:	f7ff fc57 	bl	10003dac <spin_lock_claim_unused>
100044fe:	0001      	movs	r1, r0
10004500:	0020      	movs	r0, r4
10004502:	f7ff ffed 	bl	100044e0 <critical_section_init_with_lock_num>
10004506:	bd10      	pop	{r4, pc}

10004508 <make_alarm_id>:
10004508:	0400      	lsls	r0, r0, #16
1000450a:	4308      	orrs	r0, r1
1000450c:	4770      	bx	lr
	...

10004510 <sleep_until_callback>:
10004510:	4b0a      	ldr	r3, [pc, #40]	; (1000453c <sleep_until_callback+0x2c>)
10004512:	681a      	ldr	r2, [r3, #0]
10004514:	f3ef 8110 	mrs	r1, PRIMASK
10004518:	b672      	cpsid	i
1000451a:	6813      	ldr	r3, [r2, #0]
1000451c:	2b00      	cmp	r3, #0
1000451e:	d0fc      	beq.n	1000451a <sleep_until_callback+0xa>
10004520:	f3bf 8f5f 	dmb	sy
10004524:	4b05      	ldr	r3, [pc, #20]	; (1000453c <sleep_until_callback+0x2c>)
10004526:	681b      	ldr	r3, [r3, #0]
10004528:	f3bf 8f5f 	dmb	sy
1000452c:	2200      	movs	r2, #0
1000452e:	601a      	str	r2, [r3, #0]
10004530:	f381 8810 	msr	PRIMASK, r1
10004534:	bf40      	sev
10004536:	2000      	movs	r0, #0
10004538:	2100      	movs	r1, #0
1000453a:	4770      	bx	lr
1000453c:	20002c54 	.word	0x20002c54

10004540 <alarm_pool_irq_handler>:
10004540:	b5f0      	push	{r4, r5, r6, r7, lr}
10004542:	46de      	mov	lr, fp
10004544:	4657      	mov	r7, sl
10004546:	464e      	mov	r6, r9
10004548:	4645      	mov	r5, r8
1000454a:	b5e0      	push	{r5, r6, r7, lr}
1000454c:	b083      	sub	sp, #12
1000454e:	f3ef 8305 	mrs	r3, IPSR
10004552:	2203      	movs	r2, #3
10004554:	401a      	ands	r2, r3
10004556:	4693      	mov	fp, r2
10004558:	0092      	lsls	r2, r2, #2
1000455a:	4bab      	ldr	r3, [pc, #684]	; (10004808 <alarm_pool_irq_handler+0x2c8>)
1000455c:	58d3      	ldr	r3, [r2, r3]
1000455e:	4698      	mov	r8, r3
10004560:	781b      	ldrb	r3, [r3, #0]
10004562:	455b      	cmp	r3, fp
10004564:	d10c      	bne.n	10004580 <alarm_pool_irq_handler+0x40>
10004566:	48a9      	ldr	r0, [pc, #676]	; (1000480c <alarm_pool_irq_handler+0x2cc>)
10004568:	f000 fb84 	bl	10004c74 <timer_time_us_64>
1000456c:	0002      	movs	r2, r0
1000456e:	000b      	movs	r3, r1
10004570:	2101      	movs	r1, #1
10004572:	4658      	mov	r0, fp
10004574:	4081      	lsls	r1, r0
10004576:	0008      	movs	r0, r1
10004578:	468a      	mov	sl, r1
1000457a:	49a5      	ldr	r1, [pc, #660]	; (10004810 <alarm_pool_irq_handler+0x2d0>)
1000457c:	6008      	str	r0, [r1, #0]
1000457e:	e077      	b.n	10004670 <alarm_pool_irq_handler+0x130>
10004580:	4ba4      	ldr	r3, [pc, #656]	; (10004814 <alarm_pool_irq_handler+0x2d4>)
10004582:	4aa5      	ldr	r2, [pc, #660]	; (10004818 <alarm_pool_irq_handler+0x2d8>)
10004584:	2190      	movs	r1, #144	; 0x90
10004586:	48a5      	ldr	r0, [pc, #660]	; (1000481c <alarm_pool_irq_handler+0x2dc>)
10004588:	f002 feee 	bl	10007368 <__assert_func>
1000458c:	694c      	ldr	r4, [r1, #20]
1000458e:	0020      	movs	r0, r4
10004590:	6923      	ldr	r3, [r4, #16]
10004592:	4798      	blx	r3
10004594:	2800      	cmp	r0, #0
10004596:	d025      	beq.n	100045e4 <alarm_pool_irq_handler+0xa4>
10004598:	6823      	ldr	r3, [r4, #0]
1000459a:	6864      	ldr	r4, [r4, #4]
1000459c:	9300      	str	r3, [sp, #0]
1000459e:	9401      	str	r4, [sp, #4]
100045a0:	e08d      	b.n	100046be <alarm_pool_irq_handler+0x17e>
100045a2:	489a      	ldr	r0, [pc, #616]	; (1000480c <alarm_pool_irq_handler+0x2cc>)
100045a4:	f000 fb66 	bl	10004c74 <timer_time_us_64>
100045a8:	9e00      	ldr	r6, [sp, #0]
100045aa:	9f01      	ldr	r7, [sp, #4]
100045ac:	1836      	adds	r6, r6, r0
100045ae:	414f      	adcs	r7, r1
100045b0:	9600      	str	r6, [sp, #0]
100045b2:	9701      	str	r7, [sp, #4]
100045b4:	e091      	b.n	100046da <alarm_pool_irq_handler+0x19a>
100045b6:	4684      	mov	ip, r0
100045b8:	4663      	mov	r3, ip
100045ba:	2400      	movs	r4, #0
100045bc:	5f1c      	ldrsh	r4, [r3, r4]
100045be:	2c00      	cmp	r4, #0
100045c0:	db0b      	blt.n	100045da <alarm_pool_irq_handler+0x9a>
100045c2:	0060      	lsls	r0, r4, #1
100045c4:	1900      	adds	r0, r0, r4
100045c6:	00c0      	lsls	r0, r0, #3
100045c8:	1808      	adds	r0, r1, r0
100045ca:	9a00      	ldr	r2, [sp, #0]
100045cc:	9b01      	ldr	r3, [sp, #4]
100045ce:	6886      	ldr	r6, [r0, #8]
100045d0:	68c7      	ldr	r7, [r0, #12]
100045d2:	1b92      	subs	r2, r2, r6
100045d4:	41bb      	sbcs	r3, r7
100045d6:	2b00      	cmp	r3, #0
100045d8:	daed      	bge.n	100045b6 <alarm_pool_irq_handler+0x76>
100045da:	464b      	mov	r3, r9
100045dc:	801c      	strh	r4, [r3, #0]
100045de:	4663      	mov	r3, ip
100045e0:	801d      	strh	r5, [r3, #0]
100045e2:	e01b      	b.n	1000461c <alarm_pool_irq_handler+0xdc>
100045e4:	464b      	mov	r3, r9
100045e6:	2200      	movs	r2, #0
100045e8:	5e9b      	ldrsh	r3, [r3, r2]
100045ea:	4642      	mov	r2, r8
100045ec:	8113      	strh	r3, [r2, #8]
100045ee:	6912      	ldr	r2, [r2, #16]
100045f0:	f3ef 8310 	mrs	r3, PRIMASK
100045f4:	b672      	cpsid	i
100045f6:	6811      	ldr	r1, [r2, #0]
100045f8:	2900      	cmp	r1, #0
100045fa:	d0fc      	beq.n	100045f6 <alarm_pool_irq_handler+0xb6>
100045fc:	f3bf 8f5f 	dmb	sy
10004600:	4642      	mov	r2, r8
10004602:	2102      	movs	r1, #2
10004604:	5e52      	ldrsh	r2, [r2, r1]
10004606:	4649      	mov	r1, r9
10004608:	800a      	strh	r2, [r1, #0]
1000460a:	4642      	mov	r2, r8
1000460c:	8055      	strh	r5, [r2, #2]
1000460e:	6912      	ldr	r2, [r2, #16]
10004610:	f3bf 8f5f 	dmb	sy
10004614:	2100      	movs	r1, #0
10004616:	6011      	str	r1, [r2, #0]
10004618:	f383 8810 	msr	PRIMASK, r3
1000461c:	4643      	mov	r3, r8
1000461e:	889b      	ldrh	r3, [r3, #4]
10004620:	b21b      	sxth	r3, r3
10004622:	2b00      	cmp	r3, #0
10004624:	da74      	bge.n	10004710 <alarm_pool_irq_handler+0x1d0>
10004626:	4643      	mov	r3, r8
10004628:	799b      	ldrb	r3, [r3, #6]
1000462a:	2b00      	cmp	r3, #0
1000462c:	d000      	beq.n	10004630 <alarm_pool_irq_handler+0xf0>
1000462e:	e0b6      	b.n	1000479e <alarm_pool_irq_handler+0x25e>
10004630:	4876      	ldr	r0, [pc, #472]	; (1000480c <alarm_pool_irq_handler+0x2cc>)
10004632:	f000 fb1f 	bl	10004c74 <timer_time_us_64>
10004636:	0002      	movs	r2, r0
10004638:	000b      	movs	r3, r1
1000463a:	4641      	mov	r1, r8
1000463c:	2008      	movs	r0, #8
1000463e:	5e08      	ldrsh	r0, [r1, r0]
10004640:	2800      	cmp	r0, #0
10004642:	da00      	bge.n	10004646 <alarm_pool_irq_handler+0x106>
10004644:	e0d9      	b.n	100047fa <alarm_pool_irq_handler+0x2ba>
10004646:	0041      	lsls	r1, r0, #1
10004648:	1809      	adds	r1, r1, r0
1000464a:	00c9      	lsls	r1, r1, #3
1000464c:	4640      	mov	r0, r8
1000464e:	6940      	ldr	r0, [r0, #20]
10004650:	4684      	mov	ip, r0
10004652:	4461      	add	r1, ip
10004654:	6888      	ldr	r0, [r1, #8]
10004656:	68c9      	ldr	r1, [r1, #12]
10004658:	465c      	mov	r4, fp
1000465a:	3404      	adds	r4, #4
1000465c:	00a4      	lsls	r4, r4, #2
1000465e:	4d6b      	ldr	r5, [pc, #428]	; (1000480c <alarm_pool_irq_handler+0x2cc>)
10004660:	5160      	str	r0, [r4, r5]
10004662:	1a80      	subs	r0, r0, r2
10004664:	4199      	sbcs	r1, r3
10004666:	2900      	cmp	r1, #0
10004668:	dd00      	ble.n	1000466c <alarm_pool_irq_handler+0x12c>
1000466a:	e0c6      	b.n	100047fa <alarm_pool_irq_handler+0x2ba>
1000466c:	d100      	bne.n	10004670 <alarm_pool_irq_handler+0x130>
1000466e:	e0c1      	b.n	100047f4 <alarm_pool_irq_handler+0x2b4>
10004670:	4966      	ldr	r1, [pc, #408]	; (1000480c <alarm_pool_irq_handler+0x2cc>)
10004672:	4650      	mov	r0, sl
10004674:	6348      	str	r0, [r1, #52]	; 0x34
10004676:	4641      	mov	r1, r8
10004678:	2508      	movs	r5, #8
1000467a:	5f4d      	ldrsh	r5, [r1, r5]
1000467c:	2d00      	cmp	r5, #0
1000467e:	dbcd      	blt.n	1000461c <alarm_pool_irq_handler+0xdc>
10004680:	0069      	lsls	r1, r5, #1
10004682:	1949      	adds	r1, r1, r5
10004684:	00c9      	lsls	r1, r1, #3
10004686:	4640      	mov	r0, r8
10004688:	6940      	ldr	r0, [r0, #20]
1000468a:	4681      	mov	r9, r0
1000468c:	4489      	add	r9, r1
1000468e:	4649      	mov	r1, r9
10004690:	688e      	ldr	r6, [r1, #8]
10004692:	68cf      	ldr	r7, [r1, #12]
10004694:	1b92      	subs	r2, r2, r6
10004696:	41bb      	sbcs	r3, r7
10004698:	2b00      	cmp	r3, #0
1000469a:	dbbf      	blt.n	1000461c <alarm_pool_irq_handler+0xdc>
1000469c:	2f00      	cmp	r7, #0
1000469e:	dba1      	blt.n	100045e4 <alarm_pool_irq_handler+0xa4>
100046a0:	690c      	ldr	r4, [r1, #16]
100046a2:	4b5f      	ldr	r3, [pc, #380]	; (10004820 <alarm_pool_irq_handler+0x2e0>)
100046a4:	429c      	cmp	r4, r3
100046a6:	d100      	bne.n	100046aa <alarm_pool_irq_handler+0x16a>
100046a8:	e770      	b.n	1000458c <alarm_pool_irq_handler+0x4c>
100046aa:	8849      	ldrh	r1, [r1, #2]
100046ac:	b289      	uxth	r1, r1
100046ae:	0028      	movs	r0, r5
100046b0:	f7ff ff2a 	bl	10004508 <make_alarm_id>
100046b4:	464b      	mov	r3, r9
100046b6:	6959      	ldr	r1, [r3, #20]
100046b8:	47a0      	blx	r4
100046ba:	9000      	str	r0, [sp, #0]
100046bc:	9101      	str	r1, [sp, #4]
100046be:	9900      	ldr	r1, [sp, #0]
100046c0:	9a01      	ldr	r2, [sp, #4]
100046c2:	000b      	movs	r3, r1
100046c4:	4313      	orrs	r3, r2
100046c6:	d100      	bne.n	100046ca <alarm_pool_irq_handler+0x18a>
100046c8:	e78c      	b.n	100045e4 <alarm_pool_irq_handler+0xa4>
100046ca:	000b      	movs	r3, r1
100046cc:	1e14      	subs	r4, r2, #0
100046ce:	db00      	blt.n	100046d2 <alarm_pool_irq_handler+0x192>
100046d0:	e767      	b.n	100045a2 <alarm_pool_irq_handler+0x62>
100046d2:	1af6      	subs	r6, r6, r3
100046d4:	41a7      	sbcs	r7, r4
100046d6:	9600      	str	r6, [sp, #0]
100046d8:	9701      	str	r7, [sp, #4]
100046da:	464b      	mov	r3, r9
100046dc:	9e00      	ldr	r6, [sp, #0]
100046de:	9f01      	ldr	r7, [sp, #4]
100046e0:	609e      	str	r6, [r3, #8]
100046e2:	60df      	str	r7, [r3, #12]
100046e4:	2000      	movs	r0, #0
100046e6:	5e18      	ldrsh	r0, [r3, r0]
100046e8:	2800      	cmp	r0, #0
100046ea:	db97      	blt.n	1000461c <alarm_pool_irq_handler+0xdc>
100046ec:	4643      	mov	r3, r8
100046ee:	6959      	ldr	r1, [r3, #20]
100046f0:	0043      	lsls	r3, r0, #1
100046f2:	181b      	adds	r3, r3, r0
100046f4:	00db      	lsls	r3, r3, #3
100046f6:	18cb      	adds	r3, r1, r3
100046f8:	689a      	ldr	r2, [r3, #8]
100046fa:	68db      	ldr	r3, [r3, #12]
100046fc:	1ab6      	subs	r6, r6, r2
100046fe:	419f      	sbcs	r7, r3
10004700:	2f00      	cmp	r7, #0
10004702:	db8b      	blt.n	1000461c <alarm_pool_irq_handler+0xdc>
10004704:	4643      	mov	r3, r8
10004706:	8118      	strh	r0, [r3, #8]
10004708:	2308      	movs	r3, #8
1000470a:	4443      	add	r3, r8
1000470c:	469c      	mov	ip, r3
1000470e:	e753      	b.n	100045b8 <alarm_pool_irq_handler+0x78>
10004710:	4643      	mov	r3, r8
10004712:	691a      	ldr	r2, [r3, #16]
10004714:	f3ef 8110 	mrs	r1, PRIMASK
10004718:	b672      	cpsid	i
1000471a:	6813      	ldr	r3, [r2, #0]
1000471c:	2b00      	cmp	r3, #0
1000471e:	d0fc      	beq.n	1000471a <alarm_pool_irq_handler+0x1da>
10004720:	f3bf 8f5f 	dmb	sy
10004724:	4643      	mov	r3, r8
10004726:	889b      	ldrh	r3, [r3, #4]
10004728:	b21b      	sxth	r3, r3
1000472a:	4699      	mov	r9, r3
1000472c:	2301      	movs	r3, #1
1000472e:	425b      	negs	r3, r3
10004730:	4642      	mov	r2, r8
10004732:	8093      	strh	r3, [r2, #4]
10004734:	6913      	ldr	r3, [r2, #16]
10004736:	f3bf 8f5f 	dmb	sy
1000473a:	2200      	movs	r2, #0
1000473c:	601a      	str	r2, [r3, #0]
1000473e:	f381 8810 	msr	PRIMASK, r1
10004742:	e018      	b.n	10004776 <alarm_pool_irq_handler+0x236>
10004744:	0026      	movs	r6, r4
10004746:	2300      	movs	r3, #0
10004748:	5ef5      	ldrsh	r5, [r6, r3]
1000474a:	2d00      	cmp	r5, #0
1000474c:	db0b      	blt.n	10004766 <alarm_pool_irq_handler+0x226>
1000474e:	006c      	lsls	r4, r5, #1
10004750:	1964      	adds	r4, r4, r5
10004752:	00e4      	lsls	r4, r4, #3
10004754:	193c      	adds	r4, r7, r4
10004756:	9a00      	ldr	r2, [sp, #0]
10004758:	9b01      	ldr	r3, [sp, #4]
1000475a:	68a0      	ldr	r0, [r4, #8]
1000475c:	68e1      	ldr	r1, [r4, #12]
1000475e:	1a12      	subs	r2, r2, r0
10004760:	418b      	sbcs	r3, r1
10004762:	2b00      	cmp	r3, #0
10004764:	daee      	bge.n	10004744 <alarm_pool_irq_handler+0x204>
10004766:	464b      	mov	r3, r9
10004768:	8033      	strh	r3, [r6, #0]
1000476a:	4663      	mov	r3, ip
1000476c:	2200      	movs	r2, #0
1000476e:	5e9b      	ldrsh	r3, [r3, r2]
10004770:	4699      	mov	r9, r3
10004772:	4663      	mov	r3, ip
10004774:	801d      	strh	r5, [r3, #0]
10004776:	464b      	mov	r3, r9
10004778:	2b00      	cmp	r3, #0
1000477a:	da00      	bge.n	1000477e <alarm_pool_irq_handler+0x23e>
1000477c:	e753      	b.n	10004626 <alarm_pool_irq_handler+0xe6>
1000477e:	4643      	mov	r3, r8
10004780:	695f      	ldr	r7, [r3, #20]
10004782:	464b      	mov	r3, r9
10004784:	005b      	lsls	r3, r3, #1
10004786:	444b      	add	r3, r9
10004788:	00db      	lsls	r3, r3, #3
1000478a:	469c      	mov	ip, r3
1000478c:	44bc      	add	ip, r7
1000478e:	4663      	mov	r3, ip
10004790:	68dc      	ldr	r4, [r3, #12]
10004792:	689b      	ldr	r3, [r3, #8]
10004794:	9300      	str	r3, [sp, #0]
10004796:	9401      	str	r4, [sp, #4]
10004798:	4646      	mov	r6, r8
1000479a:	3608      	adds	r6, #8
1000479c:	e7d3      	b.n	10004746 <alarm_pool_irq_handler+0x206>
1000479e:	2300      	movs	r3, #0
100047a0:	4642      	mov	r2, r8
100047a2:	7193      	strb	r3, [r2, #6]
100047a4:	4641      	mov	r1, r8
100047a6:	3108      	adds	r1, #8
100047a8:	4643      	mov	r3, r8
100047aa:	2008      	movs	r0, #8
100047ac:	5e18      	ldrsh	r0, [r3, r0]
100047ae:	e011      	b.n	100047d4 <alarm_pool_irq_handler+0x294>
100047b0:	2201      	movs	r2, #1
100047b2:	4252      	negs	r2, r2
100047b4:	17d3      	asrs	r3, r2, #31
100047b6:	60a2      	str	r2, [r4, #8]
100047b8:	60e3      	str	r3, [r4, #12]
100047ba:	4643      	mov	r3, r8
100047bc:	2208      	movs	r2, #8
100047be:	5e9b      	ldrsh	r3, [r3, r2]
100047c0:	4283      	cmp	r3, r0
100047c2:	d006      	beq.n	100047d2 <alarm_pool_irq_handler+0x292>
100047c4:	800d      	strh	r5, [r1, #0]
100047c6:	4643      	mov	r3, r8
100047c8:	2208      	movs	r2, #8
100047ca:	5e9b      	ldrsh	r3, [r3, r2]
100047cc:	8023      	strh	r3, [r4, #0]
100047ce:	4643      	mov	r3, r8
100047d0:	8118      	strh	r0, [r3, #8]
100047d2:	0028      	movs	r0, r5
100047d4:	1c43      	adds	r3, r0, #1
100047d6:	d100      	bne.n	100047da <alarm_pool_irq_handler+0x29a>
100047d8:	e72a      	b.n	10004630 <alarm_pool_irq_handler+0xf0>
100047da:	4643      	mov	r3, r8
100047dc:	695a      	ldr	r2, [r3, #20]
100047de:	0043      	lsls	r3, r0, #1
100047e0:	181b      	adds	r3, r3, r0
100047e2:	00db      	lsls	r3, r3, #3
100047e4:	18d4      	adds	r4, r2, r3
100047e6:	5ed5      	ldrsh	r5, [r2, r3]
100047e8:	8863      	ldrh	r3, [r4, #2]
100047ea:	b21b      	sxth	r3, r3
100047ec:	2b00      	cmp	r3, #0
100047ee:	dbdf      	blt.n	100047b0 <alarm_pool_irq_handler+0x270>
100047f0:	0021      	movs	r1, r4
100047f2:	e7ee      	b.n	100047d2 <alarm_pool_irq_handler+0x292>
100047f4:	2800      	cmp	r0, #0
100047f6:	d100      	bne.n	100047fa <alarm_pool_irq_handler+0x2ba>
100047f8:	e73a      	b.n	10004670 <alarm_pool_irq_handler+0x130>
100047fa:	b003      	add	sp, #12
100047fc:	bcf0      	pop	{r4, r5, r6, r7}
100047fe:	46bb      	mov	fp, r7
10004800:	46b2      	mov	sl, r6
10004802:	46a9      	mov	r9, r5
10004804:	46a0      	mov	r8, r4
10004806:	bdf0      	pop	{r4, r5, r6, r7, pc}
10004808:	20002a38 	.word	0x20002a38
1000480c:	40054000 	.word	0x40054000
10004810:	4005703c 	.word	0x4005703c
10004814:	1000c984 	.word	0x1000c984
10004818:	1000ca78 	.word	0x1000ca78
1000481c:	1000c9b0 	.word	0x1000c9b0
10004820:	10004541 	.word	0x10004541

10004824 <alarm_pool_post_alloc_init>:
10004824:	b5f8      	push	{r3, r4, r5, r6, r7, lr}
10004826:	46ce      	mov	lr, r9
10004828:	4647      	mov	r7, r8
1000482a:	b580      	push	{r7, lr}
1000482c:	0006      	movs	r6, r0
1000482e:	4688      	mov	r8, r1
10004830:	4691      	mov	r9, r2
10004832:	001f      	movs	r7, r3
10004834:	60c1      	str	r1, [r0, #12]
10004836:	f7ff faab 	bl	10003d90 <next_striped_spin_lock_num>
1000483a:	4b1b      	ldr	r3, [pc, #108]	; (100048a8 <alarm_pool_post_alloc_init+0x84>)
1000483c:	469c      	mov	ip, r3
1000483e:	4460      	add	r0, ip
10004840:	0080      	lsls	r0, r0, #2
10004842:	6130      	str	r0, [r6, #16]
10004844:	464b      	mov	r3, r9
10004846:	7033      	strb	r3, [r6, #0]
10004848:	b2bb      	uxth	r3, r7
1000484a:	8173      	strh	r3, [r6, #10]
1000484c:	22d0      	movs	r2, #208	; 0xd0
1000484e:	0612      	lsls	r2, r2, #24
10004850:	7812      	ldrb	r2, [r2, #0]
10004852:	7072      	strb	r2, [r6, #1]
10004854:	2201      	movs	r2, #1
10004856:	4252      	negs	r2, r2
10004858:	8132      	strh	r2, [r6, #8]
1000485a:	80b2      	strh	r2, [r6, #4]
1000485c:	189b      	adds	r3, r3, r2
1000485e:	8073      	strh	r3, [r6, #2]
10004860:	2400      	movs	r4, #0
10004862:	e006      	b.n	10004872 <alarm_pool_post_alloc_init+0x4e>
10004864:	1e63      	subs	r3, r4, #1
10004866:	0065      	lsls	r5, r4, #1
10004868:	192d      	adds	r5, r5, r4
1000486a:	00ed      	lsls	r5, r5, #3
1000486c:	6972      	ldr	r2, [r6, #20]
1000486e:	5353      	strh	r3, [r2, r5]
10004870:	3401      	adds	r4, #1
10004872:	42bc      	cmp	r4, r7
10004874:	d3f6      	bcc.n	10004864 <alarm_pool_post_alloc_init+0x40>
10004876:	464b      	mov	r3, r9
10004878:	009a      	lsls	r2, r3, #2
1000487a:	4b0c      	ldr	r3, [pc, #48]	; (100048ac <alarm_pool_post_alloc_init+0x88>)
1000487c:	50d6      	str	r6, [r2, r3]
1000487e:	2401      	movs	r4, #1
10004880:	464b      	mov	r3, r9
10004882:	409c      	lsls	r4, r3
10004884:	4643      	mov	r3, r8
10004886:	621c      	str	r4, [r3, #32]
10004888:	4909      	ldr	r1, [pc, #36]	; (100048b0 <alarm_pool_post_alloc_init+0x8c>)
1000488a:	4648      	mov	r0, r9
1000488c:	f7ff fb46 	bl	10003f1c <irq_set_exclusive_handler>
10004890:	2101      	movs	r1, #1
10004892:	4648      	mov	r0, r9
10004894:	f7ff fb30 	bl	10003ef8 <irq_set_enabled>
10004898:	4906      	ldr	r1, [pc, #24]	; (100048b4 <alarm_pool_post_alloc_init+0x90>)
1000489a:	4441      	add	r1, r8
1000489c:	600c      	str	r4, [r1, #0]
1000489e:	bcc0      	pop	{r6, r7}
100048a0:	46b9      	mov	r9, r7
100048a2:	46b0      	mov	r8, r6
100048a4:	bdf8      	pop	{r3, r4, r5, r6, r7, pc}
100048a6:	46c0      	nop			; (mov r8, r8)
100048a8:	34000040 	.word	0x34000040
100048ac:	20002a38 	.word	0x20002a38
100048b0:	10004541 	.word	0x10004541
100048b4:	00002038 	.word	0x00002038

100048b8 <alarm_pool_get_default>:
100048b8:	b510      	push	{r4, lr}
100048ba:	4b06      	ldr	r3, [pc, #24]	; (100048d4 <alarm_pool_get_default+0x1c>)
100048bc:	691b      	ldr	r3, [r3, #16]
100048be:	2b00      	cmp	r3, #0
100048c0:	d001      	beq.n	100048c6 <alarm_pool_get_default+0xe>
100048c2:	4804      	ldr	r0, [pc, #16]	; (100048d4 <alarm_pool_get_default+0x1c>)
100048c4:	bd10      	pop	{r4, pc}
100048c6:	4b04      	ldr	r3, [pc, #16]	; (100048d8 <alarm_pool_get_default+0x20>)
100048c8:	4a04      	ldr	r2, [pc, #16]	; (100048dc <alarm_pool_get_default+0x24>)
100048ca:	2165      	movs	r1, #101	; 0x65
100048cc:	4804      	ldr	r0, [pc, #16]	; (100048e0 <alarm_pool_get_default+0x28>)
100048ce:	f002 fd4b 	bl	10007368 <__assert_func>
100048d2:	46c0      	nop			; (mov r8, r8)
100048d4:	200009ac 	.word	0x200009ac
100048d8:	1000c9ec 	.word	0x1000c9ec
100048dc:	1000ca60 	.word	0x1000ca60
100048e0:	1000c9b0 	.word	0x1000c9b0

100048e4 <alarm_pool_add_alarm_at_force_in_context>:
100048e4:	b5f0      	push	{r4, r5, r6, r7, lr}
100048e6:	46c6      	mov	lr, r8
100048e8:	b500      	push	{lr}
100048ea:	0004      	movs	r4, r0
100048ec:	6900      	ldr	r0, [r0, #16]
100048ee:	f3ef 8c10 	mrs	ip, PRIMASK
100048f2:	b672      	cpsid	i
100048f4:	6801      	ldr	r1, [r0, #0]
100048f6:	2900      	cmp	r1, #0
100048f8:	d0fc      	beq.n	100048f4 <alarm_pool_add_alarm_at_force_in_context+0x10>
100048fa:	f3bf 8f5f 	dmb	sy
100048fe:	2102      	movs	r1, #2
10004900:	5e66      	ldrsh	r6, [r4, r1]
10004902:	0075      	lsls	r5, r6, #1
10004904:	19ad      	adds	r5, r5, r6
10004906:	00ed      	lsls	r5, r5, #3
10004908:	6961      	ldr	r1, [r4, #20]
1000490a:	4688      	mov	r8, r1
1000490c:	4445      	add	r5, r8
1000490e:	2e00      	cmp	r6, #0
10004910:	db02      	blt.n	10004918 <alarm_pool_add_alarm_at_force_in_context+0x34>
10004912:	2000      	movs	r0, #0
10004914:	5e29      	ldrsh	r1, [r5, r0]
10004916:	8061      	strh	r1, [r4, #2]
10004918:	6921      	ldr	r1, [r4, #16]
1000491a:	f3bf 8f5f 	dmb	sy
1000491e:	2000      	movs	r0, #0
10004920:	6008      	str	r0, [r1, #0]
10004922:	f38c 8810 	msr	PRIMASK, ip
10004926:	2e00      	cmp	r6, #0
10004928:	db2e      	blt.n	10004988 <alarm_pool_add_alarm_at_force_in_context+0xa4>
1000492a:	9906      	ldr	r1, [sp, #24]
1000492c:	6129      	str	r1, [r5, #16]
1000492e:	9907      	ldr	r1, [sp, #28]
10004930:	6169      	str	r1, [r5, #20]
10004932:	60aa      	str	r2, [r5, #8]
10004934:	60eb      	str	r3, [r5, #12]
10004936:	886b      	ldrh	r3, [r5, #2]
10004938:	3301      	adds	r3, #1
1000493a:	045b      	lsls	r3, r3, #17
1000493c:	0c59      	lsrs	r1, r3, #17
1000493e:	2b00      	cmp	r3, #0
10004940:	d100      	bne.n	10004944 <alarm_pool_add_alarm_at_force_in_context+0x60>
10004942:	2101      	movs	r1, #1
10004944:	8069      	strh	r1, [r5, #2]
10004946:	0030      	movs	r0, r6
10004948:	f7ff fdde 	bl	10004508 <make_alarm_id>
1000494c:	6922      	ldr	r2, [r4, #16]
1000494e:	f3ef 8110 	mrs	r1, PRIMASK
10004952:	b672      	cpsid	i
10004954:	6813      	ldr	r3, [r2, #0]
10004956:	2b00      	cmp	r3, #0
10004958:	d0fc      	beq.n	10004954 <alarm_pool_add_alarm_at_force_in_context+0x70>
1000495a:	f3bf 8f5f 	dmb	sy
1000495e:	88a3      	ldrh	r3, [r4, #4]
10004960:	802b      	strh	r3, [r5, #0]
10004962:	80a6      	strh	r6, [r4, #4]
10004964:	6923      	ldr	r3, [r4, #16]
10004966:	f3bf 8f5f 	dmb	sy
1000496a:	2200      	movs	r2, #0
1000496c:	601a      	str	r2, [r3, #0]
1000496e:	f381 8810 	msr	PRIMASK, r1
10004972:	68e3      	ldr	r3, [r4, #12]
10004974:	7821      	ldrb	r1, [r4, #0]
10004976:	3201      	adds	r2, #1
10004978:	408a      	lsls	r2, r1
1000497a:	4905      	ldr	r1, [pc, #20]	; (10004990 <alarm_pool_add_alarm_at_force_in_context+0xac>)
1000497c:	468c      	mov	ip, r1
1000497e:	4463      	add	r3, ip
10004980:	601a      	str	r2, [r3, #0]
10004982:	bc80      	pop	{r7}
10004984:	46b8      	mov	r8, r7
10004986:	bdf0      	pop	{r4, r5, r6, r7, pc}
10004988:	2001      	movs	r0, #1
1000498a:	4240      	negs	r0, r0
1000498c:	e7f9      	b.n	10004982 <alarm_pool_add_alarm_at_force_in_context+0x9e>
1000498e:	46c0      	nop			; (mov r8, r8)
10004990:	0000203c 	.word	0x0000203c

10004994 <alarm_pool_add_alarm_at>:
10004994:	b570      	push	{r4, r5, r6, lr}
10004996:	b082      	sub	sp, #8
10004998:	0006      	movs	r6, r0
1000499a:	0014      	movs	r4, r2
1000499c:	001d      	movs	r5, r3
1000499e:	ab08      	add	r3, sp, #32
100049a0:	781b      	ldrb	r3, [r3, #0]
100049a2:	2b00      	cmp	r3, #0
100049a4:	d107      	bne.n	100049b6 <alarm_pool_add_alarm_at+0x22>
100049a6:	f000 f997 	bl	10004cd8 <time_us_64>
100049aa:	0022      	movs	r2, r4
100049ac:	002b      	movs	r3, r5
100049ae:	1a12      	subs	r2, r2, r0
100049b0:	418b      	sbcs	r3, r1
100049b2:	2b00      	cmp	r3, #0
100049b4:	db0a      	blt.n	100049cc <alarm_pool_add_alarm_at+0x38>
100049b6:	9b07      	ldr	r3, [sp, #28]
100049b8:	9301      	str	r3, [sp, #4]
100049ba:	9b06      	ldr	r3, [sp, #24]
100049bc:	9300      	str	r3, [sp, #0]
100049be:	0022      	movs	r2, r4
100049c0:	002b      	movs	r3, r5
100049c2:	0030      	movs	r0, r6
100049c4:	f7ff ff8e 	bl	100048e4 <alarm_pool_add_alarm_at_force_in_context>
100049c8:	b002      	add	sp, #8
100049ca:	bd70      	pop	{r4, r5, r6, pc}
100049cc:	2000      	movs	r0, #0
100049ce:	e7fb      	b.n	100049c8 <alarm_pool_add_alarm_at+0x34>

100049d0 <alarm_pool_cancel_alarm>:
100049d0:	b510      	push	{r4, lr}
100049d2:	0003      	movs	r3, r0
100049d4:	1408      	asrs	r0, r1, #16
100049d6:	895a      	ldrh	r2, [r3, #10]
100049d8:	4290      	cmp	r0, r2
100049da:	da2f      	bge.n	10004a3c <alarm_pool_cancel_alarm+0x6c>
100049dc:	0042      	lsls	r2, r0, #1
100049de:	1812      	adds	r2, r2, r0
100049e0:	00d2      	lsls	r2, r2, #3
100049e2:	6958      	ldr	r0, [r3, #20]
100049e4:	4684      	mov	ip, r0
100049e6:	4462      	add	r2, ip
100049e8:	691c      	ldr	r4, [r3, #16]
100049ea:	f3ef 8c10 	mrs	ip, PRIMASK
100049ee:	b672      	cpsid	i
100049f0:	6820      	ldr	r0, [r4, #0]
100049f2:	2800      	cmp	r0, #0
100049f4:	d0fc      	beq.n	100049f0 <alarm_pool_cancel_alarm+0x20>
100049f6:	f3bf 8f5f 	dmb	sy
100049fa:	8850      	ldrh	r0, [r2, #2]
100049fc:	b280      	uxth	r0, r0
100049fe:	0409      	lsls	r1, r1, #16
10004a00:	0c09      	lsrs	r1, r1, #16
10004a02:	4288      	cmp	r0, r1
10004a04:	d012      	beq.n	10004a2c <alarm_pool_cancel_alarm+0x5c>
10004a06:	2000      	movs	r0, #0
10004a08:	691a      	ldr	r2, [r3, #16]
10004a0a:	f3bf 8f5f 	dmb	sy
10004a0e:	2100      	movs	r1, #0
10004a10:	6011      	str	r1, [r2, #0]
10004a12:	f38c 8810 	msr	PRIMASK, ip
10004a16:	2800      	cmp	r0, #0
10004a18:	d011      	beq.n	10004a3e <alarm_pool_cancel_alarm+0x6e>
10004a1a:	68da      	ldr	r2, [r3, #12]
10004a1c:	781b      	ldrb	r3, [r3, #0]
10004a1e:	3101      	adds	r1, #1
10004a20:	4099      	lsls	r1, r3
10004a22:	4b07      	ldr	r3, [pc, #28]	; (10004a40 <alarm_pool_cancel_alarm+0x70>)
10004a24:	469c      	mov	ip, r3
10004a26:	4462      	add	r2, ip
10004a28:	6011      	str	r1, [r2, #0]
10004a2a:	e008      	b.n	10004a3e <alarm_pool_cancel_alarm+0x6e>
10004a2c:	4905      	ldr	r1, [pc, #20]	; (10004a44 <alarm_pool_cancel_alarm+0x74>)
10004a2e:	4308      	orrs	r0, r1
10004a30:	b280      	uxth	r0, r0
10004a32:	8050      	strh	r0, [r2, #2]
10004a34:	2201      	movs	r2, #1
10004a36:	719a      	strb	r2, [r3, #6]
10004a38:	2001      	movs	r0, #1
10004a3a:	e7e5      	b.n	10004a08 <alarm_pool_cancel_alarm+0x38>
10004a3c:	2000      	movs	r0, #0
10004a3e:	bd10      	pop	{r4, pc}
10004a40:	0000203c 	.word	0x0000203c
10004a44:	ffff8000 	.word	0xffff8000

10004a48 <sleep_until>:
10004a48:	b5f0      	push	{r4, r5, r6, r7, lr}
10004a4a:	b085      	sub	sp, #20
10004a4c:	0006      	movs	r6, r0
10004a4e:	000f      	movs	r7, r1
10004a50:	f3ef 8305 	mrs	r3, IPSR
10004a54:	2b00      	cmp	r3, #0
10004a56:	d11a      	bne.n	10004a8e <sleep_until+0x46>
10004a58:	2406      	movs	r4, #6
10004a5a:	4264      	negs	r4, r4
10004a5c:	17e5      	asrs	r5, r4, #31
10004a5e:	19a4      	adds	r4, r4, r6
10004a60:	417d      	adcs	r5, r7
10004a62:	428d      	cmp	r5, r1
10004a64:	d802      	bhi.n	10004a6c <sleep_until+0x24>
10004a66:	d103      	bne.n	10004a70 <sleep_until+0x28>
10004a68:	4284      	cmp	r4, r0
10004a6a:	d901      	bls.n	10004a70 <sleep_until+0x28>
10004a6c:	2400      	movs	r4, #0
10004a6e:	2500      	movs	r5, #0
10004a70:	f000 f932 	bl	10004cd8 <time_us_64>
10004a74:	0022      	movs	r2, r4
10004a76:	002b      	movs	r3, r5
10004a78:	1a12      	subs	r2, r2, r0
10004a7a:	418b      	sbcs	r3, r1
10004a7c:	2b00      	cmp	r3, #0
10004a7e:	dc0b      	bgt.n	10004a98 <sleep_until+0x50>
10004a80:	d008      	beq.n	10004a94 <sleep_until+0x4c>
10004a82:	0030      	movs	r0, r6
10004a84:	0039      	movs	r1, r7
10004a86:	f000 f939 	bl	10004cfc <busy_wait_until>
10004a8a:	b005      	add	sp, #20
10004a8c:	bdf0      	pop	{r4, r5, r6, r7, pc}
10004a8e:	481c      	ldr	r0, [pc, #112]	; (10004b00 <sleep_until+0xb8>)
10004a90:	f7ff f90e 	bl	10003cb0 <panic>
10004a94:	2a00      	cmp	r2, #0
10004a96:	d0f4      	beq.n	10004a82 <sleep_until+0x3a>
10004a98:	f7ff ff0e 	bl	100048b8 <alarm_pool_get_default>
10004a9c:	2300      	movs	r3, #0
10004a9e:	9302      	str	r3, [sp, #8]
10004aa0:	9301      	str	r3, [sp, #4]
10004aa2:	4b18      	ldr	r3, [pc, #96]	; (10004b04 <sleep_until+0xbc>)
10004aa4:	9300      	str	r3, [sp, #0]
10004aa6:	0022      	movs	r2, r4
10004aa8:	002b      	movs	r3, r5
10004aaa:	f7ff ff73 	bl	10004994 <alarm_pool_add_alarm_at>
10004aae:	2800      	cmp	r0, #0
10004ab0:	da18      	bge.n	10004ae4 <sleep_until+0x9c>
10004ab2:	e7e6      	b.n	10004a82 <sleep_until+0x3a>
10004ab4:	2300      	movs	r3, #0
10004ab6:	e000      	b.n	10004aba <sleep_until+0x72>
10004ab8:	2300      	movs	r3, #0
10004aba:	2b00      	cmp	r3, #0
10004abc:	d1e1      	bne.n	10004a82 <sleep_until+0x3a>
10004abe:	4b12      	ldr	r3, [pc, #72]	; (10004b08 <sleep_until+0xc0>)
10004ac0:	681a      	ldr	r2, [r3, #0]
10004ac2:	f3ef 8110 	mrs	r1, PRIMASK
10004ac6:	b672      	cpsid	i
10004ac8:	6813      	ldr	r3, [r2, #0]
10004aca:	2b00      	cmp	r3, #0
10004acc:	d0fc      	beq.n	10004ac8 <sleep_until+0x80>
10004ace:	f3bf 8f5f 	dmb	sy
10004ad2:	4b0d      	ldr	r3, [pc, #52]	; (10004b08 <sleep_until+0xc0>)
10004ad4:	681b      	ldr	r3, [r3, #0]
10004ad6:	f3bf 8f5f 	dmb	sy
10004ada:	2200      	movs	r2, #0
10004adc:	601a      	str	r2, [r3, #0]
10004ade:	f381 8810 	msr	PRIMASK, r1
10004ae2:	bf20      	wfe
10004ae4:	4b09      	ldr	r3, [pc, #36]	; (10004b0c <sleep_until+0xc4>)
10004ae6:	6a5b      	ldr	r3, [r3, #36]	; 0x24
10004ae8:	429d      	cmp	r5, r3
10004aea:	d8e5      	bhi.n	10004ab8 <sleep_until+0x70>
10004aec:	4907      	ldr	r1, [pc, #28]	; (10004b0c <sleep_until+0xc4>)
10004aee:	6a89      	ldr	r1, [r1, #40]	; 0x28
10004af0:	42a1      	cmp	r1, r4
10004af2:	d203      	bcs.n	10004afc <sleep_until+0xb4>
10004af4:	429d      	cmp	r5, r3
10004af6:	d0dd      	beq.n	10004ab4 <sleep_until+0x6c>
10004af8:	2301      	movs	r3, #1
10004afa:	e7de      	b.n	10004aba <sleep_until+0x72>
10004afc:	2301      	movs	r3, #1
10004afe:	e7dc      	b.n	10004aba <sleep_until+0x72>
10004b00:	1000ca10 	.word	0x1000ca10
10004b04:	10004511 	.word	0x10004511
10004b08:	20002c54 	.word	0x20002c54
10004b0c:	40054000 	.word	0x40054000

10004b10 <sleep_us>:
10004b10:	b570      	push	{r4, r5, r6, lr}
10004b12:	0004      	movs	r4, r0
10004b14:	000d      	movs	r5, r1
10004b16:	f000 f8df 	bl	10004cd8 <time_us_64>
10004b1a:	1900      	adds	r0, r0, r4
10004b1c:	4169      	adcs	r1, r5
10004b1e:	2900      	cmp	r1, #0
10004b20:	db02      	blt.n	10004b28 <sleep_us+0x18>
10004b22:	f7ff ff91 	bl	10004a48 <sleep_until>
10004b26:	bd70      	pop	{r4, r5, r6, pc}
10004b28:	2001      	movs	r0, #1
10004b2a:	4240      	negs	r0, r0
10004b2c:	4900      	ldr	r1, [pc, #0]	; (10004b30 <sleep_us+0x20>)
10004b2e:	e7f8      	b.n	10004b22 <sleep_us+0x12>
10004b30:	7fffffff 	.word	0x7fffffff

10004b34 <sleep_ms>:
10004b34:	b510      	push	{r4, lr}
10004b36:	22fa      	movs	r2, #250	; 0xfa
10004b38:	0092      	lsls	r2, r2, #2
10004b3a:	2300      	movs	r3, #0
10004b3c:	2100      	movs	r1, #0
10004b3e:	f001 fa47 	bl	10005fd0 <__wrap___aeabi_lmul>
10004b42:	f7ff ffe5 	bl	10004b10 <sleep_us>
10004b46:	bd10      	pop	{r4, pc}

10004b48 <best_effort_wfe_or_timeout>:
10004b48:	b570      	push	{r4, r5, r6, lr}
10004b4a:	b084      	sub	sp, #16
10004b4c:	0005      	movs	r5, r0
10004b4e:	000c      	movs	r4, r1
10004b50:	f3ef 8305 	mrs	r3, IPSR
10004b54:	2b00      	cmp	r3, #0
10004b56:	d012      	beq.n	10004b7e <best_effort_wfe_or_timeout+0x36>
10004b58:	4b2f      	ldr	r3, [pc, #188]	; (10004c18 <best_effort_wfe_or_timeout+0xd0>)
10004b5a:	6a5b      	ldr	r3, [r3, #36]	; 0x24
10004b5c:	4299      	cmp	r1, r3
10004b5e:	d809      	bhi.n	10004b74 <best_effort_wfe_or_timeout+0x2c>
10004b60:	4a2d      	ldr	r2, [pc, #180]	; (10004c18 <best_effort_wfe_or_timeout+0xd0>)
10004b62:	6a92      	ldr	r2, [r2, #40]	; 0x28
10004b64:	4282      	cmp	r2, r0
10004b66:	d208      	bcs.n	10004b7a <best_effort_wfe_or_timeout+0x32>
10004b68:	4299      	cmp	r1, r3
10004b6a:	d001      	beq.n	10004b70 <best_effort_wfe_or_timeout+0x28>
10004b6c:	2001      	movs	r0, #1
10004b6e:	e002      	b.n	10004b76 <best_effort_wfe_or_timeout+0x2e>
10004b70:	2000      	movs	r0, #0
10004b72:	e000      	b.n	10004b76 <best_effort_wfe_or_timeout+0x2e>
10004b74:	2000      	movs	r0, #0
10004b76:	b004      	add	sp, #16
10004b78:	bd70      	pop	{r4, r5, r6, pc}
10004b7a:	2001      	movs	r0, #1
10004b7c:	e7fb      	b.n	10004b76 <best_effort_wfe_or_timeout+0x2e>
10004b7e:	f7ff fe9b 	bl	100048b8 <alarm_pool_get_default>
10004b82:	2300      	movs	r3, #0
10004b84:	9302      	str	r3, [sp, #8]
10004b86:	9301      	str	r3, [sp, #4]
10004b88:	4b24      	ldr	r3, [pc, #144]	; (10004c1c <best_effort_wfe_or_timeout+0xd4>)
10004b8a:	9300      	str	r3, [sp, #0]
10004b8c:	002a      	movs	r2, r5
10004b8e:	0023      	movs	r3, r4
10004b90:	f7ff ff00 	bl	10004994 <alarm_pool_add_alarm_at>
10004b94:	1e06      	subs	r6, r0, #0
10004b96:	dd0d      	ble.n	10004bb4 <best_effort_wfe_or_timeout+0x6c>
10004b98:	bf40      	sev
10004b9a:	bf20      	wfe
10004b9c:	4b1e      	ldr	r3, [pc, #120]	; (10004c18 <best_effort_wfe_or_timeout+0xd0>)
10004b9e:	6a5b      	ldr	r3, [r3, #36]	; 0x24
10004ba0:	429c      	cmp	r4, r3
10004ba2:	d81b      	bhi.n	10004bdc <best_effort_wfe_or_timeout+0x94>
10004ba4:	4a1c      	ldr	r2, [pc, #112]	; (10004c18 <best_effort_wfe_or_timeout+0xd0>)
10004ba6:	6a92      	ldr	r2, [r2, #40]	; 0x28
10004ba8:	42aa      	cmp	r2, r5
10004baa:	d22c      	bcs.n	10004c06 <best_effort_wfe_or_timeout+0xbe>
10004bac:	429c      	cmp	r4, r3
10004bae:	d013      	beq.n	10004bd8 <best_effort_wfe_or_timeout+0x90>
10004bb0:	2301      	movs	r3, #1
10004bb2:	e014      	b.n	10004bde <best_effort_wfe_or_timeout+0x96>
10004bb4:	4b18      	ldr	r3, [pc, #96]	; (10004c18 <best_effort_wfe_or_timeout+0xd0>)
10004bb6:	6a5b      	ldr	r3, [r3, #36]	; 0x24
10004bb8:	429c      	cmp	r4, r3
10004bba:	d809      	bhi.n	10004bd0 <best_effort_wfe_or_timeout+0x88>
10004bbc:	4a16      	ldr	r2, [pc, #88]	; (10004c18 <best_effort_wfe_or_timeout+0xd0>)
10004bbe:	6a92      	ldr	r2, [r2, #40]	; 0x28
10004bc0:	42aa      	cmp	r2, r5
10004bc2:	d207      	bcs.n	10004bd4 <best_effort_wfe_or_timeout+0x8c>
10004bc4:	429c      	cmp	r4, r3
10004bc6:	d001      	beq.n	10004bcc <best_effort_wfe_or_timeout+0x84>
10004bc8:	2001      	movs	r0, #1
10004bca:	e7d4      	b.n	10004b76 <best_effort_wfe_or_timeout+0x2e>
10004bcc:	2000      	movs	r0, #0
10004bce:	e7d2      	b.n	10004b76 <best_effort_wfe_or_timeout+0x2e>
10004bd0:	2000      	movs	r0, #0
10004bd2:	e7d0      	b.n	10004b76 <best_effort_wfe_or_timeout+0x2e>
10004bd4:	2001      	movs	r0, #1
10004bd6:	e7ce      	b.n	10004b76 <best_effort_wfe_or_timeout+0x2e>
10004bd8:	2300      	movs	r3, #0
10004bda:	e000      	b.n	10004bde <best_effort_wfe_or_timeout+0x96>
10004bdc:	2300      	movs	r3, #0
10004bde:	2b00      	cmp	r3, #0
10004be0:	d100      	bne.n	10004be4 <best_effort_wfe_or_timeout+0x9c>
10004be2:	bf20      	wfe
10004be4:	f7ff fe68 	bl	100048b8 <alarm_pool_get_default>
10004be8:	0031      	movs	r1, r6
10004bea:	f7ff fef1 	bl	100049d0 <alarm_pool_cancel_alarm>
10004bee:	4b0a      	ldr	r3, [pc, #40]	; (10004c18 <best_effort_wfe_or_timeout+0xd0>)
10004bf0:	6a5b      	ldr	r3, [r3, #36]	; 0x24
10004bf2:	429c      	cmp	r4, r3
10004bf4:	d80b      	bhi.n	10004c0e <best_effort_wfe_or_timeout+0xc6>
10004bf6:	4a08      	ldr	r2, [pc, #32]	; (10004c18 <best_effort_wfe_or_timeout+0xd0>)
10004bf8:	6a92      	ldr	r2, [r2, #40]	; 0x28
10004bfa:	42aa      	cmp	r2, r5
10004bfc:	d209      	bcs.n	10004c12 <best_effort_wfe_or_timeout+0xca>
10004bfe:	429c      	cmp	r4, r3
10004c00:	d003      	beq.n	10004c0a <best_effort_wfe_or_timeout+0xc2>
10004c02:	2001      	movs	r0, #1
10004c04:	e7b7      	b.n	10004b76 <best_effort_wfe_or_timeout+0x2e>
10004c06:	2301      	movs	r3, #1
10004c08:	e7e9      	b.n	10004bde <best_effort_wfe_or_timeout+0x96>
10004c0a:	2000      	movs	r0, #0
10004c0c:	e7b3      	b.n	10004b76 <best_effort_wfe_or_timeout+0x2e>
10004c0e:	2000      	movs	r0, #0
10004c10:	e7b1      	b.n	10004b76 <best_effort_wfe_or_timeout+0x2e>
10004c12:	2001      	movs	r0, #1
10004c14:	e7af      	b.n	10004b76 <best_effort_wfe_or_timeout+0x2e>
10004c16:	46c0      	nop			; (mov r8, r8)
10004c18:	40054000 	.word	0x40054000
10004c1c:	10004511 	.word	0x10004511

10004c20 <alarm_pool_get_default_timer>:
10004c20:	4800      	ldr	r0, [pc, #0]	; (10004c24 <alarm_pool_get_default_timer+0x4>)
10004c22:	4770      	bx	lr
10004c24:	40054000 	.word	0x40054000

10004c28 <runtime_init_default_alarm_pool>:
10004c28:	b510      	push	{r4, lr}
10004c2a:	4b0b      	ldr	r3, [pc, #44]	; (10004c58 <runtime_init_default_alarm_pool+0x30>)
10004c2c:	691b      	ldr	r3, [r3, #16]
10004c2e:	2b00      	cmp	r3, #0
10004c30:	d004      	beq.n	10004c3c <runtime_init_default_alarm_pool+0x14>
10004c32:	210a      	movs	r1, #10
10004c34:	4809      	ldr	r0, [pc, #36]	; (10004c5c <runtime_init_default_alarm_pool+0x34>)
10004c36:	f7ff fc09 	bl	1000444c <lock_init>
10004c3a:	bd10      	pop	{r4, pc}
10004c3c:	f7ff fff0 	bl	10004c20 <alarm_pool_get_default_timer>
10004c40:	0004      	movs	r4, r0
10004c42:	2103      	movs	r1, #3
10004c44:	f000 f80c 	bl	10004c60 <timer_hardware_alarm_claim>
10004c48:	2310      	movs	r3, #16
10004c4a:	2203      	movs	r2, #3
10004c4c:	0021      	movs	r1, r4
10004c4e:	4802      	ldr	r0, [pc, #8]	; (10004c58 <runtime_init_default_alarm_pool+0x30>)
10004c50:	f7ff fde8 	bl	10004824 <alarm_pool_post_alloc_init>
10004c54:	e7ed      	b.n	10004c32 <runtime_init_default_alarm_pool+0xa>
10004c56:	46c0      	nop			; (mov r8, r8)
10004c58:	200009ac 	.word	0x200009ac
10004c5c:	20002c54 	.word	0x20002c54

10004c60 <timer_hardware_alarm_claim>:
10004c60:	b510      	push	{r4, lr}
10004c62:	4a02      	ldr	r2, [pc, #8]	; (10004c6c <timer_hardware_alarm_claim+0xc>)
10004c64:	4802      	ldr	r0, [pc, #8]	; (10004c70 <timer_hardware_alarm_claim+0x10>)
10004c66:	f7ff f851 	bl	10003d0c <hw_claim_or_assert>
10004c6a:	bd10      	pop	{r4, pc}
10004c6c:	1000ca98 	.word	0x1000ca98
10004c70:	20001cd8 	.word	0x20001cd8

10004c74 <timer_time_us_64>:
10004c74:	0002      	movs	r2, r0
10004c76:	6a43      	ldr	r3, [r0, #36]	; 0x24
10004c78:	6a90      	ldr	r0, [r2, #40]	; 0x28
10004c7a:	0019      	movs	r1, r3
10004c7c:	6a53      	ldr	r3, [r2, #36]	; 0x24
10004c7e:	4299      	cmp	r1, r3
10004c80:	d1fa      	bne.n	10004c78 <timer_time_us_64+0x4>
10004c82:	4770      	bx	lr

10004c84 <timer_busy_wait_until>:
10004c84:	6a41      	ldr	r1, [r0, #36]	; 0x24
10004c86:	e000      	b.n	10004c8a <timer_busy_wait_until+0x6>
10004c88:	6a41      	ldr	r1, [r0, #36]	; 0x24
10004c8a:	4299      	cmp	r1, r3
10004c8c:	d3fc      	bcc.n	10004c88 <timer_busy_wait_until+0x4>
10004c8e:	e000      	b.n	10004c92 <timer_busy_wait_until+0xe>
10004c90:	6a41      	ldr	r1, [r0, #36]	; 0x24
10004c92:	4299      	cmp	r1, r3
10004c94:	d102      	bne.n	10004c9c <timer_busy_wait_until+0x18>
10004c96:	6a81      	ldr	r1, [r0, #40]	; 0x28
10004c98:	4291      	cmp	r1, r2
10004c9a:	d3f9      	bcc.n	10004c90 <timer_busy_wait_until+0xc>
10004c9c:	4770      	bx	lr

10004c9e <timer_busy_wait_us>:
10004c9e:	b5f0      	push	{r4, r5, r6, r7, lr}
10004ca0:	46c6      	mov	lr, r8
10004ca2:	b500      	push	{lr}
10004ca4:	4680      	mov	r8, r0
10004ca6:	0014      	movs	r4, r2
10004ca8:	001d      	movs	r5, r3
10004caa:	f7ff ffe3 	bl	10004c74 <timer_time_us_64>
10004cae:	0006      	movs	r6, r0
10004cb0:	000f      	movs	r7, r1
10004cb2:	0022      	movs	r2, r4
10004cb4:	002b      	movs	r3, r5
10004cb6:	1992      	adds	r2, r2, r6
10004cb8:	417b      	adcs	r3, r7
10004cba:	4299      	cmp	r1, r3
10004cbc:	d802      	bhi.n	10004cc4 <timer_busy_wait_us+0x26>
10004cbe:	d104      	bne.n	10004cca <timer_busy_wait_us+0x2c>
10004cc0:	4290      	cmp	r0, r2
10004cc2:	d902      	bls.n	10004cca <timer_busy_wait_us+0x2c>
10004cc4:	2201      	movs	r2, #1
10004cc6:	4252      	negs	r2, r2
10004cc8:	17d3      	asrs	r3, r2, #31
10004cca:	4640      	mov	r0, r8
10004ccc:	f7ff ffda 	bl	10004c84 <timer_busy_wait_until>
10004cd0:	bc80      	pop	{r7}
10004cd2:	46b8      	mov	r8, r7
10004cd4:	bdf0      	pop	{r4, r5, r6, r7, pc}
	...

10004cd8 <time_us_64>:
10004cd8:	b510      	push	{r4, lr}
10004cda:	4802      	ldr	r0, [pc, #8]	; (10004ce4 <time_us_64+0xc>)
10004cdc:	f7ff ffca 	bl	10004c74 <timer_time_us_64>
10004ce0:	bd10      	pop	{r4, pc}
10004ce2:	46c0      	nop			; (mov r8, r8)
10004ce4:	40054000 	.word	0x40054000

10004ce8 <busy_wait_us>:
10004ce8:	b510      	push	{r4, lr}
10004cea:	0002      	movs	r2, r0
10004cec:	000b      	movs	r3, r1
10004cee:	4802      	ldr	r0, [pc, #8]	; (10004cf8 <busy_wait_us+0x10>)
10004cf0:	f7ff ffd5 	bl	10004c9e <timer_busy_wait_us>
10004cf4:	bd10      	pop	{r4, pc}
10004cf6:	46c0      	nop			; (mov r8, r8)
10004cf8:	40054000 	.word	0x40054000

10004cfc <busy_wait_until>:
10004cfc:	b510      	push	{r4, lr}
10004cfe:	0002      	movs	r2, r0
10004d00:	000b      	movs	r3, r1
10004d02:	4802      	ldr	r0, [pc, #8]	; (10004d0c <busy_wait_until+0x10>)
10004d04:	f7ff ffbe 	bl	10004c84 <timer_busy_wait_until>
10004d08:	bd10      	pop	{r4, pc}
10004d0a:	46c0      	nop			; (mov r8, r8)
10004d0c:	40054000 	.word	0x40054000

10004d10 <uart_disable_before_lcr_write>:
10004d10:	b570      	push	{r4, r5, r6, lr}
10004d12:	6b04      	ldr	r4, [r0, #48]	; 0x30
10004d14:	07e3      	lsls	r3, r4, #31
10004d16:	d401      	bmi.n	10004d1c <uart_disable_before_lcr_write+0xc>
10004d18:	0020      	movs	r0, r4
10004d1a:	bd70      	pop	{r4, r5, r6, pc}
10004d1c:	4b0b      	ldr	r3, [pc, #44]	; (10004d4c <uart_disable_before_lcr_write+0x3c>)
10004d1e:	18c3      	adds	r3, r0, r3
10004d20:	4a0b      	ldr	r2, [pc, #44]	; (10004d50 <uart_disable_before_lcr_write+0x40>)
10004d22:	601a      	str	r2, [r3, #0]
10004d24:	6a45      	ldr	r5, [r0, #36]	; 0x24
10004d26:	6a82      	ldr	r2, [r0, #40]	; 0x28
10004d28:	01ad      	lsls	r5, r5, #6
10004d2a:	18ad      	adds	r5, r5, r2
10004d2c:	02ad      	lsls	r5, r5, #10
10004d2e:	2006      	movs	r0, #6
10004d30:	f000 f926 	bl	10004f80 <clock_get_hz>
10004d34:	4907      	ldr	r1, [pc, #28]	; (10004d54 <uart_disable_before_lcr_write+0x44>)
10004d36:	f000 fb11 	bl	1000535c <__wrap___aeabi_uidiv>
10004d3a:	0001      	movs	r1, r0
10004d3c:	0028      	movs	r0, r5
10004d3e:	f000 fb0d 	bl	1000535c <__wrap___aeabi_uidiv>
10004d42:	2100      	movs	r1, #0
10004d44:	f7ff ffd0 	bl	10004ce8 <busy_wait_us>
10004d48:	e7e6      	b.n	10004d18 <uart_disable_before_lcr_write+0x8>
10004d4a:	46c0      	nop			; (mov r8, r8)
10004d4c:	00003030 	.word	0x00003030
10004d50:	00000301 	.word	0x00000301
10004d54:	00000e4e 	.word	0x00000e4e

10004d58 <uart_write_lcr_bits_masked>:
10004d58:	b570      	push	{r4, r5, r6, lr}
10004d5a:	0004      	movs	r4, r0
10004d5c:	000e      	movs	r6, r1
10004d5e:	0015      	movs	r5, r2
10004d60:	f7ff ffd6 	bl	10004d10 <uart_disable_before_lcr_write>
10004d64:	6ae1      	ldr	r1, [r4, #44]	; 0x2c
10004d66:	404e      	eors	r6, r1
10004d68:	4035      	ands	r5, r6
10004d6a:	4b02      	ldr	r3, [pc, #8]	; (10004d74 <uart_write_lcr_bits_masked+0x1c>)
10004d6c:	18e3      	adds	r3, r4, r3
10004d6e:	601d      	str	r5, [r3, #0]
10004d70:	6320      	str	r0, [r4, #48]	; 0x30
10004d72:	bd70      	pop	{r4, r5, r6, pc}
10004d74:	0000102c 	.word	0x0000102c

10004d78 <uart_set_baudrate>:
10004d78:	b570      	push	{r4, r5, r6, lr}
10004d7a:	0005      	movs	r5, r0
10004d7c:	000c      	movs	r4, r1
10004d7e:	2006      	movs	r0, #6
10004d80:	f000 f8fe 	bl	10004f80 <clock_get_hz>
10004d84:	00c0      	lsls	r0, r0, #3
10004d86:	0021      	movs	r1, r4
10004d88:	f000 fae8 	bl	1000535c <__wrap___aeabi_uidiv>
10004d8c:	3001      	adds	r0, #1
10004d8e:	09c6      	lsrs	r6, r0, #7
10004d90:	d007      	beq.n	10004da2 <uart_set_baudrate+0x2a>
10004d92:	4b0e      	ldr	r3, [pc, #56]	; (10004dcc <uart_set_baudrate+0x54>)
10004d94:	429e      	cmp	r6, r3
10004d96:	d815      	bhi.n	10004dc4 <uart_set_baudrate+0x4c>
10004d98:	0840      	lsrs	r0, r0, #1
10004d9a:	0034      	movs	r4, r6
10004d9c:	263f      	movs	r6, #63	; 0x3f
10004d9e:	4006      	ands	r6, r0
10004da0:	e000      	b.n	10004da4 <uart_set_baudrate+0x2c>
10004da2:	2401      	movs	r4, #1
10004da4:	626c      	str	r4, [r5, #36]	; 0x24
10004da6:	62ae      	str	r6, [r5, #40]	; 0x28
10004da8:	2200      	movs	r2, #0
10004daa:	2100      	movs	r1, #0
10004dac:	0028      	movs	r0, r5
10004dae:	f7ff ffd3 	bl	10004d58 <uart_write_lcr_bits_masked>
10004db2:	2006      	movs	r0, #6
10004db4:	f000 f8e4 	bl	10004f80 <clock_get_hz>
10004db8:	0080      	lsls	r0, r0, #2
10004dba:	01a1      	lsls	r1, r4, #6
10004dbc:	1989      	adds	r1, r1, r6
10004dbe:	f000 facd 	bl	1000535c <__wrap___aeabi_uidiv>
10004dc2:	bd70      	pop	{r4, r5, r6, pc}
10004dc4:	2600      	movs	r6, #0
10004dc6:	4c02      	ldr	r4, [pc, #8]	; (10004dd0 <uart_set_baudrate+0x58>)
10004dc8:	e7ec      	b.n	10004da4 <uart_set_baudrate+0x2c>
10004dca:	46c0      	nop			; (mov r8, r8)
10004dcc:	0000fffe 	.word	0x0000fffe
10004dd0:	0000ffff 	.word	0x0000ffff

10004dd4 <uart_set_translate_crlf>:
10004dd4:	2900      	cmp	r1, #0
10004dd6:	d009      	beq.n	10004dec <uart_set_translate_crlf+0x18>
10004dd8:	220a      	movs	r2, #10
10004dda:	4b06      	ldr	r3, [pc, #24]	; (10004df4 <uart_set_translate_crlf+0x20>)
10004ddc:	469c      	mov	ip, r3
10004dde:	4460      	add	r0, ip
10004de0:	4243      	negs	r3, r0
10004de2:	4158      	adcs	r0, r3
10004de4:	0040      	lsls	r0, r0, #1
10004de6:	4b04      	ldr	r3, [pc, #16]	; (10004df8 <uart_set_translate_crlf+0x24>)
10004de8:	52c2      	strh	r2, [r0, r3]
10004dea:	4770      	bx	lr
10004dec:	2280      	movs	r2, #128	; 0x80
10004dee:	0052      	lsls	r2, r2, #1
10004df0:	e7f3      	b.n	10004dda <uart_set_translate_crlf+0x6>
10004df2:	46c0      	nop			; (mov r8, r8)
10004df4:	bffc8000 	.word	0xbffc8000
10004df8:	20002c5c 	.word	0x20002c5c

10004dfc <uart_init>:
10004dfc:	b570      	push	{r4, r5, r6, lr}
10004dfe:	0005      	movs	r5, r0
10004e00:	000c      	movs	r4, r1
10004e02:	2006      	movs	r0, #6
10004e04:	f000 f8bc 	bl	10004f80 <clock_get_hz>
10004e08:	2800      	cmp	r0, #0
10004e0a:	d028      	beq.n	10004e5e <uart_init+0x62>
10004e0c:	4b16      	ldr	r3, [pc, #88]	; (10004e68 <uart_init+0x6c>)
10004e0e:	429d      	cmp	r5, r3
10004e10:	d026      	beq.n	10004e60 <uart_init+0x64>
10004e12:	2216      	movs	r2, #22
10004e14:	2301      	movs	r3, #1
10004e16:	4093      	lsls	r3, r2
10004e18:	4a14      	ldr	r2, [pc, #80]	; (10004e6c <uart_init+0x70>)
10004e1a:	6013      	str	r3, [r2, #0]
10004e1c:	4b12      	ldr	r3, [pc, #72]	; (10004e68 <uart_init+0x6c>)
10004e1e:	429d      	cmp	r5, r3
10004e20:	d020      	beq.n	10004e64 <uart_init+0x68>
10004e22:	2316      	movs	r3, #22
10004e24:	2201      	movs	r2, #1
10004e26:	409a      	lsls	r2, r3
10004e28:	4b11      	ldr	r3, [pc, #68]	; (10004e70 <uart_init+0x74>)
10004e2a:	601a      	str	r2, [r3, #0]
10004e2c:	4b11      	ldr	r3, [pc, #68]	; (10004e74 <uart_init+0x78>)
10004e2e:	681b      	ldr	r3, [r3, #0]
10004e30:	0011      	movs	r1, r2
10004e32:	4399      	bics	r1, r3
10004e34:	d1fa      	bne.n	10004e2c <uart_init+0x30>
10004e36:	2100      	movs	r1, #0
10004e38:	0028      	movs	r0, r5
10004e3a:	f7ff ffcb 	bl	10004dd4 <uart_set_translate_crlf>
10004e3e:	0021      	movs	r1, r4
10004e40:	0028      	movs	r0, r5
10004e42:	f7ff ff99 	bl	10004d78 <uart_set_baudrate>
10004e46:	6aeb      	ldr	r3, [r5, #44]	; 0x2c
10004e48:	2270      	movs	r2, #112	; 0x70
10004e4a:	405a      	eors	r2, r3
10004e4c:	237e      	movs	r3, #126	; 0x7e
10004e4e:	4013      	ands	r3, r2
10004e50:	4a09      	ldr	r2, [pc, #36]	; (10004e78 <uart_init+0x7c>)
10004e52:	18aa      	adds	r2, r5, r2
10004e54:	6013      	str	r3, [r2, #0]
10004e56:	4b09      	ldr	r3, [pc, #36]	; (10004e7c <uart_init+0x80>)
10004e58:	632b      	str	r3, [r5, #48]	; 0x30
10004e5a:	2303      	movs	r3, #3
10004e5c:	64ab      	str	r3, [r5, #72]	; 0x48
10004e5e:	bd70      	pop	{r4, r5, r6, pc}
10004e60:	2217      	movs	r2, #23
10004e62:	e7d7      	b.n	10004e14 <uart_init+0x18>
10004e64:	2317      	movs	r3, #23
10004e66:	e7dd      	b.n	10004e24 <uart_init+0x28>
10004e68:	40038000 	.word	0x40038000
10004e6c:	4000e000 	.word	0x4000e000
10004e70:	4000f000 	.word	0x4000f000
10004e74:	4000c008 	.word	0x4000c008
10004e78:	0000102c 	.word	0x0000102c
10004e7c:	00000301 	.word	0x00000301

10004e80 <clock_configure_internal>:
10004e80:	b5f8      	push	{r3, r4, r5, r6, r7, lr}
10004e82:	46d6      	mov	lr, sl
10004e84:	4647      	mov	r7, r8
10004e86:	b580      	push	{r7, lr}
10004e88:	0006      	movs	r6, r0
10004e8a:	000d      	movs	r5, r1
10004e8c:	0017      	movs	r7, r2
10004e8e:	4698      	mov	r8, r3
10004e90:	0044      	lsls	r4, r0, #1
10004e92:	1824      	adds	r4, r4, r0
10004e94:	00a4      	lsls	r4, r4, #2
10004e96:	4b29      	ldr	r3, [pc, #164]	; (10004f3c <clock_configure_internal+0xbc>)
10004e98:	469c      	mov	ip, r3
10004e9a:	4464      	add	r4, ip
10004e9c:	6863      	ldr	r3, [r4, #4]
10004e9e:	9a08      	ldr	r2, [sp, #32]
10004ea0:	4293      	cmp	r3, r2
10004ea2:	d200      	bcs.n	10004ea6 <clock_configure_internal+0x26>
10004ea4:	6062      	str	r2, [r4, #4]
10004ea6:	1f33      	subs	r3, r6, #4
10004ea8:	b2db      	uxtb	r3, r3
10004eaa:	469a      	mov	sl, r3
10004eac:	2b01      	cmp	r3, #1
10004eae:	d92e      	bls.n	10004f0e <clock_configure_internal+0x8e>
10004eb0:	2280      	movs	r2, #128	; 0x80
10004eb2:	0112      	lsls	r2, r2, #4
10004eb4:	23c0      	movs	r3, #192	; 0xc0
10004eb6:	019b      	lsls	r3, r3, #6
10004eb8:	18e3      	adds	r3, r4, r3
10004eba:	601a      	str	r2, [r3, #0]
10004ebc:	00b3      	lsls	r3, r6, #2
10004ebe:	4a20      	ldr	r2, [pc, #128]	; (10004f40 <clock_configure_internal+0xc0>)
10004ec0:	5899      	ldr	r1, [r3, r2]
10004ec2:	2900      	cmp	r1, #0
10004ec4:	d007      	beq.n	10004ed6 <clock_configure_internal+0x56>
10004ec6:	6950      	ldr	r0, [r2, #20]
10004ec8:	f000 fa48 	bl	1000535c <__wrap___aeabi_uidiv>
10004ecc:	1c43      	adds	r3, r0, #1
10004ece:	0058      	lsls	r0, r3, #1
10004ed0:	18c0      	adds	r0, r0, r3
10004ed2:	3803      	subs	r0, #3
10004ed4:	d2fd      	bcs.n	10004ed2 <clock_configure_internal+0x52>
10004ed6:	017f      	lsls	r7, r7, #5
10004ed8:	6822      	ldr	r2, [r4, #0]
10004eda:	4057      	eors	r7, r2
10004edc:	22e0      	movs	r2, #224	; 0xe0
10004ede:	4017      	ands	r7, r2
10004ee0:	2380      	movs	r3, #128	; 0x80
10004ee2:	015b      	lsls	r3, r3, #5
10004ee4:	18e3      	adds	r3, r4, r3
10004ee6:	601f      	str	r7, [r3, #0]
10004ee8:	4652      	mov	r2, sl
10004eea:	2a01      	cmp	r2, #1
10004eec:	d91a      	bls.n	10004f24 <clock_configure_internal+0xa4>
10004eee:	2380      	movs	r3, #128	; 0x80
10004ef0:	019b      	lsls	r3, r3, #6
10004ef2:	18e3      	adds	r3, r4, r3
10004ef4:	2280      	movs	r2, #128	; 0x80
10004ef6:	0112      	lsls	r2, r2, #4
10004ef8:	601a      	str	r2, [r3, #0]
10004efa:	9b08      	ldr	r3, [sp, #32]
10004efc:	6063      	str	r3, [r4, #4]
10004efe:	00b6      	lsls	r6, r6, #2
10004f00:	4b0f      	ldr	r3, [pc, #60]	; (10004f40 <clock_configure_internal+0xc0>)
10004f02:	4642      	mov	r2, r8
10004f04:	50f2      	str	r2, [r6, r3]
10004f06:	bcc0      	pop	{r6, r7}
10004f08:	46ba      	mov	sl, r7
10004f0a:	46b0      	mov	r8, r6
10004f0c:	bdf8      	pop	{r3, r4, r5, r6, r7, pc}
10004f0e:	2d01      	cmp	r5, #1
10004f10:	d1ce      	bne.n	10004eb0 <clock_configure_internal+0x30>
10004f12:	2203      	movs	r2, #3
10004f14:	23c0      	movs	r3, #192	; 0xc0
10004f16:	019b      	lsls	r3, r3, #6
10004f18:	18e3      	adds	r3, r4, r3
10004f1a:	601a      	str	r2, [r3, #0]
10004f1c:	68a3      	ldr	r3, [r4, #8]
10004f1e:	07db      	lsls	r3, r3, #31
10004f20:	d5fc      	bpl.n	10004f1c <clock_configure_internal+0x9c>
10004f22:	e7d8      	b.n	10004ed6 <clock_configure_internal+0x56>
10004f24:	6821      	ldr	r1, [r4, #0]
10004f26:	4069      	eors	r1, r5
10004f28:	2203      	movs	r2, #3
10004f2a:	400a      	ands	r2, r1
10004f2c:	601a      	str	r2, [r3, #0]
10004f2e:	68a3      	ldr	r3, [r4, #8]
10004f30:	2201      	movs	r2, #1
10004f32:	40aa      	lsls	r2, r5
10004f34:	421a      	tst	r2, r3
10004f36:	d0fa      	beq.n	10004f2e <clock_configure_internal+0xae>
10004f38:	e7d9      	b.n	10004eee <clock_configure_internal+0x6e>
10004f3a:	46c0      	nop			; (mov r8, r8)
10004f3c:	40008000 	.word	0x40008000
10004f40:	20001edc 	.word	0x20001edc

10004f44 <clock_configure_int_divider>:
10004f44:	b5f0      	push	{r4, r5, r6, r7, lr}
10004f46:	b083      	sub	sp, #12
10004f48:	0005      	movs	r5, r0
10004f4a:	000e      	movs	r6, r1
10004f4c:	0017      	movs	r7, r2
10004f4e:	0018      	movs	r0, r3
10004f50:	9908      	ldr	r1, [sp, #32]
10004f52:	f000 fa03 	bl	1000535c <__wrap___aeabi_uidiv>
10004f56:	0003      	movs	r3, r0
10004f58:	9a08      	ldr	r2, [sp, #32]
10004f5a:	0214      	lsls	r4, r2, #8
10004f5c:	9400      	str	r4, [sp, #0]
10004f5e:	003a      	movs	r2, r7
10004f60:	0031      	movs	r1, r6
10004f62:	0028      	movs	r0, r5
10004f64:	f7ff ff8c 	bl	10004e80 <clock_configure_internal>
10004f68:	b003      	add	sp, #12
10004f6a:	bdf0      	pop	{r4, r5, r6, r7, pc}

10004f6c <clock_configure_undivided>:
10004f6c:	b510      	push	{r4, lr}
10004f6e:	b082      	sub	sp, #8
10004f70:	2480      	movs	r4, #128	; 0x80
10004f72:	0064      	lsls	r4, r4, #1
10004f74:	9400      	str	r4, [sp, #0]
10004f76:	f7ff ff83 	bl	10004e80 <clock_configure_internal>
10004f7a:	b002      	add	sp, #8
10004f7c:	bd10      	pop	{r4, pc}
	...

10004f80 <clock_get_hz>:
10004f80:	0080      	lsls	r0, r0, #2
10004f82:	4b01      	ldr	r3, [pc, #4]	; (10004f88 <clock_get_hz+0x8>)
10004f84:	58c0      	ldr	r0, [r0, r3]
10004f86:	4770      	bx	lr
10004f88:	20001edc 	.word	0x20001edc

10004f8c <pll_init>:
10004f8c:	b5f0      	push	{r4, r5, r6, r7, lr}
10004f8e:	46c6      	mov	lr, r8
10004f90:	b500      	push	{lr}
10004f92:	0004      	movs	r4, r0
10004f94:	000e      	movs	r6, r1
10004f96:	0017      	movs	r7, r2
10004f98:	001d      	movs	r5, r3
10004f9a:	4836      	ldr	r0, [pc, #216]	; (10005074 <pll_init+0xe8>)
10004f9c:	f000 f9de 	bl	1000535c <__wrap___aeabi_uidiv>
10004fa0:	4680      	mov	r8, r0
10004fa2:	4b35      	ldr	r3, [pc, #212]	; (10005078 <pll_init+0xec>)
10004fa4:	18fa      	adds	r2, r7, r3
10004fa6:	4b35      	ldr	r3, [pc, #212]	; (1000507c <pll_init+0xf0>)
10004fa8:	429a      	cmp	r2, r3
10004faa:	d838      	bhi.n	1000501e <pll_init+0x92>
10004fac:	0001      	movs	r1, r0
10004fae:	0038      	movs	r0, r7
10004fb0:	f000 f9d4 	bl	1000535c <__wrap___aeabi_uidiv>
10004fb4:	0002      	movs	r2, r0
10004fb6:	3a10      	subs	r2, #16
10004fb8:	2398      	movs	r3, #152	; 0x98
10004fba:	005b      	lsls	r3, r3, #1
10004fbc:	429a      	cmp	r2, r3
10004fbe:	d834      	bhi.n	1000502a <pll_init+0x9e>
10004fc0:	1e6b      	subs	r3, r5, #1
10004fc2:	2b06      	cmp	r3, #6
10004fc4:	d837      	bhi.n	10005036 <pll_init+0xaa>
10004fc6:	9b06      	ldr	r3, [sp, #24]
10004fc8:	3b01      	subs	r3, #1
10004fca:	2b06      	cmp	r3, #6
10004fcc:	d833      	bhi.n	10005036 <pll_init+0xaa>
10004fce:	093f      	lsrs	r7, r7, #4
10004fd0:	4547      	cmp	r7, r8
10004fd2:	d336      	bcc.n	10005042 <pll_init+0xb6>
10004fd4:	042d      	lsls	r5, r5, #16
10004fd6:	9b06      	ldr	r3, [sp, #24]
10004fd8:	031a      	lsls	r2, r3, #12
10004fda:	4315      	orrs	r5, r2
10004fdc:	6823      	ldr	r3, [r4, #0]
10004fde:	2b00      	cmp	r3, #0
10004fe0:	db35      	blt.n	1000504e <pll_init+0xc2>
10004fe2:	4b27      	ldr	r3, [pc, #156]	; (10005080 <pll_init+0xf4>)
10004fe4:	429c      	cmp	r4, r3
10004fe6:	d043      	beq.n	10005070 <pll_init+0xe4>
10004fe8:	230c      	movs	r3, #12
10004fea:	2201      	movs	r2, #1
10004fec:	409a      	lsls	r2, r3
10004fee:	4b25      	ldr	r3, [pc, #148]	; (10005084 <pll_init+0xf8>)
10004ff0:	601a      	str	r2, [r3, #0]
10004ff2:	4b25      	ldr	r3, [pc, #148]	; (10005088 <pll_init+0xfc>)
10004ff4:	601a      	str	r2, [r3, #0]
10004ff6:	4b25      	ldr	r3, [pc, #148]	; (1000508c <pll_init+0x100>)
10004ff8:	681b      	ldr	r3, [r3, #0]
10004ffa:	0011      	movs	r1, r2
10004ffc:	4399      	bics	r1, r3
10004ffe:	d1fa      	bne.n	10004ff6 <pll_init+0x6a>
10005000:	6026      	str	r6, [r4, #0]
10005002:	60a0      	str	r0, [r4, #8]
10005004:	4b22      	ldr	r3, [pc, #136]	; (10005090 <pll_init+0x104>)
10005006:	18e2      	adds	r2, r4, r3
10005008:	2321      	movs	r3, #33	; 0x21
1000500a:	6013      	str	r3, [r2, #0]
1000500c:	6823      	ldr	r3, [r4, #0]
1000500e:	2b00      	cmp	r3, #0
10005010:	dafc      	bge.n	1000500c <pll_init+0x80>
10005012:	60e5      	str	r5, [r4, #12]
10005014:	2308      	movs	r3, #8
10005016:	6013      	str	r3, [r2, #0]
10005018:	bc80      	pop	{r7}
1000501a:	46b8      	mov	r8, r7
1000501c:	bdf0      	pop	{r4, r5, r6, r7, pc}
1000501e:	4b1d      	ldr	r3, [pc, #116]	; (10005094 <pll_init+0x108>)
10005020:	4a1d      	ldr	r2, [pc, #116]	; (10005098 <pll_init+0x10c>)
10005022:	2111      	movs	r1, #17
10005024:	481d      	ldr	r0, [pc, #116]	; (1000509c <pll_init+0x110>)
10005026:	f002 f99f 	bl	10007368 <__assert_func>
1000502a:	4b1d      	ldr	r3, [pc, #116]	; (100050a0 <pll_init+0x114>)
1000502c:	4a1a      	ldr	r2, [pc, #104]	; (10005098 <pll_init+0x10c>)
1000502e:	2119      	movs	r1, #25
10005030:	481a      	ldr	r0, [pc, #104]	; (1000509c <pll_init+0x110>)
10005032:	f002 f999 	bl	10007368 <__assert_func>
10005036:	4b1b      	ldr	r3, [pc, #108]	; (100050a4 <pll_init+0x118>)
10005038:	4a17      	ldr	r2, [pc, #92]	; (10005098 <pll_init+0x10c>)
1000503a:	211c      	movs	r1, #28
1000503c:	4817      	ldr	r0, [pc, #92]	; (1000509c <pll_init+0x110>)
1000503e:	f002 f993 	bl	10007368 <__assert_func>
10005042:	4b19      	ldr	r3, [pc, #100]	; (100050a8 <pll_init+0x11c>)
10005044:	4a14      	ldr	r2, [pc, #80]	; (10005098 <pll_init+0x10c>)
10005046:	2123      	movs	r1, #35	; 0x23
10005048:	4814      	ldr	r0, [pc, #80]	; (1000509c <pll_init+0x110>)
1000504a:	f002 f98d 	bl	10007368 <__assert_func>
1000504e:	6822      	ldr	r2, [r4, #0]
10005050:	233f      	movs	r3, #63	; 0x3f
10005052:	4013      	ands	r3, r2
10005054:	42b3      	cmp	r3, r6
10005056:	d1c4      	bne.n	10004fe2 <pll_init+0x56>
10005058:	68a3      	ldr	r3, [r4, #8]
1000505a:	051b      	lsls	r3, r3, #20
1000505c:	0d1b      	lsrs	r3, r3, #20
1000505e:	4283      	cmp	r3, r0
10005060:	d1bf      	bne.n	10004fe2 <pll_init+0x56>
10005062:	68e3      	ldr	r3, [r4, #12]
10005064:	22ee      	movs	r2, #238	; 0xee
10005066:	02d2      	lsls	r2, r2, #11
10005068:	4013      	ands	r3, r2
1000506a:	42ab      	cmp	r3, r5
1000506c:	d1b9      	bne.n	10004fe2 <pll_init+0x56>
1000506e:	e7d3      	b.n	10005018 <pll_init+0x8c>
10005070:	230d      	movs	r3, #13
10005072:	e7ba      	b.n	10004fea <pll_init+0x5e>
10005074:	00b71b00 	.word	0x00b71b00
10005078:	d34be880 	.word	0xd34be880
1000507c:	32a9f880 	.word	0x32a9f880
10005080:	4002c000 	.word	0x4002c000
10005084:	4000e000 	.word	0x4000e000
10005088:	4000f000 	.word	0x4000f000
1000508c:	4000c008 	.word	0x4000c008
10005090:	00003004 	.word	0x00003004
10005094:	1000cabc 	.word	0x1000cabc
10005098:	1000cbd0 	.word	0x1000cbd0
1000509c:	1000cb0c 	.word	0x1000cb0c
100050a0:	1000cb4c 	.word	0x1000cb4c
100050a4:	1000cb68 	.word	0x1000cb68
100050a8:	1000cbb4 	.word	0x1000cbb4

100050ac <tick_start>:
100050ac:	2380      	movs	r3, #128	; 0x80
100050ae:	009b      	lsls	r3, r3, #2
100050b0:	430b      	orrs	r3, r1
100050b2:	4a01      	ldr	r2, [pc, #4]	; (100050b8 <tick_start+0xc>)
100050b4:	62d3      	str	r3, [r2, #44]	; 0x2c
100050b6:	4770      	bx	lr
100050b8:	40058000 	.word	0x40058000

100050bc <xosc_init>:
100050bc:	4b06      	ldr	r3, [pc, #24]	; (100050d8 <xosc_init+0x1c>)
100050be:	22aa      	movs	r2, #170	; 0xaa
100050c0:	0112      	lsls	r2, r2, #4
100050c2:	601a      	str	r2, [r3, #0]
100050c4:	222f      	movs	r2, #47	; 0x2f
100050c6:	60da      	str	r2, [r3, #12]
100050c8:	4b04      	ldr	r3, [pc, #16]	; (100050dc <xosc_init+0x20>)
100050ca:	4a05      	ldr	r2, [pc, #20]	; (100050e0 <xosc_init+0x24>)
100050cc:	601a      	str	r2, [r3, #0]
100050ce:	4b02      	ldr	r3, [pc, #8]	; (100050d8 <xosc_init+0x1c>)
100050d0:	685b      	ldr	r3, [r3, #4]
100050d2:	2b00      	cmp	r3, #0
100050d4:	dafb      	bge.n	100050ce <xosc_init+0x12>
100050d6:	4770      	bx	lr
100050d8:	40024000 	.word	0x40024000
100050dc:	40026000 	.word	0x40026000
100050e0:	00fab000 	.word	0x00fab000

100050e4 <runtime_run_initializers_from>:
100050e4:	b510      	push	{r4, lr}
100050e6:	0004      	movs	r4, r0
100050e8:	e001      	b.n	100050ee <runtime_run_initializers_from+0xa>
100050ea:	cc08      	ldmia	r4!, {r3}
100050ec:	4798      	blx	r3
100050ee:	4b02      	ldr	r3, [pc, #8]	; (100050f8 <runtime_run_initializers_from+0x14>)
100050f0:	429c      	cmp	r4, r3
100050f2:	d3fa      	bcc.n	100050ea <runtime_run_initializers_from+0x6>
100050f4:	bd10      	pop	{r4, pc}
100050f6:	46c0      	nop			; (mov r8, r8)
100050f8:	1000bb3c 	.word	0x1000bb3c

100050fc <first_per_core_initializer>:
100050fc:	4770      	bx	lr
	...

10005100 <runtime_run_initializers>:
10005100:	b510      	push	{r4, lr}
10005102:	4802      	ldr	r0, [pc, #8]	; (1000510c <runtime_run_initializers+0xc>)
10005104:	f7ff ffee 	bl	100050e4 <runtime_run_initializers_from>
10005108:	bd10      	pop	{r4, pc}
1000510a:	46c0      	nop			; (mov r8, r8)
1000510c:	1000bb00 	.word	0x1000bb00

10005110 <runtime_init_early_resets>:
10005110:	4b05      	ldr	r3, [pc, #20]	; (10005128 <runtime_init_early_resets+0x18>)
10005112:	4a06      	ldr	r2, [pc, #24]	; (1000512c <runtime_init_early_resets+0x1c>)
10005114:	601a      	str	r2, [r3, #0]
10005116:	4b06      	ldr	r3, [pc, #24]	; (10005130 <runtime_init_early_resets+0x20>)
10005118:	4a06      	ldr	r2, [pc, #24]	; (10005134 <runtime_init_early_resets+0x24>)
1000511a:	601a      	str	r2, [r3, #0]
1000511c:	4b06      	ldr	r3, [pc, #24]	; (10005138 <runtime_init_early_resets+0x28>)
1000511e:	681a      	ldr	r2, [r3, #0]
10005120:	4b04      	ldr	r3, [pc, #16]	; (10005134 <runtime_init_early_resets+0x24>)
10005122:	4393      	bics	r3, r2
10005124:	d1fa      	bne.n	1000511c <runtime_init_early_resets+0xc>
10005126:	4770      	bx	lr
10005128:	4000e000 	.word	0x4000e000
1000512c:	fefbcdbf 	.word	0xfefbcdbf
10005130:	4000f000 	.word	0x4000f000
10005134:	003c7ffe 	.word	0x003c7ffe
10005138:	4000c008 	.word	0x4000c008

1000513c <runtime_init_usb_power_down>:
1000513c:	4b04      	ldr	r3, [pc, #16]	; (10005150 <runtime_init_usb_power_down+0x14>)
1000513e:	6cdb      	ldr	r3, [r3, #76]	; 0x4c
10005140:	2b00      	cmp	r3, #0
10005142:	d103      	bne.n	1000514c <runtime_init_usb_power_down+0x10>
10005144:	4b03      	ldr	r3, [pc, #12]	; (10005154 <runtime_init_usb_power_down+0x18>)
10005146:	2280      	movs	r2, #128	; 0x80
10005148:	02d2      	lsls	r2, r2, #11
1000514a:	601a      	str	r2, [r3, #0]
1000514c:	4770      	bx	lr
1000514e:	46c0      	nop			; (mov r8, r8)
10005150:	50110000 	.word	0x50110000
10005154:	5011204c 	.word	0x5011204c

10005158 <runtime_init_post_clock_resets>:
10005158:	4b04      	ldr	r3, [pc, #16]	; (1000516c <runtime_init_post_clock_resets+0x14>)
1000515a:	4a05      	ldr	r2, [pc, #20]	; (10005170 <runtime_init_post_clock_resets+0x18>)
1000515c:	601a      	str	r2, [r3, #0]
1000515e:	4b05      	ldr	r3, [pc, #20]	; (10005174 <runtime_init_post_clock_resets+0x1c>)
10005160:	681b      	ldr	r3, [r3, #0]
10005162:	43db      	mvns	r3, r3
10005164:	01db      	lsls	r3, r3, #7
10005166:	d1fa      	bne.n	1000515e <runtime_init_post_clock_resets+0x6>
10005168:	4770      	bx	lr
1000516a:	46c0      	nop			; (mov r8, r8)
1000516c:	4000f000 	.word	0x4000f000
10005170:	01ffffff 	.word	0x01ffffff
10005174:	4000c008 	.word	0x4000c008

10005178 <runtime_init_rp2040_gpio_ie_disable>:
10005178:	4b03      	ldr	r3, [pc, #12]	; (10005188 <runtime_init_rp2040_gpio_ie_disable+0x10>)
1000517a:	2240      	movs	r2, #64	; 0x40
1000517c:	679a      	str	r2, [r3, #120]	; 0x78
1000517e:	675a      	str	r2, [r3, #116]	; 0x74
10005180:	671a      	str	r2, [r3, #112]	; 0x70
10005182:	66da      	str	r2, [r3, #108]	; 0x6c
10005184:	4770      	bx	lr
10005186:	46c0      	nop			; (mov r8, r8)
10005188:	4001f000 	.word	0x4001f000

1000518c <runtime_init_spin_locks_reset>:
1000518c:	b510      	push	{r4, lr}
1000518e:	f7fe fe1d 	bl	10003dcc <spin_locks_reset>
10005192:	bd10      	pop	{r4, pc}

10005194 <runtime_init_install_ram_vector_table>:
10005194:	b570      	push	{r4, r5, r6, lr}
10005196:	4c04      	ldr	r4, [pc, #16]	; (100051a8 <runtime_init_install_ram_vector_table+0x14>)
10005198:	68a1      	ldr	r1, [r4, #8]
1000519a:	4d04      	ldr	r5, [pc, #16]	; (100051ac <runtime_init_install_ram_vector_table+0x18>)
1000519c:	22c0      	movs	r2, #192	; 0xc0
1000519e:	0028      	movs	r0, r5
100051a0:	f000 ffe8 	bl	10006174 <__wrap___aeabi_memcpy>
100051a4:	60a5      	str	r5, [r4, #8]
100051a6:	bd70      	pop	{r4, r5, r6, pc}
100051a8:	e000ed00 	.word	0xe000ed00
100051ac:	20000000 	.word	0x20000000

100051b0 <start_all_ticks>:
100051b0:	b570      	push	{r4, r5, r6, lr}
100051b2:	2004      	movs	r0, #4
100051b4:	f7ff fee4 	bl	10004f80 <clock_get_hz>
100051b8:	4906      	ldr	r1, [pc, #24]	; (100051d4 <start_all_ticks+0x24>)
100051ba:	f000 f8cf 	bl	1000535c <__wrap___aeabi_uidiv>
100051be:	0005      	movs	r5, r0
100051c0:	2400      	movs	r4, #0
100051c2:	2c00      	cmp	r4, #0
100051c4:	dd00      	ble.n	100051c8 <start_all_ticks+0x18>
100051c6:	bd70      	pop	{r4, r5, r6, pc}
100051c8:	b2e0      	uxtb	r0, r4
100051ca:	0029      	movs	r1, r5
100051cc:	f7ff ff6e 	bl	100050ac <tick_start>
100051d0:	3401      	adds	r4, #1
100051d2:	e7f6      	b.n	100051c2 <start_all_ticks+0x12>
100051d4:	000f4240 	.word	0x000f4240

100051d8 <runtime_init_clocks>:
100051d8:	b530      	push	{r4, r5, lr}
100051da:	b083      	sub	sp, #12
100051dc:	4b27      	ldr	r3, [pc, #156]	; (1000527c <runtime_init_clocks+0xa4>)
100051de:	2200      	movs	r2, #0
100051e0:	679a      	str	r2, [r3, #120]	; 0x78
100051e2:	f7ff ff6b 	bl	100050bc <xosc_init>
100051e6:	4b26      	ldr	r3, [pc, #152]	; (10005280 <runtime_init_clocks+0xa8>)
100051e8:	2201      	movs	r2, #1
100051ea:	601a      	str	r2, [r3, #0]
100051ec:	4b23      	ldr	r3, [pc, #140]	; (1000527c <runtime_init_clocks+0xa4>)
100051ee:	6c5b      	ldr	r3, [r3, #68]	; 0x44
100051f0:	2b01      	cmp	r3, #1
100051f2:	d1fb      	bne.n	100051ec <runtime_init_clocks+0x14>
100051f4:	4b23      	ldr	r3, [pc, #140]	; (10005284 <runtime_init_clocks+0xac>)
100051f6:	2203      	movs	r2, #3
100051f8:	601a      	str	r2, [r3, #0]
100051fa:	4b20      	ldr	r3, [pc, #128]	; (1000527c <runtime_init_clocks+0xa4>)
100051fc:	6b9b      	ldr	r3, [r3, #56]	; 0x38
100051fe:	2b01      	cmp	r3, #1
10005200:	d1fb      	bne.n	100051fa <runtime_init_clocks+0x22>
10005202:	3301      	adds	r3, #1
10005204:	9300      	str	r3, [sp, #0]
10005206:	3304      	adds	r3, #4
10005208:	4a1f      	ldr	r2, [pc, #124]	; (10005288 <runtime_init_clocks+0xb0>)
1000520a:	2101      	movs	r1, #1
1000520c:	481f      	ldr	r0, [pc, #124]	; (1000528c <runtime_init_clocks+0xb4>)
1000520e:	f7ff febd 	bl	10004f8c <pll_init>
10005212:	2305      	movs	r3, #5
10005214:	9300      	str	r3, [sp, #0]
10005216:	4a1e      	ldr	r2, [pc, #120]	; (10005290 <runtime_init_clocks+0xb8>)
10005218:	2101      	movs	r1, #1
1000521a:	481e      	ldr	r0, [pc, #120]	; (10005294 <runtime_init_clocks+0xbc>)
1000521c:	f7ff feb6 	bl	10004f8c <pll_init>
10005220:	4b1d      	ldr	r3, [pc, #116]	; (10005298 <runtime_init_clocks+0xc0>)
10005222:	2200      	movs	r2, #0
10005224:	2102      	movs	r1, #2
10005226:	2004      	movs	r0, #4
10005228:	f7ff fea0 	bl	10004f6c <clock_configure_undivided>
1000522c:	4d1b      	ldr	r5, [pc, #108]	; (1000529c <runtime_init_clocks+0xc4>)
1000522e:	002b      	movs	r3, r5
10005230:	2200      	movs	r2, #0
10005232:	2101      	movs	r1, #1
10005234:	2005      	movs	r0, #5
10005236:	f7ff fe99 	bl	10004f6c <clock_configure_undivided>
1000523a:	4c19      	ldr	r4, [pc, #100]	; (100052a0 <runtime_init_clocks+0xc8>)
1000523c:	0023      	movs	r3, r4
1000523e:	2200      	movs	r2, #0
10005240:	2100      	movs	r1, #0
10005242:	2007      	movs	r0, #7
10005244:	f7ff fe92 	bl	10004f6c <clock_configure_undivided>
10005248:	0023      	movs	r3, r4
1000524a:	2200      	movs	r2, #0
1000524c:	2100      	movs	r1, #0
1000524e:	2008      	movs	r0, #8
10005250:	f7ff fe8c 	bl	10004f6c <clock_configure_undivided>
10005254:	2380      	movs	r3, #128	; 0x80
10005256:	00db      	lsls	r3, r3, #3
10005258:	9300      	str	r3, [sp, #0]
1000525a:	0023      	movs	r3, r4
1000525c:	2200      	movs	r2, #0
1000525e:	2100      	movs	r1, #0
10005260:	2009      	movs	r0, #9
10005262:	f7ff fe6f 	bl	10004f44 <clock_configure_int_divider>
10005266:	002b      	movs	r3, r5
10005268:	2200      	movs	r2, #0
1000526a:	2100      	movs	r1, #0
1000526c:	2006      	movs	r0, #6
1000526e:	f7ff fe7d 	bl	10004f6c <clock_configure_undivided>
10005272:	f7ff ff9d 	bl	100051b0 <start_all_ticks>
10005276:	b003      	add	sp, #12
10005278:	bd30      	pop	{r4, r5, pc}
1000527a:	46c0      	nop			; (mov r8, r8)
1000527c:	40008000 	.word	0x40008000
10005280:	4000b03c 	.word	0x4000b03c
10005284:	4000b030 	.word	0x4000b030
10005288:	59682f00 	.word	0x59682f00
1000528c:	40028000 	.word	0x40028000
10005290:	47868c00 	.word	0x47868c00
10005294:	4002c000 	.word	0x4002c000
10005298:	00b71b00 	.word	0x00b71b00
1000529c:	07735940 	.word	0x07735940
100052a0:	02dc6c00 	.word	0x02dc6c00

100052a4 <__aeabi_bits_init>:
100052a4:	4801      	ldr	r0, [pc, #4]	; (100052ac <__aeabi_bits_init+0x8>)
100052a6:	2104      	movs	r1, #4
100052a8:	4b01      	ldr	r3, [pc, #4]	; (100052b0 <__aeabi_bits_init+0xc>)
100052aa:	4718      	bx	r3
100052ac:	200009d0 	.word	0x200009d0
100052b0:	100052d5 	.word	0x100052d5

100052b4 <rom_func_lookup>:
100052b4:	b510      	push	{r4, lr}
100052b6:	0001      	movs	r1, r0
100052b8:	2318      	movs	r3, #24
100052ba:	881b      	ldrh	r3, [r3, #0]
100052bc:	2214      	movs	r2, #20
100052be:	8810      	ldrh	r0, [r2, #0]
100052c0:	4798      	blx	r3
100052c2:	bd10      	pop	{r4, pc}

100052c4 <rom_data_lookup>:
100052c4:	b510      	push	{r4, lr}
100052c6:	0001      	movs	r1, r0
100052c8:	2318      	movs	r3, #24
100052ca:	881b      	ldrh	r3, [r3, #0]
100052cc:	2216      	movs	r2, #22
100052ce:	8810      	ldrh	r0, [r2, #0]
100052d0:	4798      	blx	r3
100052d2:	bd10      	pop	{r4, pc}

100052d4 <rom_funcs_lookup>:
100052d4:	b5f0      	push	{r4, r5, r6, r7, lr}
100052d6:	46c6      	mov	lr, r8
100052d8:	b500      	push	{lr}
100052da:	0007      	movs	r7, r0
100052dc:	000e      	movs	r6, r1
100052de:	2500      	movs	r5, #0
100052e0:	2301      	movs	r3, #1
100052e2:	4698      	mov	r8, r3
100052e4:	e000      	b.n	100052e8 <rom_funcs_lookup+0x14>
100052e6:	3501      	adds	r5, #1
100052e8:	42b5      	cmp	r5, r6
100052ea:	d20a      	bcs.n	10005302 <rom_funcs_lookup+0x2e>
100052ec:	00ac      	lsls	r4, r5, #2
100052ee:	193c      	adds	r4, r7, r4
100052f0:	6820      	ldr	r0, [r4, #0]
100052f2:	f7ff ffdf 	bl	100052b4 <rom_func_lookup>
100052f6:	6020      	str	r0, [r4, #0]
100052f8:	2800      	cmp	r0, #0
100052fa:	d1f4      	bne.n	100052e6 <rom_funcs_lookup+0x12>
100052fc:	2300      	movs	r3, #0
100052fe:	4698      	mov	r8, r3
10005300:	e7f1      	b.n	100052e6 <rom_funcs_lookup+0x12>
10005302:	4640      	mov	r0, r8
10005304:	bc80      	pop	{r7}
10005306:	46b8      	mov	r8, r7
10005308:	bdf0      	pop	{r4, r5, r6, r7, pc}
	...

1000530c <__wrap___aeabi_idiv>:
1000530c:	4a12      	ldr	r2, [pc, #72]	; (10005358 <divmod_s32s32_savestate+0x18>)
1000530e:	6f93      	ldr	r3, [r2, #120]	; 0x78
10005310:	089b      	lsrs	r3, r3, #2
10005312:	d215      	bcs.n	10005340 <divmod_s32s32_savestate>

10005314 <divmod_s32s32_unsafe>:
10005314:	6690      	str	r0, [r2, #104]	; 0x68
10005316:	66d1      	str	r1, [r2, #108]	; 0x6c
10005318:	2900      	cmp	r1, #0
1000531a:	d005      	beq.n	10005328 <divmod_s32s32_unsafe+0x14>
1000531c:	e7ff      	b.n	1000531e <divmod_s32s32_unsafe+0xa>
1000531e:	e7ff      	b.n	10005320 <divmod_s32s32_unsafe+0xc>
10005320:	e7ff      	b.n	10005322 <divmod_s32s32_unsafe+0xe>
10005322:	6f51      	ldr	r1, [r2, #116]	; 0x74
10005324:	6f10      	ldr	r0, [r2, #112]	; 0x70
10005326:	4770      	bx	lr
10005328:	b504      	push	{r2, lr}
1000532a:	2180      	movs	r1, #128	; 0x80
1000532c:	0609      	lsls	r1, r1, #24
1000532e:	17c2      	asrs	r2, r0, #31
10005330:	4051      	eors	r1, r2
10005332:	2800      	cmp	r0, #0
10005334:	d000      	beq.n	10005338 <divmod_s32s32_unsafe+0x24>
10005336:	43c8      	mvns	r0, r1
10005338:	f006 fbb2 	bl	1000baa0 <____aeabi_idiv0_veneer>
1000533c:	2100      	movs	r1, #0
1000533e:	bd04      	pop	{r2, pc}

10005340 <divmod_s32s32_savestate>:
10005340:	b5f0      	push	{r4, r5, r6, r7, lr}
10005342:	6e14      	ldr	r4, [r2, #96]	; 0x60
10005344:	6e55      	ldr	r5, [r2, #100]	; 0x64
10005346:	6f57      	ldr	r7, [r2, #116]	; 0x74
10005348:	6f16      	ldr	r6, [r2, #112]	; 0x70
1000534a:	f7ff ffe3 	bl	10005314 <divmod_s32s32_unsafe>
1000534e:	6614      	str	r4, [r2, #96]	; 0x60
10005350:	6655      	str	r5, [r2, #100]	; 0x64
10005352:	6757      	str	r7, [r2, #116]	; 0x74
10005354:	6716      	str	r6, [r2, #112]	; 0x70
10005356:	bdf0      	pop	{r4, r5, r6, r7, pc}
10005358:	d0000000 	.word	0xd0000000

1000535c <__wrap___aeabi_uidiv>:
1000535c:	4a11      	ldr	r2, [pc, #68]	; (100053a4 <divmod_u32u32_savestate+0x18>)
1000535e:	6f93      	ldr	r3, [r2, #120]	; 0x78
10005360:	089b      	lsrs	r3, r3, #2
10005362:	d213      	bcs.n	1000538c <divmod_u32u32_savestate>

10005364 <divmod_u32u32_unsafe>:
10005364:	6610      	str	r0, [r2, #96]	; 0x60
10005366:	6651      	str	r1, [r2, #100]	; 0x64
10005368:	2900      	cmp	r1, #0
1000536a:	d005      	beq.n	10005378 <divmod_u32u32_unsafe+0x14>
1000536c:	e7ff      	b.n	1000536e <divmod_u32u32_unsafe+0xa>
1000536e:	e7ff      	b.n	10005370 <divmod_u32u32_unsafe+0xc>
10005370:	e7ff      	b.n	10005372 <divmod_u32u32_unsafe+0xe>
10005372:	6f51      	ldr	r1, [r2, #116]	; 0x74
10005374:	6f10      	ldr	r0, [r2, #112]	; 0x70
10005376:	4770      	bx	lr
10005378:	b504      	push	{r2, lr}
1000537a:	2800      	cmp	r0, #0
1000537c:	d001      	beq.n	10005382 <divmod_u32u32_unsafe+0x1e>
1000537e:	2000      	movs	r0, #0
10005380:	43c0      	mvns	r0, r0
10005382:	f006 fb8d 	bl	1000baa0 <____aeabi_idiv0_veneer>
10005386:	2100      	movs	r1, #0
10005388:	bd04      	pop	{r2, pc}
1000538a:	46c0      	nop			; (mov r8, r8)

1000538c <divmod_u32u32_savestate>:
1000538c:	b5f0      	push	{r4, r5, r6, r7, lr}
1000538e:	6e14      	ldr	r4, [r2, #96]	; 0x60
10005390:	6e55      	ldr	r5, [r2, #100]	; 0x64
10005392:	6f57      	ldr	r7, [r2, #116]	; 0x74
10005394:	6f16      	ldr	r6, [r2, #112]	; 0x70
10005396:	f7ff ffe5 	bl	10005364 <divmod_u32u32_unsafe>
1000539a:	6614      	str	r4, [r2, #96]	; 0x60
1000539c:	6655      	str	r5, [r2, #100]	; 0x64
1000539e:	6757      	str	r7, [r2, #116]	; 0x74
100053a0:	6716      	str	r6, [r2, #112]	; 0x70
100053a2:	bdf0      	pop	{r4, r5, r6, r7, pc}
100053a4:	d0000000 	.word	0xd0000000

100053a8 <__wrap___aeabi_ldivmod>:
100053a8:	4694      	mov	ip, r2
100053aa:	4a4a      	ldr	r2, [pc, #296]	; (100054d4 <udiv0+0x1a>)
100053ac:	6f92      	ldr	r2, [r2, #120]	; 0x78
100053ae:	0892      	lsrs	r2, r2, #2
100053b0:	4662      	mov	r2, ip
100053b2:	d201      	bcs.n	100053b8 <divmod_s64s64_savestate>
100053b4:	e028      	b.n	10005408 <divmod_s64s64_unsafe>
100053b6:	46c0      	nop			; (mov r8, r8)

100053b8 <divmod_s64s64_savestate>:
100053b8:	b5f0      	push	{r4, r5, r6, r7, lr}
100053ba:	4e46      	ldr	r6, [pc, #280]	; (100054d4 <udiv0+0x1a>)
100053bc:	6e34      	ldr	r4, [r6, #96]	; 0x60
100053be:	6e75      	ldr	r5, [r6, #100]	; 0x64
100053c0:	6f77      	ldr	r7, [r6, #116]	; 0x74
100053c2:	6f36      	ldr	r6, [r6, #112]	; 0x70
100053c4:	f000 f820 	bl	10005408 <divmod_s64s64_unsafe>
100053c8:	4694      	mov	ip, r2
100053ca:	4a42      	ldr	r2, [pc, #264]	; (100054d4 <udiv0+0x1a>)
100053cc:	6614      	str	r4, [r2, #96]	; 0x60
100053ce:	6655      	str	r5, [r2, #100]	; 0x64
100053d0:	6757      	str	r7, [r2, #116]	; 0x74
100053d2:	6716      	str	r6, [r2, #112]	; 0x70
100053d4:	4662      	mov	r2, ip
100053d6:	bdf0      	pop	{r4, r5, r6, r7, pc}

100053d8 <__wrap___aeabi_uldivmod>:
100053d8:	4694      	mov	ip, r2
100053da:	4a3e      	ldr	r2, [pc, #248]	; (100054d4 <udiv0+0x1a>)
100053dc:	6f92      	ldr	r2, [r2, #120]	; 0x78
100053de:	0892      	lsrs	r2, r2, #2
100053e0:	4662      	mov	r2, ip
100053e2:	d201      	bcs.n	100053e8 <divmod_u64u64_savestate>
100053e4:	e054      	b.n	10005490 <divmod_u64u64_unsafe>
100053e6:	46c0      	nop			; (mov r8, r8)

100053e8 <divmod_u64u64_savestate>:
100053e8:	b5f0      	push	{r4, r5, r6, r7, lr}
100053ea:	4e3a      	ldr	r6, [pc, #232]	; (100054d4 <udiv0+0x1a>)
100053ec:	6e34      	ldr	r4, [r6, #96]	; 0x60
100053ee:	6e75      	ldr	r5, [r6, #100]	; 0x64
100053f0:	6f77      	ldr	r7, [r6, #116]	; 0x74
100053f2:	6f36      	ldr	r6, [r6, #112]	; 0x70
100053f4:	f000 f84c 	bl	10005490 <divmod_u64u64_unsafe>
100053f8:	4694      	mov	ip, r2
100053fa:	4a36      	ldr	r2, [pc, #216]	; (100054d4 <udiv0+0x1a>)
100053fc:	6614      	str	r4, [r2, #96]	; 0x60
100053fe:	6655      	str	r5, [r2, #100]	; 0x64
10005400:	6757      	str	r7, [r2, #116]	; 0x74
10005402:	6716      	str	r6, [r2, #112]	; 0x70
10005404:	4662      	mov	r2, ip
10005406:	bdf0      	pop	{r4, r5, r6, r7, pc}

10005408 <divmod_s64s64_unsafe>:
10005408:	2b00      	cmp	r3, #0
1000540a:	db24      	blt.n	10005456 <l42_1+0x26>
1000540c:	d011      	beq.n	10005432 <l42_1+0x2>
1000540e:	2900      	cmp	r1, #0
10005410:	da3e      	bge.n	10005490 <divmod_u64u64_unsafe>
10005412:	b500      	push	{lr}
10005414:	43c9      	mvns	r1, r1
10005416:	4240      	negs	r0, r0
10005418:	d100      	bne.n	1000541c <l40_1>
1000541a:	3101      	adds	r1, #1

1000541c <l40_1>:
1000541c:	f000 f838 	bl	10005490 <divmod_u64u64_unsafe>
10005420:	43c9      	mvns	r1, r1
10005422:	4240      	negs	r0, r0
10005424:	d100      	bne.n	10005428 <l41_1>
10005426:	3101      	adds	r1, #1

10005428 <l41_1>:
10005428:	43db      	mvns	r3, r3
1000542a:	4252      	negs	r2, r2
1000542c:	d100      	bne.n	10005430 <l42_1>
1000542e:	3301      	adds	r3, #1

10005430 <l42_1>:
10005430:	bd00      	pop	{pc}
10005432:	2a00      	cmp	r2, #0
10005434:	d1eb      	bne.n	1000540e <divmod_s64s64_unsafe+0x6>
10005436:	2800      	cmp	r0, #0
10005438:	d101      	bne.n	1000543e <l42_1+0xe>
1000543a:	2900      	cmp	r1, #0
1000543c:	d005      	beq.n	1000544a <l42_1+0x1a>
1000543e:	2000      	movs	r0, #0
10005440:	0fc9      	lsrs	r1, r1, #31
10005442:	07c9      	lsls	r1, r1, #31
10005444:	d101      	bne.n	1000544a <l42_1+0x1a>
10005446:	43c0      	mvns	r0, r0
10005448:	0841      	lsrs	r1, r0, #1
1000544a:	b500      	push	{lr}
1000544c:	f006 fb10 	bl	1000ba70 <____aeabi_ldiv0_veneer>
10005450:	2200      	movs	r2, #0
10005452:	2300      	movs	r3, #0
10005454:	bd00      	pop	{pc}
10005456:	b500      	push	{lr}
10005458:	2900      	cmp	r1, #0
1000545a:	db0a      	blt.n	10005472 <l44_1+0x2>
1000545c:	43db      	mvns	r3, r3
1000545e:	4252      	negs	r2, r2
10005460:	d100      	bne.n	10005464 <l43_1>
10005462:	3301      	adds	r3, #1

10005464 <l43_1>:
10005464:	f000 f814 	bl	10005490 <divmod_u64u64_unsafe>
10005468:	43c9      	mvns	r1, r1
1000546a:	4240      	negs	r0, r0
1000546c:	d100      	bne.n	10005470 <l44_1>
1000546e:	3101      	adds	r1, #1

10005470 <l44_1>:
10005470:	bd00      	pop	{pc}
10005472:	43c9      	mvns	r1, r1
10005474:	4240      	negs	r0, r0
10005476:	d100      	bne.n	1000547a <l45_1>
10005478:	3101      	adds	r1, #1

1000547a <l45_1>:
1000547a:	43db      	mvns	r3, r3
1000547c:	4252      	negs	r2, r2
1000547e:	d100      	bne.n	10005482 <l46_1>
10005480:	3301      	adds	r3, #1

10005482 <l46_1>:
10005482:	f000 f805 	bl	10005490 <divmod_u64u64_unsafe>
10005486:	43db      	mvns	r3, r3
10005488:	4252      	negs	r2, r2
1000548a:	d100      	bne.n	1000548e <l47_1>
1000548c:	3301      	adds	r3, #1

1000548e <l47_1>:
1000548e:	bd00      	pop	{pc}

10005490 <divmod_u64u64_unsafe>:
10005490:	2900      	cmp	r1, #0
10005492:	d123      	bne.n	100054dc <y64>
10005494:	2b00      	cmp	r3, #0
10005496:	d118      	bne.n	100054ca <udiv0+0x10>
10005498:	2a00      	cmp	r2, #0
1000549a:	d00c      	beq.n	100054b6 <divmod_u64u64_unsafe+0x26>
1000549c:	46bc      	mov	ip, r7
1000549e:	4f0d      	ldr	r7, [pc, #52]	; (100054d4 <udiv0+0x1a>)
100054a0:	6638      	str	r0, [r7, #96]	; 0x60
100054a2:	667a      	str	r2, [r7, #100]	; 0x64
100054a4:	2100      	movs	r1, #0
100054a6:	2300      	movs	r3, #0
100054a8:	e7ff      	b.n	100054aa <divmod_u64u64_unsafe+0x1a>
100054aa:	e7ff      	b.n	100054ac <divmod_u64u64_unsafe+0x1c>
100054ac:	e7ff      	b.n	100054ae <divmod_u64u64_unsafe+0x1e>
100054ae:	6f7a      	ldr	r2, [r7, #116]	; 0x74
100054b0:	6f38      	ldr	r0, [r7, #112]	; 0x70
100054b2:	4667      	mov	r7, ip
100054b4:	4770      	bx	lr
100054b6:	2800      	cmp	r0, #0
100054b8:	d001      	beq.n	100054be <udiv0+0x4>

100054ba <udiv0>:
100054ba:	4807      	ldr	r0, [pc, #28]	; (100054d8 <udiv0+0x1e>)
100054bc:	0001      	movs	r1, r0
100054be:	b500      	push	{lr}
100054c0:	f006 fad6 	bl	1000ba70 <____aeabi_ldiv0_veneer>
100054c4:	2200      	movs	r2, #0
100054c6:	2300      	movs	r3, #0
100054c8:	bd00      	pop	{pc}
100054ca:	0002      	movs	r2, r0
100054cc:	000b      	movs	r3, r1
100054ce:	2000      	movs	r0, #0
100054d0:	2100      	movs	r1, #0
100054d2:	4770      	bx	lr
100054d4:	d0000000 	.word	0xd0000000
100054d8:	ffffffff 	.word	0xffffffff

100054dc <y64>:
100054dc:	2b00      	cmp	r3, #0
100054de:	d000      	beq.n	100054e2 <y64+0x6>
100054e0:	e0bf      	b.n	10005662 <y64_x48>
100054e2:	0c13      	lsrs	r3, r2, #16
100054e4:	d128      	bne.n	10005538 <y64_x32>
100054e6:	2a00      	cmp	r2, #0
100054e8:	d0e7      	beq.n	100054ba <udiv0>
100054ea:	b480      	push	{r7}
100054ec:	4f11      	ldr	r7, [pc, #68]	; (10005534 <y64+0x58>)
100054ee:	6639      	str	r1, [r7, #96]	; 0x60
100054f0:	667a      	str	r2, [r7, #100]	; 0x64
100054f2:	e7ff      	b.n	100054f4 <y64+0x18>
100054f4:	e7ff      	b.n	100054f6 <y64+0x1a>
100054f6:	b430      	push	{r4, r5}
100054f8:	0c04      	lsrs	r4, r0, #16
100054fa:	6f7b      	ldr	r3, [r7, #116]	; 0x74
100054fc:	6f39      	ldr	r1, [r7, #112]	; 0x70
100054fe:	041b      	lsls	r3, r3, #16
10005500:	4323      	orrs	r3, r4
10005502:	663b      	str	r3, [r7, #96]	; 0x60
10005504:	667a      	str	r2, [r7, #100]	; 0x64
10005506:	e7ff      	b.n	10005508 <y64+0x2c>
10005508:	e7ff      	b.n	1000550a <y64+0x2e>
1000550a:	e7ff      	b.n	1000550c <y64+0x30>
1000550c:	46c0      	nop			; (mov r8, r8)
1000550e:	b284      	uxth	r4, r0
10005510:	6f7b      	ldr	r3, [r7, #116]	; 0x74
10005512:	6f3d      	ldr	r5, [r7, #112]	; 0x70
10005514:	041b      	lsls	r3, r3, #16
10005516:	4323      	orrs	r3, r4
10005518:	663b      	str	r3, [r7, #96]	; 0x60
1000551a:	667a      	str	r2, [r7, #100]	; 0x64
1000551c:	e7ff      	b.n	1000551e <y64+0x42>
1000551e:	e7ff      	b.n	10005520 <y64+0x44>
10005520:	46c0      	nop			; (mov r8, r8)
10005522:	2300      	movs	r3, #0
10005524:	042c      	lsls	r4, r5, #16
10005526:	0c2d      	lsrs	r5, r5, #16
10005528:	6f7a      	ldr	r2, [r7, #116]	; 0x74
1000552a:	6f38      	ldr	r0, [r7, #112]	; 0x70
1000552c:	1900      	adds	r0, r0, r4
1000552e:	4169      	adcs	r1, r5
10005530:	bcb0      	pop	{r4, r5, r7}
10005532:	4770      	bx	lr
10005534:	d0000000 	.word	0xd0000000

10005538 <y64_x32>:
10005538:	b5f0      	push	{r4, r5, r6, r7, lr}
1000553a:	4694      	mov	ip, r2
1000553c:	2500      	movs	r5, #0
1000553e:	0e14      	lsrs	r4, r2, #24
10005540:	d101      	bne.n	10005546 <y64_x32+0xe>
10005542:	0212      	lsls	r2, r2, #8
10005544:	3508      	adds	r5, #8
10005546:	0f14      	lsrs	r4, r2, #28
10005548:	d101      	bne.n	1000554e <y64_x32+0x16>
1000554a:	0112      	lsls	r2, r2, #4
1000554c:	3504      	adds	r5, #4
1000554e:	0f94      	lsrs	r4, r2, #30
10005550:	d101      	bne.n	10005556 <y64_x32+0x1e>
10005552:	0092      	lsls	r2, r2, #2
10005554:	3502      	adds	r5, #2
10005556:	0fd4      	lsrs	r4, r2, #31
10005558:	d101      	bne.n	1000555e <y64_x32+0x26>
1000555a:	0052      	lsls	r2, r2, #1
1000555c:	3501      	adds	r5, #1
1000555e:	0bd4      	lsrs	r4, r2, #15
10005560:	3401      	adds	r4, #1
10005562:	4f25      	ldr	r7, [pc, #148]	; (100055f8 <y64_x32+0xc0>)
10005564:	667c      	str	r4, [r7, #100]	; 0x64
10005566:	4c25      	ldr	r4, [pc, #148]	; (100055fc <y64_x32+0xc4>)
10005568:	663c      	str	r4, [r7, #96]	; 0x60
1000556a:	0c0e      	lsrs	r6, r1, #16
1000556c:	b293      	uxth	r3, r2
1000556e:	e7ff      	b.n	10005570 <y64_x32+0x38>
10005570:	e7ff      	b.n	10005572 <y64_x32+0x3a>
10005572:	e7ff      	b.n	10005574 <y64_x32+0x3c>
10005574:	6f3c      	ldr	r4, [r7, #112]	; 0x70
10005576:	4366      	muls	r6, r4
10005578:	0c36      	lsrs	r6, r6, #16
1000557a:	0377      	lsls	r7, r6, #13
1000557c:	46be      	mov	lr, r7
1000557e:	4373      	muls	r3, r6
10005580:	0bdf      	lsrs	r7, r3, #15
10005582:	045b      	lsls	r3, r3, #17
10005584:	1ac0      	subs	r0, r0, r3
10005586:	41b9      	sbcs	r1, r7
10005588:	0c13      	lsrs	r3, r2, #16
1000558a:	4373      	muls	r3, r6
1000558c:	18db      	adds	r3, r3, r3
1000558e:	1ac9      	subs	r1, r1, r3
10005590:	08ce      	lsrs	r6, r1, #3
10005592:	4366      	muls	r6, r4
10005594:	0c36      	lsrs	r6, r6, #16
10005596:	44b6      	add	lr, r6
10005598:	b293      	uxth	r3, r2
1000559a:	4373      	muls	r3, r6
1000559c:	0f1f      	lsrs	r7, r3, #28
1000559e:	011b      	lsls	r3, r3, #4
100055a0:	1ac0      	subs	r0, r0, r3
100055a2:	41b9      	sbcs	r1, r7
100055a4:	0c13      	lsrs	r3, r2, #16
100055a6:	4373      	muls	r3, r6
100055a8:	0b1f      	lsrs	r7, r3, #12
100055aa:	051b      	lsls	r3, r3, #20
100055ac:	1ac0      	subs	r0, r0, r3
100055ae:	41b9      	sbcs	r1, r7
100055b0:	0d86      	lsrs	r6, r0, #22
100055b2:	028f      	lsls	r7, r1, #10
100055b4:	433e      	orrs	r6, r7
100055b6:	4366      	muls	r6, r4
100055b8:	0c36      	lsrs	r6, r6, #16
100055ba:	2d09      	cmp	r5, #9
100055bc:	db24      	blt.n	10005608 <last0>
100055be:	0a52      	lsrs	r2, r2, #9
100055c0:	4372      	muls	r2, r6
100055c2:	1a80      	subs	r0, r0, r2
100055c4:	0377      	lsls	r7, r6, #13
100055c6:	0a46      	lsrs	r6, r0, #9
100055c8:	4366      	muls	r6, r4
100055ca:	0c36      	lsrs	r6, r6, #16
100055cc:	2316      	movs	r3, #22
100055ce:	1b5b      	subs	r3, r3, r5
100055d0:	40de      	lsrs	r6, r3
100055d2:	40df      	lsrs	r7, r3
100055d4:	19bf      	adds	r7, r7, r6
100055d6:	4664      	mov	r4, ip
100055d8:	4366      	muls	r6, r4
100055da:	1b82      	subs	r2, r0, r6
100055dc:	4670      	mov	r0, lr
100055de:	3504      	adds	r5, #4
100055e0:	3306      	adds	r3, #6
100055e2:	0001      	movs	r1, r0
100055e4:	40d9      	lsrs	r1, r3
100055e6:	40a8      	lsls	r0, r5
100055e8:	19c0      	adds	r0, r0, r7
100055ea:	d300      	bcc.n	100055ee <y64_x32+0xb6>
100055ec:	3101      	adds	r1, #1
100055ee:	42a2      	cmp	r2, r4
100055f0:	d206      	bcs.n	10005600 <y64_x32+0xc8>
100055f2:	2300      	movs	r3, #0
100055f4:	bdf0      	pop	{r4, r5, r6, r7, pc}
100055f6:	0000      	.short	0x0000
100055f8:	d0000000 	.word	0xd0000000
100055fc:	ffffffff 	.word	0xffffffff
10005600:	1b12      	subs	r2, r2, r4
10005602:	3001      	adds	r0, #1
10005604:	d3f3      	bcc.n	100055ee <y64_x32+0xb6>
10005606:	e7f1      	b.n	100055ec <y64_x32+0xb4>

10005608 <last0>:
10005608:	2709      	movs	r7, #9
1000560a:	1b7f      	subs	r7, r7, r5
1000560c:	40fe      	lsrs	r6, r7
1000560e:	4664      	mov	r4, ip
10005610:	b2a2      	uxth	r2, r4
10005612:	4372      	muls	r2, r6
10005614:	1a80      	subs	r0, r0, r2
10005616:	d200      	bcs.n	1000561a <last0+0x12>
10005618:	3901      	subs	r1, #1
1000561a:	0c22      	lsrs	r2, r4, #16
1000561c:	4372      	muls	r2, r6
1000561e:	0c13      	lsrs	r3, r2, #16
10005620:	0412      	lsls	r2, r2, #16
10005622:	1a82      	subs	r2, r0, r2
10005624:	4199      	sbcs	r1, r3
10005626:	000b      	movs	r3, r1
10005628:	4670      	mov	r0, lr
1000562a:	3504      	adds	r5, #4
1000562c:	3713      	adds	r7, #19
1000562e:	0001      	movs	r1, r0
10005630:	40f9      	lsrs	r1, r7
10005632:	40a8      	lsls	r0, r5
10005634:	1980      	adds	r0, r0, r6
10005636:	d300      	bcc.n	1000563a <last0+0x32>
10005638:	3101      	adds	r1, #1
1000563a:	2b00      	cmp	r3, #0
1000563c:	d102      	bne.n	10005644 <last0+0x3c>
1000563e:	42a2      	cmp	r2, r4
10005640:	d20a      	bcs.n	10005658 <last0+0x50>
10005642:	bdf0      	pop	{r4, r5, r6, r7, pc}
10005644:	3001      	adds	r0, #1
10005646:	d300      	bcc.n	1000564a <last0+0x42>
10005648:	3101      	adds	r1, #1
1000564a:	1b12      	subs	r2, r2, r4
1000564c:	d2fa      	bcs.n	10005644 <last0+0x3c>
1000564e:	3b01      	subs	r3, #1
10005650:	d1f8      	bne.n	10005644 <last0+0x3c>
10005652:	42a2      	cmp	r2, r4
10005654:	d200      	bcs.n	10005658 <last0+0x50>
10005656:	bdf0      	pop	{r4, r5, r6, r7, pc}
10005658:	3001      	adds	r0, #1
1000565a:	d300      	bcc.n	1000565e <last0+0x56>
1000565c:	3101      	adds	r1, #1
1000565e:	1b12      	subs	r2, r2, r4
10005660:	e7f7      	b.n	10005652 <last0+0x4a>

10005662 <y64_x48>:
10005662:	b5f0      	push	{r4, r5, r6, r7, lr}
10005664:	0c1c      	lsrs	r4, r3, #16
10005666:	d000      	beq.n	1000566a <y64_x48+0x8>
10005668:	e080      	b.n	1000576c <y64_x64>
1000566a:	b40c      	push	{r2, r3}
1000566c:	2500      	movs	r5, #0
1000566e:	0a1c      	lsrs	r4, r3, #8
10005670:	d104      	bne.n	1000567c <y64_x48+0x1a>
10005672:	021b      	lsls	r3, r3, #8
10005674:	0e16      	lsrs	r6, r2, #24
10005676:	4333      	orrs	r3, r6
10005678:	0212      	lsls	r2, r2, #8
1000567a:	3508      	adds	r5, #8
1000567c:	0b1c      	lsrs	r4, r3, #12
1000567e:	d104      	bne.n	1000568a <y64_x48+0x28>
10005680:	011b      	lsls	r3, r3, #4
10005682:	0f16      	lsrs	r6, r2, #28
10005684:	4333      	orrs	r3, r6
10005686:	0112      	lsls	r2, r2, #4
10005688:	3504      	adds	r5, #4
1000568a:	0b9c      	lsrs	r4, r3, #14
1000568c:	d104      	bne.n	10005698 <y64_x48+0x36>
1000568e:	009b      	lsls	r3, r3, #2
10005690:	0f96      	lsrs	r6, r2, #30
10005692:	4333      	orrs	r3, r6
10005694:	0092      	lsls	r2, r2, #2
10005696:	3502      	adds	r5, #2
10005698:	0bdc      	lsrs	r4, r3, #15
1000569a:	d102      	bne.n	100056a2 <y64_x48+0x40>
1000569c:	1892      	adds	r2, r2, r2
1000569e:	415b      	adcs	r3, r3
100056a0:	3501      	adds	r5, #1
100056a2:	001c      	movs	r4, r3
100056a4:	1897      	adds	r7, r2, r2
100056a6:	4164      	adcs	r4, r4
100056a8:	3401      	adds	r4, #1
100056aa:	4f46      	ldr	r7, [pc, #280]	; (100057c4 <y64_x64+0x58>)
100056ac:	667c      	str	r4, [r7, #100]	; 0x64
100056ae:	4c46      	ldr	r4, [pc, #280]	; (100057c8 <y64_x64+0x5c>)
100056b0:	663c      	str	r4, [r7, #96]	; 0x60
100056b2:	0c0e      	lsrs	r6, r1, #16
100056b4:	e7ff      	b.n	100056b6 <y64_x48+0x54>
100056b6:	e7ff      	b.n	100056b8 <y64_x48+0x56>
100056b8:	e7ff      	b.n	100056ba <y64_x48+0x58>
100056ba:	46c0      	nop			; (mov r8, r8)
100056bc:	6f3c      	ldr	r4, [r7, #112]	; 0x70
100056be:	4366      	muls	r6, r4
100056c0:	0c36      	lsrs	r6, r6, #16
100056c2:	0377      	lsls	r7, r6, #13
100056c4:	46be      	mov	lr, r7
100056c6:	b297      	uxth	r7, r2
100056c8:	4377      	muls	r7, r6
100056ca:	1bc0      	subs	r0, r0, r7
100056cc:	d200      	bcs.n	100056d0 <y64_x48+0x6e>
100056ce:	3901      	subs	r1, #1
100056d0:	1bc0      	subs	r0, r0, r7
100056d2:	d200      	bcs.n	100056d6 <y64_x48+0x74>
100056d4:	3901      	subs	r1, #1
100056d6:	b29f      	uxth	r7, r3
100056d8:	4377      	muls	r7, r6
100056da:	1bc9      	subs	r1, r1, r7
100056dc:	1bc9      	subs	r1, r1, r7
100056de:	0c17      	lsrs	r7, r2, #16
100056e0:	4377      	muls	r7, r6
100056e2:	047e      	lsls	r6, r7, #17
100056e4:	0bff      	lsrs	r7, r7, #15
100056e6:	1b80      	subs	r0, r0, r6
100056e8:	41b9      	sbcs	r1, r7
100056ea:	08ce      	lsrs	r6, r1, #3
100056ec:	4366      	muls	r6, r4
100056ee:	0c36      	lsrs	r6, r6, #16
100056f0:	2d0c      	cmp	r5, #12
100056f2:	db33      	blt.n	1000575c <last1>
100056f4:	44b6      	add	lr, r6
100056f6:	0b12      	lsrs	r2, r2, #12
100056f8:	051f      	lsls	r7, r3, #20
100056fa:	433a      	orrs	r2, r7
100056fc:	0b1b      	lsrs	r3, r3, #12
100056fe:	b297      	uxth	r7, r2
10005700:	4377      	muls	r7, r6
10005702:	1bc0      	subs	r0, r0, r7
10005704:	d200      	bcs.n	10005708 <y64_x48+0xa6>
10005706:	3901      	subs	r1, #1
10005708:	b29f      	uxth	r7, r3
1000570a:	4377      	muls	r7, r6
1000570c:	1bc9      	subs	r1, r1, r7
1000570e:	0c17      	lsrs	r7, r2, #16
10005710:	4377      	muls	r7, r6
10005712:	043e      	lsls	r6, r7, #16
10005714:	0c3f      	lsrs	r7, r7, #16
10005716:	1b80      	subs	r0, r0, r6
10005718:	41b9      	sbcs	r1, r7
1000571a:	0d86      	lsrs	r6, r0, #22
1000571c:	028f      	lsls	r7, r1, #10
1000571e:	433e      	orrs	r6, r7
10005720:	4366      	muls	r6, r4
10005722:	2729      	movs	r7, #41	; 0x29
10005724:	1b7f      	subs	r7, r7, r5
10005726:	40fe      	lsrs	r6, r7
10005728:	3d0c      	subs	r5, #12
1000572a:	4677      	mov	r7, lr
1000572c:	40af      	lsls	r7, r5
1000572e:	19bf      	adds	r7, r7, r6
10005730:	bc30      	pop	{r4, r5}
10005732:	b2a2      	uxth	r2, r4
10005734:	b2ab      	uxth	r3, r5
10005736:	4372      	muls	r2, r6
10005738:	4373      	muls	r3, r6
1000573a:	1a80      	subs	r0, r0, r2
1000573c:	4199      	sbcs	r1, r3
1000573e:	0c22      	lsrs	r2, r4, #16
10005740:	4372      	muls	r2, r6
10005742:	0c13      	lsrs	r3, r2, #16
10005744:	0412      	lsls	r2, r2, #16
10005746:	1a80      	subs	r0, r0, r2
10005748:	4199      	sbcs	r1, r3
1000574a:	0002      	movs	r2, r0
1000574c:	000b      	movs	r3, r1
1000574e:	3701      	adds	r7, #1
10005750:	1b00      	subs	r0, r0, r4
10005752:	41a9      	sbcs	r1, r5
10005754:	d2f9      	bcs.n	1000574a <y64_x48+0xe8>
10005756:	1e78      	subs	r0, r7, #1
10005758:	2100      	movs	r1, #0
1000575a:	bdf0      	pop	{r4, r5, r6, r7, pc}

1000575c <last1>:
1000575c:	270c      	movs	r7, #12
1000575e:	1b7f      	subs	r7, r7, r5
10005760:	40fe      	lsrs	r6, r7
10005762:	4677      	mov	r7, lr
10005764:	0b7f      	lsrs	r7, r7, #13
10005766:	40af      	lsls	r7, r5
10005768:	19ff      	adds	r7, r7, r7
1000576a:	e7e0      	b.n	1000572e <y64_x48+0xcc>

1000576c <y64_x64>:
1000576c:	2400      	movs	r4, #0
1000576e:	1c5d      	adds	r5, r3, #1
10005770:	d007      	beq.n	10005782 <y64_x64+0x16>
10005772:	4f14      	ldr	r7, [pc, #80]	; (100057c4 <y64_x64+0x58>)
10005774:	667d      	str	r5, [r7, #100]	; 0x64
10005776:	6639      	str	r1, [r7, #96]	; 0x60
10005778:	e7ff      	b.n	1000577a <y64_x64+0xe>
1000577a:	e7ff      	b.n	1000577c <y64_x64+0x10>
1000577c:	e7ff      	b.n	1000577e <y64_x64+0x12>
1000577e:	e7ff      	b.n	10005780 <y64_x64+0x14>
10005780:	6f3c      	ldr	r4, [r7, #112]	; 0x70
10005782:	b295      	uxth	r5, r2
10005784:	b29e      	uxth	r6, r3
10005786:	4365      	muls	r5, r4
10005788:	4366      	muls	r6, r4
1000578a:	1b40      	subs	r0, r0, r5
1000578c:	41b1      	sbcs	r1, r6
1000578e:	0c15      	lsrs	r5, r2, #16
10005790:	0c1e      	lsrs	r6, r3, #16
10005792:	4365      	muls	r5, r4
10005794:	4366      	muls	r6, r4
10005796:	0436      	lsls	r6, r6, #16
10005798:	0c2f      	lsrs	r7, r5, #16
1000579a:	433e      	orrs	r6, r7
1000579c:	042d      	lsls	r5, r5, #16
1000579e:	1b40      	subs	r0, r0, r5
100057a0:	41b1      	sbcs	r1, r6
100057a2:	4299      	cmp	r1, r3
100057a4:	d204      	bcs.n	100057b0 <y64_x64+0x44>
100057a6:	0002      	movs	r2, r0
100057a8:	000b      	movs	r3, r1
100057aa:	0020      	movs	r0, r4
100057ac:	2100      	movs	r1, #0
100057ae:	bdf0      	pop	{r4, r5, r6, r7, pc}
100057b0:	d101      	bne.n	100057b6 <y64_x64+0x4a>
100057b2:	4290      	cmp	r0, r2
100057b4:	d3f7      	bcc.n	100057a6 <y64_x64+0x3a>
100057b6:	1a80      	subs	r0, r0, r2
100057b8:	4199      	sbcs	r1, r3
100057ba:	3401      	adds	r4, #1
100057bc:	4299      	cmp	r1, r3
100057be:	d3f2      	bcc.n	100057a6 <y64_x64+0x3a>
100057c0:	e7f6      	b.n	100057b0 <y64_x64+0x44>
100057c2:	0000      	.short	0x0000
100057c4:	d0000000 	.word	0xd0000000
100057c8:	ffffffff 	.word	0xffffffff

100057cc <__wrap___aeabi_drsub>:
100057cc:	4048      	eors	r0, r1
100057ce:	4041      	eors	r1, r0
100057d0:	4048      	eors	r0, r1

100057d2 <__wrap___aeabi_dsub>:
100057d2:	b418      	push	{r3, r4}
100057d4:	4b1b      	ldr	r3, [pc, #108]	; (10005844 <__wrap___aeabi_dmul+0x12>)
100057d6:	685b      	ldr	r3, [r3, #4]
100057d8:	46fc      	mov	ip, pc
100057da:	9301      	str	r3, [sp, #4]
100057dc:	bd08      	pop	{r3, pc}
100057de:	df04      	.short	0xdf04
100057e0:	10005aa3 	.word	0x10005aa3

100057e4 <__wrap___aeabi_dadd>:
100057e4:	b418      	push	{r3, r4}
100057e6:	4b17      	ldr	r3, [pc, #92]	; (10005844 <__wrap___aeabi_dmul+0x12>)
100057e8:	681b      	ldr	r3, [r3, #0]
100057ea:	46fc      	mov	ip, pc
100057ec:	9301      	str	r3, [sp, #4]
100057ee:	bd08      	pop	{r3, pc}
100057f0:	5aaddf00 	.word	0x5aaddf00
100057f4:	1000      	.short	0x1000

100057f6 <__wrap___aeabi_ddiv>:
100057f6:	4694      	mov	ip, r2
100057f8:	4a13      	ldr	r2, [pc, #76]	; (10005848 <__wrap___aeabi_dmul+0x16>)
100057fa:	6f92      	ldr	r2, [r2, #120]	; 0x78
100057fc:	0892      	lsrs	r2, r2, #2
100057fe:	d209      	bcs.n	10005814 <ddiv_save_state>
10005800:	4662      	mov	r2, ip

10005802 <ddiv_shim_call>:
10005802:	b418      	push	{r3, r4}
10005804:	4b0f      	ldr	r3, [pc, #60]	; (10005844 <__wrap___aeabi_dmul+0x12>)
10005806:	68db      	ldr	r3, [r3, #12]
10005808:	46fc      	mov	ip, pc
1000580a:	9301      	str	r3, [sp, #4]
1000580c:	bd08      	pop	{r3, pc}
1000580e:	df0c      	.short	0xdf0c
10005810:	10005d65 	.word	0x10005d65

10005814 <ddiv_save_state>:
10005814:	4a0c      	ldr	r2, [pc, #48]	; (10005848 <__wrap___aeabi_dmul+0x16>)
10005816:	b5f0      	push	{r4, r5, r6, r7, lr}
10005818:	6e14      	ldr	r4, [r2, #96]	; 0x60
1000581a:	6e55      	ldr	r5, [r2, #100]	; 0x64
1000581c:	6f57      	ldr	r7, [r2, #116]	; 0x74
1000581e:	6f16      	ldr	r6, [r2, #112]	; 0x70
10005820:	4662      	mov	r2, ip
10005822:	f7ff ffee 	bl	10005802 <ddiv_shim_call>
10005826:	4a08      	ldr	r2, [pc, #32]	; (10005848 <__wrap___aeabi_dmul+0x16>)
10005828:	6614      	str	r4, [r2, #96]	; 0x60
1000582a:	6655      	str	r5, [r2, #100]	; 0x64
1000582c:	6757      	str	r7, [r2, #116]	; 0x74
1000582e:	6716      	str	r6, [r2, #112]	; 0x70
10005830:	bdf0      	pop	{r4, r5, r6, r7, pc}

10005832 <__wrap___aeabi_dmul>:
10005832:	b418      	push	{r3, r4}
10005834:	4b03      	ldr	r3, [pc, #12]	; (10005844 <__wrap___aeabi_dmul+0x12>)
10005836:	689b      	ldr	r3, [r3, #8]
10005838:	46fc      	mov	ip, pc
1000583a:	9301      	str	r3, [sp, #4]
1000583c:	bd08      	pop	{r3, pc}
1000583e:	df08      	.short	0xdf08
10005840:	10005c09 	.word	0x10005c09
10005844:	20002a50 	.word	0x20002a50
10005848:	d0000000 	.word	0xd0000000

1000584c <__wrap___aeabi_cdrcmple>:
1000584c:	b5ff      	push	{r0, r1, r2, r3, r4, r5, r6, r7, lr}
1000584e:	4050      	eors	r0, r2
10005850:	4042      	eors	r2, r0
10005852:	4050      	eors	r0, r2
10005854:	4059      	eors	r1, r3
10005856:	404b      	eors	r3, r1
10005858:	4059      	eors	r1, r3
1000585a:	e000      	b.n	1000585e <__aeabi_dfcmple_guts>

1000585c <__wrap___aeabi_cdcmpeq>:
1000585c:	b5ff      	push	{r0, r1, r2, r3, r4, r5, r6, r7, lr}

1000585e <__aeabi_dfcmple_guts>:
1000585e:	4f15      	ldr	r7, [pc, #84]	; (100058b4 <__aeabi_dfcmple_guts+0x56>)
10005860:	004c      	lsls	r4, r1, #1
10005862:	0d64      	lsrs	r4, r4, #21
10005864:	d003      	beq.n	1000586e <__aeabi_dfcmple_guts+0x10>
10005866:	42bc      	cmp	r4, r7
10005868:	d104      	bne.n	10005874 <__aeabi_dfcmple_guts+0x16>
1000586a:	030c      	lsls	r4, r1, #12
1000586c:	d814      	bhi.n	10005898 <__aeabi_dfcmple_guts+0x3a>
1000586e:	2000      	movs	r0, #0
10005870:	0d09      	lsrs	r1, r1, #20
10005872:	0509      	lsls	r1, r1, #20
10005874:	005c      	lsls	r4, r3, #1
10005876:	0d64      	lsrs	r4, r4, #21
10005878:	d003      	beq.n	10005882 <__aeabi_dfcmple_guts+0x24>
1000587a:	42bc      	cmp	r4, r7
1000587c:	d104      	bne.n	10005888 <__aeabi_dfcmple_guts+0x2a>
1000587e:	031c      	lsls	r4, r3, #12
10005880:	d80a      	bhi.n	10005898 <__aeabi_dfcmple_guts+0x3a>
10005882:	2200      	movs	r2, #0
10005884:	0d1b      	lsrs	r3, r3, #20
10005886:	051b      	lsls	r3, r3, #20
10005888:	2601      	movs	r6, #1
1000588a:	404b      	eors	r3, r1
1000588c:	d409      	bmi.n	100058a2 <__aeabi_dfcmple_guts+0x44>
1000588e:	404b      	eors	r3, r1
10005890:	d503      	bpl.n	1000589a <__aeabi_dfcmple_guts+0x3c>
10005892:	428b      	cmp	r3, r1
10005894:	d100      	bne.n	10005898 <__aeabi_dfcmple_guts+0x3a>
10005896:	4282      	cmp	r2, r0
10005898:	bdff      	pop	{r0, r1, r2, r3, r4, r5, r6, r7, pc}
1000589a:	4299      	cmp	r1, r3
1000589c:	d1fc      	bne.n	10005898 <__aeabi_dfcmple_guts+0x3a>
1000589e:	4290      	cmp	r0, r2
100058a0:	bdff      	pop	{r0, r1, r2, r3, r4, r5, r6, r7, pc}
100058a2:	430b      	orrs	r3, r1
100058a4:	18db      	adds	r3, r3, r3
100058a6:	4303      	orrs	r3, r0
100058a8:	4313      	orrs	r3, r2
100058aa:	d0f5      	beq.n	10005898 <__aeabi_dfcmple_guts+0x3a>
100058ac:	43c9      	mvns	r1, r1
100058ae:	1849      	adds	r1, r1, r1
100058b0:	bdff      	pop	{r0, r1, r2, r3, r4, r5, r6, r7, pc}
100058b2:	0000      	.short	0x0000
100058b4:	000007ff 	.word	0x000007ff

100058b8 <__wrap___aeabi_dcmplt>:
100058b8:	b500      	push	{lr}
100058ba:	f7ff ffcf 	bl	1000585c <__wrap___aeabi_cdcmpeq>
100058be:	4180      	sbcs	r0, r0
100058c0:	bd00      	pop	{pc}
100058c2:	46c0      	nop			; (mov r8, r8)

100058c4 <__wrap___aeabi_dcmple>:
100058c4:	b500      	push	{lr}
100058c6:	f7ff ffc9 	bl	1000585c <__wrap___aeabi_cdcmpeq>
100058ca:	d901      	bls.n	100058d0 <__wrap___aeabi_dcmple+0xc>
100058cc:	2000      	movs	r0, #0
100058ce:	bd00      	pop	{pc}
100058d0:	2001      	movs	r0, #1
100058d2:	bd00      	pop	{pc}

100058d4 <__wrap___aeabi_dcmpge>:
100058d4:	b500      	push	{lr}
100058d6:	f7ff ffb9 	bl	1000584c <__wrap___aeabi_cdrcmple>
100058da:	d901      	bls.n	100058e0 <__wrap___aeabi_dcmpge+0xc>
100058dc:	2000      	movs	r0, #0
100058de:	bd00      	pop	{pc}
100058e0:	2001      	movs	r0, #1
100058e2:	bd00      	pop	{pc}

100058e4 <__wrap___aeabi_dcmpgt>:
100058e4:	b500      	push	{lr}
100058e6:	f7ff ffb1 	bl	1000584c <__wrap___aeabi_cdrcmple>
100058ea:	4180      	sbcs	r0, r0
100058ec:	bd00      	pop	{pc}

100058ee <__wrap___aeabi_dcmpun>:
100058ee:	2001      	movs	r0, #1
100058f0:	0540      	lsls	r0, r0, #21
100058f2:	004a      	lsls	r2, r1, #1
100058f4:	1812      	adds	r2, r2, r0
100058f6:	d804      	bhi.n	10005902 <__wrap___aeabi_dcmpun+0x14>
100058f8:	005a      	lsls	r2, r3, #1
100058fa:	1812      	adds	r2, r2, r0
100058fc:	d801      	bhi.n	10005902 <__wrap___aeabi_dcmpun+0x14>
100058fe:	2000      	movs	r0, #0
10005900:	4770      	bx	lr
10005902:	2001      	movs	r0, #1
10005904:	4770      	bx	lr
	...

10005908 <__wrap___aeabi_ui2d>:
10005908:	2100      	movs	r1, #0
1000590a:	2800      	cmp	r0, #0
1000590c:	d105      	bne.n	1000591a <__wrap___aeabi_i2d+0xa>
1000590e:	4770      	bx	lr

10005910 <__wrap___aeabi_i2d>:
10005910:	17c1      	asrs	r1, r0, #31
10005912:	4048      	eors	r0, r1
10005914:	1a40      	subs	r0, r0, r1
10005916:	d0fa      	beq.n	1000590e <__wrap___aeabi_ui2d+0x6>
10005918:	07c9      	lsls	r1, r1, #31
1000591a:	b513      	push	{r0, r1, r4, lr}
1000591c:	4b06      	ldr	r3, [pc, #24]	; (10005938 <__wrap___aeabi_i2d+0x28>)
1000591e:	681b      	ldr	r3, [r3, #0]
10005920:	4798      	blx	r3
10005922:	bc0c      	pop	{r2, r3}
10005924:	1c44      	adds	r4, r0, #1
10005926:	40a2      	lsls	r2, r4
10005928:	0510      	lsls	r0, r2, #20
1000592a:	0b12      	lsrs	r2, r2, #12
1000592c:	4903      	ldr	r1, [pc, #12]	; (1000593c <__wrap___aeabi_i2d+0x2c>)
1000592e:	1b09      	subs	r1, r1, r4
10005930:	0509      	lsls	r1, r1, #20
10005932:	4319      	orrs	r1, r3
10005934:	4311      	orrs	r1, r2
10005936:	bd10      	pop	{r4, pc}
10005938:	20002b50 	.word	0x20002b50
1000593c:	0000041f 	.word	0x0000041f

10005940 <__wrap___aeabi_d2iz>:
10005940:	b510      	push	{r4, lr}
10005942:	004c      	lsls	r4, r1, #1
10005944:	0d62      	lsrs	r2, r4, #21
10005946:	2380      	movs	r3, #128	; 0x80
10005948:	18d2      	adds	r2, r2, r3
1000594a:	00db      	lsls	r3, r3, #3
1000594c:	1ad2      	subs	r2, r2, r3
1000594e:	055b      	lsls	r3, r3, #21
10005950:	2a7e      	cmp	r2, #126	; 0x7e
10005952:	dd10      	ble.n	10005976 <__wrap___aeabi_d2iz+0x36>
10005954:	3a9e      	subs	r2, #158	; 0x9e
10005956:	da13      	bge.n	10005980 <__wrap___aeabi_d2iz+0x40>
10005958:	17cc      	asrs	r4, r1, #31
1000595a:	0309      	lsls	r1, r1, #12
1000595c:	0849      	lsrs	r1, r1, #1
1000595e:	4319      	orrs	r1, r3
10005960:	4252      	negs	r2, r2
10005962:	40d1      	lsrs	r1, r2
10005964:	0064      	lsls	r4, r4, #1
10005966:	3401      	adds	r4, #1
10005968:	3215      	adds	r2, #21
1000596a:	2a20      	cmp	r2, #32
1000596c:	da05      	bge.n	1000597a <__wrap___aeabi_d2iz+0x3a>
1000596e:	40d0      	lsrs	r0, r2
10005970:	4308      	orrs	r0, r1
10005972:	4360      	muls	r0, r4
10005974:	bd10      	pop	{r4, pc}
10005976:	2000      	movs	r0, #0
10005978:	bd10      	pop	{r4, pc}
1000597a:	4608      	mov	r0, r1
1000597c:	4360      	muls	r0, r4
1000597e:	bd10      	pop	{r4, pc}
10005980:	0fc8      	lsrs	r0, r1, #31
10005982:	18c0      	adds	r0, r0, r3
10005984:	3801      	subs	r0, #1
10005986:	bd10      	pop	{r4, pc}

10005988 <__wrap___aeabi_d2uiz>:
10005988:	b418      	push	{r3, r4}
1000598a:	4b04      	ldr	r3, [pc, #16]	; (1000599c <__wrap___aeabi_d2uiz+0x14>)
1000598c:	6a5b      	ldr	r3, [r3, #36]	; 0x24
1000598e:	46fc      	mov	ip, pc
10005990:	9301      	str	r3, [sp, #4]
10005992:	bd08      	pop	{r3, pc}
10005994:	5f15df24 	.word	0x5f15df24
10005998:	00001000 	.word	0x00001000
1000599c:	20002a50 	.word	0x20002a50

100059a0 <__aeabi_double_init>:
100059a0:	b570      	push	{r4, r5, r6, lr}
100059a2:	2313      	movs	r3, #19
100059a4:	781c      	ldrb	r4, [r3, #0]
100059a6:	2c01      	cmp	r4, #1
100059a8:	d014      	beq.n	100059d4 <__aeabi_double_init+0x34>
100059aa:	2c01      	cmp	r4, #1
100059ac:	dc14      	bgt.n	100059d8 <__aeabi_double_init+0x38>
100059ae:	2c02      	cmp	r4, #2
100059b0:	dc02      	bgt.n	100059b8 <__aeabi_double_init+0x18>
100059b2:	4a1f      	ldr	r2, [pc, #124]	; (10005a30 <__aeabi_double_init+0x90>)
100059b4:	4b1f      	ldr	r3, [pc, #124]	; (10005a34 <__aeabi_double_init+0x94>)
100059b6:	649a      	str	r2, [r3, #72]	; 0x48
100059b8:	481f      	ldr	r0, [pc, #124]	; (10005a38 <__aeabi_double_init+0x98>)
100059ba:	f7ff fc7b 	bl	100052b4 <rom_func_lookup>
100059be:	4b1f      	ldr	r3, [pc, #124]	; (10005a3c <__aeabi_double_init+0x9c>)
100059c0:	6018      	str	r0, [r3, #0]
100059c2:	bd70      	pop	{r4, r5, r6, pc}
100059c4:	0099      	lsls	r1, r3, #2
100059c6:	481a      	ldr	r0, [pc, #104]	; (10005a30 <__aeabi_double_init+0x90>)
100059c8:	4a1a      	ldr	r2, [pc, #104]	; (10005a34 <__aeabi_double_init+0x94>)
100059ca:	5088      	str	r0, [r1, r2]
100059cc:	3301      	adds	r3, #1
100059ce:	2b1f      	cmp	r3, #31
100059d0:	d9f8      	bls.n	100059c4 <__aeabi_double_init+0x24>
100059d2:	e7ea      	b.n	100059aa <__aeabi_double_init+0xa>
100059d4:	2300      	movs	r3, #0
100059d6:	e7fa      	b.n	100059ce <__aeabi_double_init+0x2e>
100059d8:	4819      	ldr	r0, [pc, #100]	; (10005a40 <__aeabi_double_init+0xa0>)
100059da:	f7ff fc73 	bl	100052c4 <rom_data_lookup>
100059de:	0005      	movs	r5, r0
100059e0:	4818      	ldr	r0, [pc, #96]	; (10005a44 <__aeabi_double_init+0xa4>)
100059e2:	f7ff fc6f 	bl	100052c4 <rom_data_lookup>
100059e6:	3802      	subs	r0, #2
100059e8:	7803      	ldrb	r3, [r0, #0]
100059ea:	009b      	lsls	r3, r3, #2
100059ec:	2b7f      	cmp	r3, #127	; 0x7f
100059ee:	dd19      	ble.n	10005a24 <__aeabi_double_init+0x84>
100059f0:	2280      	movs	r2, #128	; 0x80
100059f2:	0029      	movs	r1, r5
100059f4:	480f      	ldr	r0, [pc, #60]	; (10005a34 <__aeabi_double_init+0x94>)
100059f6:	f000 fbbd 	bl	10006174 <__wrap___aeabi_memcpy>
100059fa:	2c02      	cmp	r4, #2
100059fc:	d1d7      	bne.n	100059ae <__aeabi_double_init+0xe>
100059fe:	4b12      	ldr	r3, [pc, #72]	; (10005a48 <__aeabi_double_init+0xa8>)
10005a00:	881a      	ldrh	r2, [r3, #0]
10005a02:	23b5      	movs	r3, #181	; 0xb5
10005a04:	021b      	lsls	r3, r3, #8
10005a06:	429a      	cmp	r2, r3
10005a08:	d109      	bne.n	10005a1e <__aeabi_double_init+0x7e>
10005a0a:	4b10      	ldr	r3, [pc, #64]	; (10005a4c <__aeabi_double_init+0xac>)
10005a0c:	881a      	ldrh	r2, [r3, #0]
10005a0e:	4b10      	ldr	r3, [pc, #64]	; (10005a50 <__aeabi_double_init+0xb0>)
10005a10:	429a      	cmp	r2, r3
10005a12:	d104      	bne.n	10005a1e <__aeabi_double_init+0x7e>
10005a14:	4b0f      	ldr	r3, [pc, #60]	; (10005a54 <__aeabi_double_init+0xb4>)
10005a16:	881a      	ldrh	r2, [r3, #0]
10005a18:	4b0f      	ldr	r3, [pc, #60]	; (10005a58 <__aeabi_double_init+0xb8>)
10005a1a:	429a      	cmp	r2, r3
10005a1c:	d0c7      	beq.n	100059ae <__aeabi_double_init+0xe>
10005a1e:	2000      	movs	r0, #0
10005a20:	f7fe f946 	bl	10003cb0 <panic>
10005a24:	4b0d      	ldr	r3, [pc, #52]	; (10005a5c <__aeabi_double_init+0xbc>)
10005a26:	4a0e      	ldr	r2, [pc, #56]	; (10005a60 <__aeabi_double_init+0xc0>)
10005a28:	2133      	movs	r1, #51	; 0x33
10005a2a:	480e      	ldr	r0, [pc, #56]	; (10005a64 <__aeabi_double_init+0xc4>)
10005a2c:	f001 fc9c 	bl	10007368 <__assert_func>
10005a30:	10005a69 	.word	0x10005a69
10005a34:	20002a50 	.word	0x20002a50
10005a38:	0000334c 	.word	0x0000334c
10005a3c:	20002b50 	.word	0x20002b50
10005a40:	00004453 	.word	0x00004453
10005a44:	00004653 	.word	0x00004653
10005a48:	00003854 	.word	0x00003854
10005a4c:	000038d8 	.word	0x000038d8
10005a50:	00004649 	.word	0x00004649
10005a54:	0000389c 	.word	0x0000389c
10005a58:	00004659 	.word	0x00004659
10005a5c:	1000cbdc 	.word	0x1000cbdc
10005a60:	1000cc74 	.word	0x1000cc74
10005a64:	1000cc20 	.word	0x1000cc20

10005a68 <double_table_shim_on_use_helper>:
10005a68:	b507      	push	{r0, r1, r2, lr}
10005a6a:	4660      	mov	r0, ip
10005a6c:	2800      	cmp	r0, #0
10005a6e:	d100      	bne.n	10005a72 <double_table_shim_on_use_helper+0xa>
10005a70:	be00      	bkpt	0x0000
10005a72:	8801      	ldrh	r1, [r0, #0]
10005a74:	0a0a      	lsrs	r2, r1, #8
10005a76:	3002      	adds	r0, #2
10005a78:	2adf      	cmp	r2, #223	; 0xdf
10005a7a:	d1fa      	bne.n	10005a72 <double_table_shim_on_use_helper+0xa>
10005a7c:	b2c9      	uxtb	r1, r1
10005a7e:	0882      	lsrs	r2, r0, #2
10005a80:	d304      	bcc.n	10005a8c <double_table_shim_on_use_helper+0x24>
10005a82:	8802      	ldrh	r2, [r0, #0]
10005a84:	8840      	ldrh	r0, [r0, #2]
10005a86:	0400      	lsls	r0, r0, #16
10005a88:	4310      	orrs	r0, r2
10005a8a:	e000      	b.n	10005a8e <double_table_shim_on_use_helper+0x26>
10005a8c:	6800      	ldr	r0, [r0, #0]
10005a8e:	4a02      	ldr	r2, [pc, #8]	; (10005a98 <double_table_shim_on_use_helper+0x30>)
10005a90:	5050      	str	r0, [r2, r1]
10005a92:	9003      	str	r0, [sp, #12]
10005a94:	bd07      	pop	{r0, r1, r2, pc}
10005a96:	0000      	.short	0x0000
10005a98:	20002a50 	.word	0x20002a50

10005a9c <drsub_shim>:
10005a9c:	b40f      	push	{r0, r1, r2, r3}
10005a9e:	bc03      	pop	{r0, r1}
10005aa0:	bc0c      	pop	{r2, r3}

10005aa2 <dsub_shim>:
10005aa2:	b5f0      	push	{r4, r5, r6, r7, lr}
10005aa4:	2401      	movs	r4, #1
10005aa6:	07e4      	lsls	r4, r4, #31
10005aa8:	4063      	eors	r3, r4
10005aaa:	e000      	b.n	10005aae <da_entry>

10005aac <dadd_shim>:
10005aac:	b5f0      	push	{r4, r5, r6, r7, lr}

10005aae <da_entry>:
10005aae:	0d0c      	lsrs	r4, r1, #20
10005ab0:	0fcf      	lsrs	r7, r1, #31
10005ab2:	1e66      	subs	r6, r4, #1
10005ab4:	0536      	lsls	r6, r6, #20
10005ab6:	1b89      	subs	r1, r1, r6
10005ab8:	0564      	lsls	r4, r4, #21
10005aba:	d303      	bcc.n	10005ac4 <l8_1>
10005abc:	43c9      	mvns	r1, r1
10005abe:	4240      	negs	r0, r0
10005ac0:	d300      	bcc.n	10005ac4 <l8_1>
10005ac2:	3101      	adds	r1, #1

10005ac4 <l8_1>:
10005ac4:	0d64      	lsrs	r4, r4, #21
10005ac6:	d003      	beq.n	10005ad0 <l8_2>
10005ac8:	1c66      	adds	r6, r4, #1
10005aca:	0af6      	lsrs	r6, r6, #11
10005acc:	d007      	beq.n	10005ade <l8_3>
10005ace:	1be4      	subs	r4, r4, r7

10005ad0 <l8_2>:
10005ad0:	2000      	movs	r0, #0
10005ad2:	007f      	lsls	r7, r7, #1
10005ad4:	1c79      	adds	r1, r7, #1
10005ad6:	0789      	lsls	r1, r1, #30
10005ad8:	1289      	asrs	r1, r1, #10
10005ada:	3c80      	subs	r4, #128	; 0x80
10005adc:	0324      	lsls	r4, r4, #12

10005ade <l8_3>:
10005ade:	0d1d      	lsrs	r5, r3, #20
10005ae0:	0fdf      	lsrs	r7, r3, #31
10005ae2:	1e6e      	subs	r6, r5, #1
10005ae4:	0536      	lsls	r6, r6, #20
10005ae6:	1b9b      	subs	r3, r3, r6
10005ae8:	056d      	lsls	r5, r5, #21
10005aea:	d303      	bcc.n	10005af4 <l9_1>
10005aec:	43db      	mvns	r3, r3
10005aee:	4252      	negs	r2, r2
10005af0:	d300      	bcc.n	10005af4 <l9_1>
10005af2:	3301      	adds	r3, #1

10005af4 <l9_1>:
10005af4:	0d6d      	lsrs	r5, r5, #21
10005af6:	d003      	beq.n	10005b00 <l9_2>
10005af8:	1c6e      	adds	r6, r5, #1
10005afa:	0af6      	lsrs	r6, r6, #11
10005afc:	d007      	beq.n	10005b0e <l9_3>
10005afe:	1bed      	subs	r5, r5, r7

10005b00 <l9_2>:
10005b00:	2200      	movs	r2, #0
10005b02:	007f      	lsls	r7, r7, #1
10005b04:	1c7b      	adds	r3, r7, #1
10005b06:	079b      	lsls	r3, r3, #30
10005b08:	129b      	asrs	r3, r3, #10
10005b0a:	3d80      	subs	r5, #128	; 0x80
10005b0c:	032d      	lsls	r5, r5, #12

10005b0e <l9_3>:
10005b0e:	1b2f      	subs	r7, r5, r4
10005b10:	1b66      	subs	r6, r4, r5
10005b12:	d458      	bmi.n	10005bc6 <da_ygtx>
10005b14:	46a4      	mov	ip, r4
10005b16:	2e20      	cmp	r6, #32
10005b18:	da46      	bge.n	10005ba8 <da_xrgty>
10005b1a:	3720      	adds	r7, #32
10005b1c:	0014      	movs	r4, r2
10005b1e:	40bc      	lsls	r4, r7

10005b20 <da_xgty0>:
10005b20:	001d      	movs	r5, r3
10005b22:	40bd      	lsls	r5, r7
10005b24:	40f2      	lsrs	r2, r6
10005b26:	4133      	asrs	r3, r6
10005b28:	432a      	orrs	r2, r5

10005b2a <da_add>:
10005b2a:	1880      	adds	r0, r0, r2
10005b2c:	4159      	adcs	r1, r3

10005b2e <da_pack>:
10005b2e:	0fcb      	lsrs	r3, r1, #31
10005b30:	d005      	beq.n	10005b3e <da_pack+0x10>
10005b32:	43c9      	mvns	r1, r1
10005b34:	43c0      	mvns	r0, r0
10005b36:	2200      	movs	r2, #0
10005b38:	4264      	negs	r4, r4
10005b3a:	4150      	adcs	r0, r2
10005b3c:	4151      	adcs	r1, r2
10005b3e:	4662      	mov	r2, ip
10005b40:	0d4d      	lsrs	r5, r1, #21
10005b42:	d128      	bne.n	10005b96 <da_0>
10005b44:	0d0d      	lsrs	r5, r1, #20
10005b46:	d107      	bne.n	10005b58 <da_1>
10005b48:	2800      	cmp	r0, #0
10005b4a:	d01f      	beq.n	10005b8c <da_5>

10005b4c <da_2>:
10005b4c:	1924      	adds	r4, r4, r4
10005b4e:	4140      	adcs	r0, r0
10005b50:	4149      	adcs	r1, r1
10005b52:	3a01      	subs	r2, #1
10005b54:	0d0d      	lsrs	r5, r1, #20
10005b56:	d0f9      	beq.n	10005b4c <da_2>

10005b58 <da_1>:
10005b58:	0064      	lsls	r4, r4, #1
10005b5a:	d306      	bcc.n	10005b6a <da_3>

10005b5c <da_4>:
10005b5c:	3001      	adds	r0, #1
10005b5e:	d300      	bcc.n	10005b62 <da_4+0x6>
10005b60:	3101      	adds	r1, #1
10005b62:	2c00      	cmp	r4, #0
10005b64:	d101      	bne.n	10005b6a <da_3>
10005b66:	0840      	lsrs	r0, r0, #1
10005b68:	0040      	lsls	r0, r0, #1

10005b6a <da_3>:
10005b6a:	3a01      	subs	r2, #1
10005b6c:	d40b      	bmi.n	10005b86 <da_6>
10005b6e:	1c94      	adds	r4, r2, #2
10005b70:	0ae4      	lsrs	r4, r4, #11
10005b72:	d104      	bne.n	10005b7e <da_7>
10005b74:	0512      	lsls	r2, r2, #20
10005b76:	4411      	add	r1, r2
10005b78:	07db      	lsls	r3, r3, #31
10005b7a:	4419      	add	r1, r3
10005b7c:	bdf0      	pop	{r4, r5, r6, r7, pc}

10005b7e <da_7>:
10005b7e:	07d9      	lsls	r1, r3, #31
10005b80:	4b20      	ldr	r3, [pc, #128]	; (10005c04 <da_xmgty+0x4>)
10005b82:	4319      	orrs	r1, r3
10005b84:	e000      	b.n	10005b88 <da_6+0x2>

10005b86 <da_6>:
10005b86:	07d9      	lsls	r1, r3, #31
10005b88:	2000      	movs	r0, #0
10005b8a:	bdf0      	pop	{r4, r5, r6, r7, pc}

10005b8c <da_5>:
10005b8c:	2900      	cmp	r1, #0
10005b8e:	d1dd      	bne.n	10005b4c <da_2>
10005b90:	2c00      	cmp	r4, #0
10005b92:	d1db      	bne.n	10005b4c <da_2>
10005b94:	bdf0      	pop	{r4, r5, r6, r7, pc}

10005b96 <da_0>:
10005b96:	3201      	adds	r2, #1
10005b98:	07c6      	lsls	r6, r0, #31
10005b9a:	0840      	lsrs	r0, r0, #1
10005b9c:	07cd      	lsls	r5, r1, #31
10005b9e:	4328      	orrs	r0, r5
10005ba0:	0849      	lsrs	r1, r1, #1
10005ba2:	2e00      	cmp	r6, #0
10005ba4:	d0e1      	beq.n	10005b6a <da_3>
10005ba6:	e7d9      	b.n	10005b5c <da_4>

10005ba8 <da_xrgty>:
10005ba8:	2e3c      	cmp	r6, #60	; 0x3c
10005baa:	da29      	bge.n	10005c00 <da_xmgty>
10005bac:	3e20      	subs	r6, #32
10005bae:	3740      	adds	r7, #64	; 0x40
10005bb0:	0014      	movs	r4, r2
10005bb2:	40bc      	lsls	r4, r7
10005bb4:	d000      	beq.n	10005bb8 <da_xrgty+0x10>
10005bb6:	2401      	movs	r4, #1
10005bb8:	40f2      	lsrs	r2, r6
10005bba:	4314      	orrs	r4, r2
10005bbc:	001a      	movs	r2, r3
10005bbe:	40bb      	lsls	r3, r7
10005bc0:	431c      	orrs	r4, r3
10005bc2:	17d3      	asrs	r3, r2, #31
10005bc4:	e7ac      	b.n	10005b20 <da_xgty0>

10005bc6 <da_ygtx>:
10005bc6:	46ac      	mov	ip, r5
10005bc8:	2f20      	cmp	r7, #32
10005bca:	da08      	bge.n	10005bde <da_yrgtx>
10005bcc:	3620      	adds	r6, #32
10005bce:	0004      	movs	r4, r0
10005bd0:	40b4      	lsls	r4, r6

10005bd2 <da_ygtx0>:
10005bd2:	000d      	movs	r5, r1
10005bd4:	40b5      	lsls	r5, r6
10005bd6:	40f8      	lsrs	r0, r7
10005bd8:	4139      	asrs	r1, r7
10005bda:	4328      	orrs	r0, r5
10005bdc:	e7a5      	b.n	10005b2a <da_add>

10005bde <da_yrgtx>:
10005bde:	2f3c      	cmp	r7, #60	; 0x3c
10005be0:	da0c      	bge.n	10005bfc <da_ymgtx>
10005be2:	3f20      	subs	r7, #32
10005be4:	3640      	adds	r6, #64	; 0x40
10005be6:	0004      	movs	r4, r0
10005be8:	40b4      	lsls	r4, r6
10005bea:	d000      	beq.n	10005bee <da_yrgtx+0x10>
10005bec:	2401      	movs	r4, #1
10005bee:	40f8      	lsrs	r0, r7
10005bf0:	4304      	orrs	r4, r0
10005bf2:	0008      	movs	r0, r1
10005bf4:	40b1      	lsls	r1, r6
10005bf6:	430c      	orrs	r4, r1
10005bf8:	17c1      	asrs	r1, r0, #31
10005bfa:	e7ea      	b.n	10005bd2 <da_ygtx0>

10005bfc <da_ymgtx>:
10005bfc:	0010      	movs	r0, r2
10005bfe:	0019      	movs	r1, r3

10005c00 <da_xmgty>:
10005c00:	2400      	movs	r4, #0
10005c02:	e794      	b.n	10005b2e <da_pack>
10005c04:	7ff00000 	.word	0x7ff00000

10005c08 <dmul_shim>:
10005c08:	b5f0      	push	{r4, r5, r6, r7, lr}
10005c0a:	0d0c      	lsrs	r4, r1, #20
10005c0c:	1e66      	subs	r6, r4, #1
10005c0e:	0536      	lsls	r6, r6, #20
10005c10:	1b89      	subs	r1, r1, r6
10005c12:	0ae6      	lsrs	r6, r4, #11
10005c14:	0564      	lsls	r4, r4, #21
10005c16:	0d64      	lsrs	r4, r4, #21
10005c18:	d002      	beq.n	10005c20 <l12_1>
10005c1a:	1c65      	adds	r5, r4, #1
10005c1c:	0aed      	lsrs	r5, r5, #11
10005c1e:	d004      	beq.n	10005c2a <l12_2>

10005c20 <l12_1>:
10005c20:	2000      	movs	r0, #0
10005c22:	2101      	movs	r1, #1
10005c24:	0509      	lsls	r1, r1, #20
10005c26:	3c80      	subs	r4, #128	; 0x80
10005c28:	0324      	lsls	r4, r4, #12

10005c2a <l12_2>:
10005c2a:	46a4      	mov	ip, r4
10005c2c:	0d1c      	lsrs	r4, r3, #20
10005c2e:	1e67      	subs	r7, r4, #1
10005c30:	053f      	lsls	r7, r7, #20
10005c32:	1bdb      	subs	r3, r3, r7
10005c34:	0ae7      	lsrs	r7, r4, #11
10005c36:	0564      	lsls	r4, r4, #21
10005c38:	0d64      	lsrs	r4, r4, #21
10005c3a:	d002      	beq.n	10005c42 <l13_1>
10005c3c:	1c65      	adds	r5, r4, #1
10005c3e:	0aed      	lsrs	r5, r5, #11
10005c40:	d004      	beq.n	10005c4c <l13_2>

10005c42 <l13_1>:
10005c42:	2200      	movs	r2, #0
10005c44:	2301      	movs	r3, #1
10005c46:	051b      	lsls	r3, r3, #20
10005c48:	3c80      	subs	r4, #128	; 0x80
10005c4a:	0324      	lsls	r4, r4, #12

10005c4c <l13_2>:
10005c4c:	4077      	eors	r7, r6
10005c4e:	4464      	add	r4, ip
10005c50:	b497      	push	{r0, r1, r2, r4, r7}
10005c52:	b284      	uxth	r4, r0
10005c54:	b296      	uxth	r6, r2
10005c56:	4374      	muls	r4, r6
10005c58:	0c07      	lsrs	r7, r0, #16
10005c5a:	437e      	muls	r6, r7
10005c5c:	0c15      	lsrs	r5, r2, #16
10005c5e:	436f      	muls	r7, r5
10005c60:	b280      	uxth	r0, r0
10005c62:	4368      	muls	r0, r5
10005c64:	1836      	adds	r6, r6, r0
10005c66:	d302      	bcc.n	10005c6e <l14_1>
10005c68:	2001      	movs	r0, #1
10005c6a:	0400      	lsls	r0, r0, #16
10005c6c:	183f      	adds	r7, r7, r0

10005c6e <l14_1>:
10005c6e:	0430      	lsls	r0, r6, #16
10005c70:	0c35      	lsrs	r5, r6, #16
10005c72:	1900      	adds	r0, r0, r4
10005c74:	417d      	adcs	r5, r7
10005c76:	4684      	mov	ip, r0
10005c78:	b288      	uxth	r0, r1
10005c7a:	b29a      	uxth	r2, r3
10005c7c:	4350      	muls	r0, r2
10005c7e:	0c0c      	lsrs	r4, r1, #16
10005c80:	4362      	muls	r2, r4
10005c82:	0c1f      	lsrs	r7, r3, #16
10005c84:	437c      	muls	r4, r7
10005c86:	b28e      	uxth	r6, r1
10005c88:	437e      	muls	r6, r7
10005c8a:	1992      	adds	r2, r2, r6
10005c8c:	d302      	bcc.n	10005c94 <l15_1>
10005c8e:	2601      	movs	r6, #1
10005c90:	0436      	lsls	r6, r6, #16
10005c92:	19a4      	adds	r4, r4, r6

10005c94 <l15_1>:
10005c94:	0416      	lsls	r6, r2, #16
10005c96:	0c17      	lsrs	r7, r2, #16
10005c98:	1836      	adds	r6, r6, r0
10005c9a:	4167      	adcs	r7, r4
10005c9c:	bc01      	pop	{r0}
10005c9e:	b281      	uxth	r1, r0
10005ca0:	b29a      	uxth	r2, r3
10005ca2:	4351      	muls	r1, r2
10005ca4:	0c04      	lsrs	r4, r0, #16
10005ca6:	4362      	muls	r2, r4
10005ca8:	0c1b      	lsrs	r3, r3, #16
10005caa:	435c      	muls	r4, r3
10005cac:	b280      	uxth	r0, r0
10005cae:	4358      	muls	r0, r3
10005cb0:	1812      	adds	r2, r2, r0
10005cb2:	d302      	bcc.n	10005cba <l16_1>
10005cb4:	2001      	movs	r0, #1
10005cb6:	0400      	lsls	r0, r0, #16
10005cb8:	1824      	adds	r4, r4, r0

10005cba <l16_1>:
10005cba:	0410      	lsls	r0, r2, #16
10005cbc:	0c13      	lsrs	r3, r2, #16
10005cbe:	1840      	adds	r0, r0, r1
10005cc0:	4163      	adcs	r3, r4
10005cc2:	182d      	adds	r5, r5, r0
10005cc4:	415e      	adcs	r6, r3
10005cc6:	2000      	movs	r0, #0
10005cc8:	4147      	adcs	r7, r0
10005cca:	bc06      	pop	{r1, r2}
10005ccc:	b288      	uxth	r0, r1
10005cce:	b293      	uxth	r3, r2
10005cd0:	4358      	muls	r0, r3
10005cd2:	0c0c      	lsrs	r4, r1, #16
10005cd4:	4363      	muls	r3, r4
10005cd6:	0c12      	lsrs	r2, r2, #16
10005cd8:	4354      	muls	r4, r2
10005cda:	b289      	uxth	r1, r1
10005cdc:	4351      	muls	r1, r2
10005cde:	185b      	adds	r3, r3, r1
10005ce0:	d302      	bcc.n	10005ce8 <l17_1>
10005ce2:	2101      	movs	r1, #1
10005ce4:	0409      	lsls	r1, r1, #16
10005ce6:	1864      	adds	r4, r4, r1

10005ce8 <l17_1>:
10005ce8:	0419      	lsls	r1, r3, #16
10005cea:	0c1a      	lsrs	r2, r3, #16
10005cec:	1809      	adds	r1, r1, r0
10005cee:	4162      	adcs	r2, r4
10005cf0:	186d      	adds	r5, r5, r1
10005cf2:	4156      	adcs	r6, r2
10005cf4:	2000      	movs	r0, #0
10005cf6:	4147      	adcs	r7, r0
10005cf8:	bc18      	pop	{r3, r4}
10005cfa:	02f9      	lsls	r1, r7, #11
10005cfc:	0d72      	lsrs	r2, r6, #21
10005cfe:	4311      	orrs	r1, r2
10005d00:	02f0      	lsls	r0, r6, #11
10005d02:	0d6a      	lsrs	r2, r5, #21
10005d04:	4310      	orrs	r0, r2
10005d06:	02ed      	lsls	r5, r5, #11
10005d08:	0d0a      	lsrs	r2, r1, #20
10005d0a:	d103      	bne.n	10005d14 <l17_1+0x2c>
10005d0c:	196d      	adds	r5, r5, r5
10005d0e:	4140      	adcs	r0, r0
10005d10:	4149      	adcs	r1, r1
10005d12:	3b01      	subs	r3, #1
10005d14:	4e12      	ldr	r6, [pc, #72]	; (10005d60 <dm_1+0xa>)
10005d16:	1b9b      	subs	r3, r3, r6
10005d18:	0076      	lsls	r6, r6, #1
10005d1a:	42b3      	cmp	r3, r6
10005d1c:	d20e      	bcs.n	10005d3c <dm_0>
10005d1e:	006d      	lsls	r5, r5, #1
10005d20:	d307      	bcc.n	10005d32 <l17_1+0x4a>
10005d22:	3001      	adds	r0, #1
10005d24:	2600      	movs	r6, #0
10005d26:	4171      	adcs	r1, r6
10005d28:	4666      	mov	r6, ip
10005d2a:	4335      	orrs	r5, r6
10005d2c:	d101      	bne.n	10005d32 <l17_1+0x4a>
10005d2e:	0840      	lsrs	r0, r0, #1
10005d30:	0040      	lsls	r0, r0, #1
10005d32:	051b      	lsls	r3, r3, #20
10005d34:	18c9      	adds	r1, r1, r3

10005d36 <dm_2>:
10005d36:	07e4      	lsls	r4, r4, #31
10005d38:	4421      	add	r1, r4
10005d3a:	bdf0      	pop	{r4, r5, r6, r7, pc}

10005d3c <dm_0>:
10005d3c:	da0b      	bge.n	10005d56 <dm_1>
10005d3e:	3301      	adds	r3, #1
10005d40:	d106      	bne.n	10005d50 <dm_0+0x14>
10005d42:	3001      	adds	r0, #1
10005d44:	d104      	bne.n	10005d50 <dm_0+0x14>
10005d46:	3101      	adds	r1, #1
10005d48:	0d4f      	lsrs	r7, r1, #21
10005d4a:	d001      	beq.n	10005d50 <dm_0+0x14>
10005d4c:	0849      	lsrs	r1, r1, #1
10005d4e:	e7f2      	b.n	10005d36 <dm_2>
10005d50:	07e1      	lsls	r1, r4, #31
10005d52:	2000      	movs	r0, #0
10005d54:	bdf0      	pop	{r4, r5, r6, r7, pc}

10005d56 <dm_1>:
10005d56:	3601      	adds	r6, #1
10005d58:	0531      	lsls	r1, r6, #20
10005d5a:	2000      	movs	r0, #0
10005d5c:	e7eb      	b.n	10005d36 <dm_2>
10005d5e:	0000      	.short	0x0000
10005d60:	000003ff 	.word	0x000003ff

10005d64 <ddiv_shim>:
10005d64:	b5f0      	push	{r4, r5, r6, r7, lr}

10005d66 <ddiv0>:
10005d66:	0d1c      	lsrs	r4, r3, #20
10005d68:	1e67      	subs	r7, r4, #1
10005d6a:	053f      	lsls	r7, r7, #20
10005d6c:	1bdb      	subs	r3, r3, r7
10005d6e:	0ae7      	lsrs	r7, r4, #11
10005d70:	0564      	lsls	r4, r4, #21
10005d72:	0d64      	lsrs	r4, r4, #21
10005d74:	d002      	beq.n	10005d7c <l20_1>
10005d76:	1c66      	adds	r6, r4, #1
10005d78:	0af6      	lsrs	r6, r6, #11
10005d7a:	d004      	beq.n	10005d86 <l20_2>

10005d7c <l20_1>:
10005d7c:	2200      	movs	r2, #0
10005d7e:	2301      	movs	r3, #1
10005d80:	051b      	lsls	r3, r3, #20
10005d82:	3c80      	subs	r4, #128	; 0x80
10005d84:	0324      	lsls	r4, r4, #12

10005d86 <l20_2>:
10005d86:	25d0      	movs	r5, #208	; 0xd0
10005d88:	062d      	lsls	r5, r5, #24
10005d8a:	2600      	movs	r6, #0
10005d8c:	43f6      	mvns	r6, r6
10005d8e:	662e      	str	r6, [r5, #96]	; 0x60
10005d90:	091e      	lsrs	r6, r3, #4
10005d92:	666e      	str	r6, [r5, #100]	; 0x64
10005d94:	0fce      	lsrs	r6, r1, #31
10005d96:	19f6      	adds	r6, r6, r7
10005d98:	46b4      	mov	ip, r6
10005d9a:	0049      	lsls	r1, r1, #1
10005d9c:	0d4f      	lsrs	r7, r1, #21
10005d9e:	d002      	beq.n	10005da6 <l20_2+0x20>
10005da0:	1c7e      	adds	r6, r7, #1
10005da2:	0af6      	lsrs	r6, r6, #11
10005da4:	d003      	beq.n	10005dae <l20_2+0x28>
10005da6:	2000      	movs	r0, #0
10005da8:	2100      	movs	r1, #0
10005daa:	3f40      	subs	r7, #64	; 0x40
10005dac:	033f      	lsls	r7, r7, #12
10005dae:	1b3e      	subs	r6, r7, r4
10005db0:	00b6      	lsls	r6, r6, #2
10005db2:	44b4      	add	ip, r6
10005db4:	3f01      	subs	r7, #1
10005db6:	057f      	lsls	r7, r7, #21
10005db8:	1bc9      	subs	r1, r1, r7
10005dba:	0849      	lsrs	r1, r1, #1
10005dbc:	6f2e      	ldr	r6, [r5, #112]	; 0x70
10005dbe:	3601      	adds	r6, #1
10005dc0:	0876      	lsrs	r6, r6, #1
10005dc2:	029c      	lsls	r4, r3, #10
10005dc4:	0d95      	lsrs	r5, r2, #22
10005dc6:	4325      	orrs	r5, r4
10005dc8:	4375      	muls	r5, r6
10005dca:	13ed      	asrs	r5, r5, #15
10005dcc:	4375      	muls	r5, r6
10005dce:	13ad      	asrs	r5, r5, #14
10005dd0:	3501      	adds	r5, #1
10005dd2:	106d      	asrs	r5, r5, #1
10005dd4:	03f6      	lsls	r6, r6, #15
10005dd6:	1b76      	subs	r6, r6, r5
10005dd8:	b40c      	push	{r2, r3}
10005dda:	02cc      	lsls	r4, r1, #11
10005ddc:	0d45      	lsrs	r5, r0, #21
10005dde:	432c      	orrs	r4, r5
10005de0:	b2a2      	uxth	r2, r4
10005de2:	b2b3      	uxth	r3, r6
10005de4:	435a      	muls	r2, r3
10005de6:	0c27      	lsrs	r7, r4, #16
10005de8:	437b      	muls	r3, r7
10005dea:	0c35      	lsrs	r5, r6, #16
10005dec:	436f      	muls	r7, r5
10005dee:	b2a4      	uxth	r4, r4
10005df0:	436c      	muls	r4, r5
10005df2:	191b      	adds	r3, r3, r4
10005df4:	d302      	bcc.n	10005dfc <l21_1>
10005df6:	2401      	movs	r4, #1
10005df8:	0424      	lsls	r4, r4, #16
10005dfa:	193f      	adds	r7, r7, r4

10005dfc <l21_1>:
10005dfc:	041c      	lsls	r4, r3, #16
10005dfe:	0c1d      	lsrs	r5, r3, #16
10005e00:	18a4      	adds	r4, r4, r2
10005e02:	417d      	adcs	r5, r7
10005e04:	1924      	adds	r4, r4, r4
10005e06:	416d      	adcs	r5, r5
10005e08:	9a00      	ldr	r2, [sp, #0]
10005e0a:	b291      	uxth	r1, r2
10005e0c:	b2ac      	uxth	r4, r5
10005e0e:	4361      	muls	r1, r4
10005e10:	0c17      	lsrs	r7, r2, #16
10005e12:	437c      	muls	r4, r7
10005e14:	0c2b      	lsrs	r3, r5, #16
10005e16:	435f      	muls	r7, r3
10005e18:	b292      	uxth	r2, r2
10005e1a:	435a      	muls	r2, r3
10005e1c:	18a4      	adds	r4, r4, r2
10005e1e:	d302      	bcc.n	10005e26 <l22_1>
10005e20:	2201      	movs	r2, #1
10005e22:	0412      	lsls	r2, r2, #16
10005e24:	18bf      	adds	r7, r7, r2

10005e26 <l22_1>:
10005e26:	0422      	lsls	r2, r4, #16
10005e28:	0c23      	lsrs	r3, r4, #16
10005e2a:	1852      	adds	r2, r2, r1
10005e2c:	417b      	adcs	r3, r7
10005e2e:	9c01      	ldr	r4, [sp, #4]
10005e30:	436c      	muls	r4, r5
10005e32:	191b      	adds	r3, r3, r4
10005e34:	0e52      	lsrs	r2, r2, #25
10005e36:	01d9      	lsls	r1, r3, #7
10005e38:	430a      	orrs	r2, r1
10005e3a:	0144      	lsls	r4, r0, #5
10005e3c:	1aa0      	subs	r0, r4, r2
10005e3e:	b281      	uxth	r1, r0
10005e40:	b2b2      	uxth	r2, r6
10005e42:	4351      	muls	r1, r2
10005e44:	1403      	asrs	r3, r0, #16
10005e46:	435a      	muls	r2, r3
10005e48:	0c36      	lsrs	r6, r6, #16
10005e4a:	4373      	muls	r3, r6
10005e4c:	b287      	uxth	r7, r0
10005e4e:	4377      	muls	r7, r6
10005e50:	17d6      	asrs	r6, r2, #31
10005e52:	19d2      	adds	r2, r2, r7
10005e54:	2700      	movs	r7, #0
10005e56:	417e      	adcs	r6, r7
10005e58:	0436      	lsls	r6, r6, #16
10005e5a:	199b      	adds	r3, r3, r6
10005e5c:	0417      	lsls	r7, r2, #16
10005e5e:	0c16      	lsrs	r6, r2, #16
10005e60:	187f      	adds	r7, r7, r1
10005e62:	415e      	adcs	r6, r3
10005e64:	1673      	asrs	r3, r6, #25
10005e66:	18ed      	adds	r5, r5, r3
10005e68:	01f3      	lsls	r3, r6, #7
10005e6a:	2600      	movs	r6, #0
10005e6c:	3380      	adds	r3, #128	; 0x80
10005e6e:	4175      	adcs	r5, r6
10005e70:	0fa9      	lsrs	r1, r5, #30
10005e72:	d106      	bne.n	10005e82 <dd_0>
10005e74:	0064      	lsls	r4, r4, #1
10005e76:	0a69      	lsrs	r1, r5, #9
10005e78:	05e8      	lsls	r0, r5, #23
10005e7a:	0a5b      	lsrs	r3, r3, #9
10005e7c:	4318      	orrs	r0, r3
10005e7e:	d209      	bcs.n	10005e94 <dd_1>
10005e80:	e02f      	b.n	10005ee2 <dd_2>

10005e82 <dd_0>:
10005e82:	2204      	movs	r2, #4
10005e84:	4494      	add	ip, r2
10005e86:	3380      	adds	r3, #128	; 0x80
10005e88:	4175      	adcs	r5, r6
10005e8a:	0aa9      	lsrs	r1, r5, #10
10005e8c:	05a8      	lsls	r0, r5, #22
10005e8e:	0a9b      	lsrs	r3, r3, #10
10005e90:	4318      	orrs	r0, r3
10005e92:	d326      	bcc.n	10005ee2 <dd_2>

10005e94 <dd_1>:
10005e94:	4140      	adcs	r0, r0
10005e96:	4149      	adcs	r1, r1
10005e98:	0424      	lsls	r4, r4, #16
10005e9a:	9a00      	ldr	r2, [sp, #0]
10005e9c:	9b01      	ldr	r3, [sp, #4]
10005e9e:	000d      	movs	r5, r1
10005ea0:	4355      	muls	r5, r2
10005ea2:	1b64      	subs	r4, r4, r5
10005ea4:	4343      	muls	r3, r0
10005ea6:	1ae4      	subs	r4, r4, r3
10005ea8:	b295      	uxth	r5, r2
10005eaa:	b286      	uxth	r6, r0
10005eac:	4375      	muls	r5, r6
10005eae:	0c17      	lsrs	r7, r2, #16
10005eb0:	437e      	muls	r6, r7
10005eb2:	0c03      	lsrs	r3, r0, #16
10005eb4:	435f      	muls	r7, r3
10005eb6:	b292      	uxth	r2, r2
10005eb8:	435a      	muls	r2, r3
10005eba:	18b6      	adds	r6, r6, r2
10005ebc:	d302      	bcc.n	10005ec4 <l24_1>
10005ebe:	2201      	movs	r2, #1
10005ec0:	0412      	lsls	r2, r2, #16
10005ec2:	18bf      	adds	r7, r7, r2

10005ec4 <l24_1>:
10005ec4:	0432      	lsls	r2, r6, #16
10005ec6:	0c33      	lsrs	r3, r6, #16
10005ec8:	1952      	adds	r2, r2, r5
10005eca:	417b      	adcs	r3, r7
10005ecc:	4252      	negs	r2, r2
10005ece:	419c      	sbcs	r4, r3
10005ed0:	2c00      	cmp	r4, #0
10005ed2:	d402      	bmi.n	10005eda <l24_1+0x16>
10005ed4:	2200      	movs	r2, #0
10005ed6:	3001      	adds	r0, #1
10005ed8:	4151      	adcs	r1, r2
10005eda:	0840      	lsrs	r0, r0, #1
10005edc:	07ca      	lsls	r2, r1, #31
10005ede:	4310      	orrs	r0, r2
10005ee0:	0849      	lsrs	r1, r1, #1

10005ee2 <dd_2>:
10005ee2:	b002      	add	sp, #8
10005ee4:	4662      	mov	r2, ip
10005ee6:	07d7      	lsls	r7, r2, #31
10005ee8:	1092      	asrs	r2, r2, #2
10005eea:	4b08      	ldr	r3, [pc, #32]	; (10005f0c <dd_4+0x6>)
10005eec:	18d2      	adds	r2, r2, r3
10005eee:	4b08      	ldr	r3, [pc, #32]	; (10005f10 <dd_4+0xa>)
10005ef0:	429a      	cmp	r2, r3
10005ef2:	d203      	bcs.n	10005efc <dd_3>
10005ef4:	0512      	lsls	r2, r2, #20
10005ef6:	1889      	adds	r1, r1, r2

10005ef8 <dd_5>:
10005ef8:	19c9      	adds	r1, r1, r7
10005efa:	bdf0      	pop	{r4, r5, r6, r7, pc}

10005efc <dd_3>:
10005efc:	2000      	movs	r0, #0
10005efe:	2a00      	cmp	r2, #0
10005f00:	dc01      	bgt.n	10005f06 <dd_4>
10005f02:	0039      	movs	r1, r7
10005f04:	bdf0      	pop	{r4, r5, r6, r7, pc}

10005f06 <dd_4>:
10005f06:	3301      	adds	r3, #1
10005f08:	0519      	lsls	r1, r3, #20
10005f0a:	e7f5      	b.n	10005ef8 <dd_5>
10005f0c:	000003fd 	.word	0x000003fd
10005f10:	000007fe 	.word	0x000007fe

10005f14 <double2uint_shim>:
10005f14:	2200      	movs	r2, #0

10005f16 <double2ufix_shim>:
10005f16:	b500      	push	{lr}
10005f18:	3220      	adds	r2, #32
10005f1a:	f000 f804 	bl	10005f26 <double2ufix64_shim>
10005f1e:	0008      	movs	r0, r1
10005f20:	bd00      	pop	{pc}
	...

10005f24 <double2uint64_shim>:
10005f24:	2200      	movs	r2, #0

10005f26 <double2ufix64_shim>:
10005f26:	150b      	asrs	r3, r1, #20
10005f28:	d40a      	bmi.n	10005f40 <ret_dzero>

10005f2a <d2fix>:
10005f2a:	b510      	push	{r4, lr}
10005f2c:	4694      	mov	ip, r2
10005f2e:	f000 f831 	bl	10005f94 <dunpacks>
10005f32:	1414      	asrs	r4, r2, #16
10005f34:	3401      	adds	r4, #1
10005f36:	da00      	bge.n	10005f3a <d2fix+0x10>
10005f38:	2100      	movs	r1, #0
10005f3a:	17cb      	asrs	r3, r1, #31
10005f3c:	4c14      	ldr	r4, [pc, #80]	; (10005f90 <d2fix_a+0x4a>)
10005f3e:	4720      	bx	r4

10005f40 <ret_dzero>:
10005f40:	2000      	movs	r0, #0
10005f42:	2100      	movs	r1, #0
10005f44:	4770      	bx	lr

10005f46 <d2fix_a>:
10005f46:	4462      	add	r2, ip
10005f48:	3a34      	subs	r2, #52	; 0x34
10005f4a:	d40c      	bmi.n	10005f66 <d2fix_a+0x20>
10005f4c:	2a0c      	cmp	r2, #12
10005f4e:	da07      	bge.n	10005f60 <d2fix_a+0x1a>
10005f50:	0004      	movs	r4, r0
10005f52:	4091      	lsls	r1, r2
10005f54:	4090      	lsls	r0, r2
10005f56:	4252      	negs	r2, r2
10005f58:	3220      	adds	r2, #32
10005f5a:	40d4      	lsrs	r4, r2
10005f5c:	4321      	orrs	r1, r4
10005f5e:	bd10      	pop	{r4, pc}
10005f60:	43d8      	mvns	r0, r3
10005f62:	43d9      	mvns	r1, r3
10005f64:	bd10      	pop	{r4, pc}
10005f66:	3220      	adds	r2, #32
10005f68:	d407      	bmi.n	10005f7a <d2fix_a+0x34>
10005f6a:	460c      	mov	r4, r1
10005f6c:	4094      	lsls	r4, r2
10005f6e:	4252      	negs	r2, r2
10005f70:	3220      	adds	r2, #32
10005f72:	4111      	asrs	r1, r2
10005f74:	40d0      	lsrs	r0, r2
10005f76:	4320      	orrs	r0, r4
10005f78:	bd10      	pop	{r4, pc}
10005f7a:	0008      	movs	r0, r1
10005f7c:	17c9      	asrs	r1, r1, #31
10005f7e:	3220      	adds	r2, #32
10005f80:	d403      	bmi.n	10005f8a <d2fix_a+0x44>
10005f82:	4252      	negs	r2, r2
10005f84:	3220      	adds	r2, #32
10005f86:	4110      	asrs	r0, r2
10005f88:	bd10      	pop	{r4, pc}
10005f8a:	0018      	movs	r0, r3
10005f8c:	0019      	movs	r1, r3
10005f8e:	bd10      	pop	{r4, pc}
10005f90:	10005f47 	.word	0x10005f47

10005f94 <dunpacks>:
10005f94:	0d0a      	lsrs	r2, r1, #20
10005f96:	0fcc      	lsrs	r4, r1, #31
10005f98:	1e53      	subs	r3, r2, #1
10005f9a:	051b      	lsls	r3, r3, #20
10005f9c:	1ac9      	subs	r1, r1, r3
10005f9e:	0552      	lsls	r2, r2, #21
10005fa0:	d303      	bcc.n	10005faa <l60_1>
10005fa2:	43c9      	mvns	r1, r1
10005fa4:	4240      	negs	r0, r0
10005fa6:	d300      	bcc.n	10005faa <l60_1>
10005fa8:	3101      	adds	r1, #1

10005faa <l60_1>:
10005faa:	0d52      	lsrs	r2, r2, #21
10005fac:	d003      	beq.n	10005fb6 <l60_2>
10005fae:	1c53      	adds	r3, r2, #1
10005fb0:	0adb      	lsrs	r3, r3, #11
10005fb2:	d007      	beq.n	10005fc4 <l60_3>
10005fb4:	1b12      	subs	r2, r2, r4

10005fb6 <l60_2>:
10005fb6:	2000      	movs	r0, #0
10005fb8:	0064      	lsls	r4, r4, #1
10005fba:	1c61      	adds	r1, r4, #1
10005fbc:	0789      	lsls	r1, r1, #30
10005fbe:	1289      	asrs	r1, r1, #10
10005fc0:	3a80      	subs	r2, #128	; 0x80
10005fc2:	0312      	lsls	r2, r2, #12

10005fc4 <l60_3>:
10005fc4:	4b01      	ldr	r3, [pc, #4]	; (10005fcc <l60_3+0x8>)
10005fc6:	1ad2      	subs	r2, r2, r3
10005fc8:	4770      	bx	lr
10005fca:	0000      	.short	0x0000
10005fcc:	000003ff 	.word	0x000003ff

10005fd0 <__wrap___aeabi_lmul>:
10005fd0:	4351      	muls	r1, r2
10005fd2:	4343      	muls	r3, r0
10005fd4:	18c9      	adds	r1, r1, r3
10005fd6:	468c      	mov	ip, r1
10005fd8:	0c11      	lsrs	r1, r2, #16
10005fda:	b283      	uxth	r3, r0
10005fdc:	434b      	muls	r3, r1
10005fde:	b410      	push	{r4}
10005fe0:	0c04      	lsrs	r4, r0, #16
10005fe2:	4361      	muls	r1, r4
10005fe4:	b292      	uxth	r2, r2
10005fe6:	b280      	uxth	r0, r0
10005fe8:	4350      	muls	r0, r2
10005fea:	4362      	muls	r2, r4
10005fec:	041c      	lsls	r4, r3, #16
10005fee:	0c1b      	lsrs	r3, r3, #16
10005ff0:	1900      	adds	r0, r0, r4
10005ff2:	bc10      	pop	{r4}
10005ff4:	4159      	adcs	r1, r3
10005ff6:	0413      	lsls	r3, r2, #16
10005ff8:	0c12      	lsrs	r2, r2, #16
10005ffa:	18c0      	adds	r0, r0, r3
10005ffc:	4151      	adcs	r1, r2
10005ffe:	4461      	add	r1, ip
10006000:	4770      	bx	lr
	...

10006004 <__aeabi_float_init>:
10006004:	b570      	push	{r4, r5, r6, lr}
10006006:	2313      	movs	r3, #19
10006008:	781d      	ldrb	r5, [r3, #0]
1000600a:	482a      	ldr	r0, [pc, #168]	; (100060b4 <__aeabi_float_init+0xb0>)
1000600c:	f7ff f95a 	bl	100052c4 <rom_data_lookup>
10006010:	0004      	movs	r4, r0
10006012:	2d01      	cmp	r5, #1
10006014:	d011      	beq.n	1000603a <__aeabi_float_init+0x36>
10006016:	2d01      	cmp	r5, #1
10006018:	dd09      	ble.n	1000602e <__aeabi_float_init+0x2a>
1000601a:	1ea3      	subs	r3, r4, #2
1000601c:	781b      	ldrb	r3, [r3, #0]
1000601e:	009b      	lsls	r3, r3, #2
10006020:	2b7f      	cmp	r3, #127	; 0x7f
10006022:	dd40      	ble.n	100060a6 <__aeabi_float_init+0xa2>
10006024:	2280      	movs	r2, #128	; 0x80
10006026:	0021      	movs	r1, r4
10006028:	4823      	ldr	r0, [pc, #140]	; (100060b8 <__aeabi_float_init+0xb4>)
1000602a:	f000 f8a3 	bl	10006174 <__wrap___aeabi_memcpy>
1000602e:	4823      	ldr	r0, [pc, #140]	; (100060bc <__aeabi_float_init+0xb8>)
10006030:	f7ff f940 	bl	100052b4 <rom_func_lookup>
10006034:	4b22      	ldr	r3, [pc, #136]	; (100060c0 <__aeabi_float_init+0xbc>)
10006036:	6018      	str	r0, [r3, #0]
10006038:	bd70      	pop	{r4, r5, r6, pc}
1000603a:	2254      	movs	r2, #84	; 0x54
1000603c:	0001      	movs	r1, r0
1000603e:	481e      	ldr	r0, [pc, #120]	; (100060b8 <__aeabi_float_init+0xb4>)
10006040:	f000 f898 	bl	10006174 <__wrap___aeabi_memcpy>
10006044:	4b1f      	ldr	r3, [pc, #124]	; (100060c4 <__aeabi_float_init+0xc0>)
10006046:	881a      	ldrh	r2, [r3, #0]
10006048:	4b1f      	ldr	r3, [pc, #124]	; (100060c8 <__aeabi_float_init+0xc4>)
1000604a:	429a      	cmp	r2, r3
1000604c:	d11c      	bne.n	10006088 <__aeabi_float_init+0x84>
1000604e:	23a7      	movs	r3, #167	; 0xa7
10006050:	019b      	lsls	r3, r3, #6
10006052:	881a      	ldrh	r2, [r3, #0]
10006054:	4b1d      	ldr	r3, [pc, #116]	; (100060cc <__aeabi_float_init+0xc8>)
10006056:	429a      	cmp	r2, r3
10006058:	d116      	bne.n	10006088 <__aeabi_float_init+0x84>
1000605a:	4b1d      	ldr	r3, [pc, #116]	; (100060d0 <__aeabi_float_init+0xcc>)
1000605c:	881a      	ldrh	r2, [r3, #0]
1000605e:	4b1d      	ldr	r3, [pc, #116]	; (100060d4 <__aeabi_float_init+0xd0>)
10006060:	429a      	cmp	r2, r3
10006062:	d111      	bne.n	10006088 <__aeabi_float_init+0x84>
10006064:	4b1c      	ldr	r3, [pc, #112]	; (100060d8 <__aeabi_float_init+0xd4>)
10006066:	881a      	ldrh	r2, [r3, #0]
10006068:	2394      	movs	r3, #148	; 0x94
1000606a:	019b      	lsls	r3, r3, #6
1000606c:	429a      	cmp	r2, r3
1000606e:	d10b      	bne.n	10006088 <__aeabi_float_init+0x84>
10006070:	4b1a      	ldr	r3, [pc, #104]	; (100060dc <__aeabi_float_init+0xd8>)
10006072:	881a      	ldrh	r2, [r3, #0]
10006074:	4b1a      	ldr	r3, [pc, #104]	; (100060e0 <__aeabi_float_init+0xdc>)
10006076:	429a      	cmp	r2, r3
10006078:	d106      	bne.n	10006088 <__aeabi_float_init+0x84>
1000607a:	4b1a      	ldr	r3, [pc, #104]	; (100060e4 <__aeabi_float_init+0xe0>)
1000607c:	681a      	ldr	r2, [r3, #0]
1000607e:	4b1a      	ldr	r3, [pc, #104]	; (100060e8 <__aeabi_float_init+0xe4>)
10006080:	429a      	cmp	r2, r3
10006082:	d101      	bne.n	10006088 <__aeabi_float_init+0x84>
10006084:	2315      	movs	r3, #21
10006086:	e007      	b.n	10006098 <__aeabi_float_init+0x94>
10006088:	4818      	ldr	r0, [pc, #96]	; (100060ec <__aeabi_float_init+0xe8>)
1000608a:	f7fd fe11 	bl	10003cb0 <panic>
1000608e:	0099      	lsls	r1, r3, #2
10006090:	4817      	ldr	r0, [pc, #92]	; (100060f0 <__aeabi_float_init+0xec>)
10006092:	4a09      	ldr	r2, [pc, #36]	; (100060b8 <__aeabi_float_init+0xb4>)
10006094:	5088      	str	r0, [r1, r2]
10006096:	3301      	adds	r3, #1
10006098:	2b1f      	cmp	r3, #31
1000609a:	d9f8      	bls.n	1000608e <__aeabi_float_init+0x8a>
1000609c:	4a14      	ldr	r2, [pc, #80]	; (100060f0 <__aeabi_float_init+0xec>)
1000609e:	4b06      	ldr	r3, [pc, #24]	; (100060b8 <__aeabi_float_init+0xb4>)
100060a0:	621a      	str	r2, [r3, #32]
100060a2:	61da      	str	r2, [r3, #28]
100060a4:	e7b7      	b.n	10006016 <__aeabi_float_init+0x12>
100060a6:	4b13      	ldr	r3, [pc, #76]	; (100060f4 <__aeabi_float_init+0xf0>)
100060a8:	4a13      	ldr	r2, [pc, #76]	; (100060f8 <__aeabi_float_init+0xf4>)
100060aa:	2142      	movs	r1, #66	; 0x42
100060ac:	4813      	ldr	r0, [pc, #76]	; (100060fc <__aeabi_float_init+0xf8>)
100060ae:	f001 f95b 	bl	10007368 <__assert_func>
100060b2:	46c0      	nop			; (mov r8, r8)
100060b4:	00004653 	.word	0x00004653
100060b8:	20002b54 	.word	0x20002b54
100060bc:	0000334c 	.word	0x0000334c
100060c0:	20002b50 	.word	0x20002b50
100060c4:	000029ee 	.word	0x000029ee
100060c8:	00000fc4 	.word	0x00000fc4
100060cc:	00000dc2 	.word	0x00000dc2
100060d0:	00002b96 	.word	0x00002b96
100060d4:	0000b5c0 	.word	0x0000b5c0
100060d8:	00002b18 	.word	0x00002b18
100060dc:	00002acc 	.word	0x00002acc
100060e0:	0000b510 	.word	0x0000b510
100060e4:	00002cfc 	.word	0x00002cfc
100060e8:	6487ed51 	.word	0x6487ed51
100060ec:	1000bf1c 	.word	0x1000bf1c
100060f0:	10006101 	.word	0x10006101
100060f4:	1000cc88 	.word	0x1000cc88
100060f8:	1000cd0c 	.word	0x1000cd0c
100060fc:	1000ccbc 	.word	0x1000ccbc

10006100 <float_table_shim_on_use_helper>:
10006100:	b507      	push	{r0, r1, r2, lr}
10006102:	4660      	mov	r0, ip
10006104:	2800      	cmp	r0, #0
10006106:	d100      	bne.n	1000610a <float_table_shim_on_use_helper+0xa>
10006108:	be00      	bkpt	0x0000
1000610a:	8801      	ldrh	r1, [r0, #0]
1000610c:	0a0a      	lsrs	r2, r1, #8
1000610e:	3002      	adds	r0, #2
10006110:	2adf      	cmp	r2, #223	; 0xdf
10006112:	d1fa      	bne.n	1000610a <float_table_shim_on_use_helper+0xa>
10006114:	b2c9      	uxtb	r1, r1
10006116:	0882      	lsrs	r2, r0, #2
10006118:	d304      	bcc.n	10006124 <float_table_shim_on_use_helper+0x24>
1000611a:	8802      	ldrh	r2, [r0, #0]
1000611c:	8840      	ldrh	r0, [r0, #2]
1000611e:	0400      	lsls	r0, r0, #16
10006120:	4310      	orrs	r0, r2
10006122:	e000      	b.n	10006126 <float_table_shim_on_use_helper+0x26>
10006124:	6800      	ldr	r0, [r0, #0]
10006126:	4a02      	ldr	r2, [pc, #8]	; (10006130 <float_table_shim_on_use_helper+0x30>)
10006128:	5050      	str	r0, [r2, r1]
1000612a:	9003      	str	r0, [sp, #12]
1000612c:	bd07      	pop	{r0, r1, r2, pc}
1000612e:	0000      	.short	0x0000
10006130:	20002b54 	.word	0x20002b54

10006134 <__wrap_malloc>:
10006134:	b510      	push	{r4, lr}
10006136:	0004      	movs	r4, r0
10006138:	f004 fa3e 	bl	1000a5b8 <malloc>
1000613c:	2800      	cmp	r0, #0
1000613e:	d004      	beq.n	1000614a <__wrap_malloc+0x16>
10006140:	1904      	adds	r4, r0, r4
10006142:	4b03      	ldr	r3, [pc, #12]	; (10006150 <__wrap_malloc+0x1c>)
10006144:	429c      	cmp	r4, r3
10006146:	d800      	bhi.n	1000614a <__wrap_malloc+0x16>
10006148:	bd10      	pop	{r4, pc}
1000614a:	4802      	ldr	r0, [pc, #8]	; (10006154 <__wrap_malloc+0x20>)
1000614c:	f7fd fdb0 	bl	10003cb0 <panic>
10006150:	20040000 	.word	0x20040000
10006154:	1000cd20 	.word	0x1000cd20

10006158 <__aeabi_mem_init>:
10006158:	4801      	ldr	r0, [pc, #4]	; (10006160 <__aeabi_mem_init+0x8>)
1000615a:	2104      	movs	r1, #4
1000615c:	4b01      	ldr	r3, [pc, #4]	; (10006164 <__aeabi_mem_init+0xc>)
1000615e:	4718      	bx	r3
10006160:	200009e0 	.word	0x200009e0
10006164:	100052d5 	.word	0x100052d5

10006168 <__wrap_memset>:
10006168:	4b01      	ldr	r3, [pc, #4]	; (10006170 <__wrap_memset+0x8>)
1000616a:	681b      	ldr	r3, [r3, #0]
1000616c:	4718      	bx	r3
1000616e:	0000      	.short	0x0000
10006170:	200009e0 	.word	0x200009e0

10006174 <__wrap___aeabi_memcpy>:
10006174:	4b01      	ldr	r3, [pc, #4]	; (1000617c <__wrap___aeabi_memcpy+0x8>)
10006176:	685b      	ldr	r3, [r3, #4]
10006178:	4718      	bx	r3
1000617a:	0000      	.short	0x0000
1000617c:	200009e0 	.word	0x200009e0

10006180 <_out_null>:
10006180:	4770      	bx	lr

10006182 <_out_fct>:
10006182:	b510      	push	{r4, lr}
10006184:	2800      	cmp	r0, #0
10006186:	d002      	beq.n	1000618e <_out_fct+0xc>
10006188:	680b      	ldr	r3, [r1, #0]
1000618a:	6849      	ldr	r1, [r1, #4]
1000618c:	4798      	blx	r3
1000618e:	bd10      	pop	{r4, pc}

10006190 <_atoi>:
10006190:	0001      	movs	r1, r0
10006192:	2000      	movs	r0, #0
10006194:	e007      	b.n	100061a6 <_atoi+0x16>
10006196:	0083      	lsls	r3, r0, #2
10006198:	181b      	adds	r3, r3, r0
1000619a:	005b      	lsls	r3, r3, #1
1000619c:	1c50      	adds	r0, r2, #1
1000619e:	6008      	str	r0, [r1, #0]
100061a0:	7810      	ldrb	r0, [r2, #0]
100061a2:	18c0      	adds	r0, r0, r3
100061a4:	3830      	subs	r0, #48	; 0x30
100061a6:	680a      	ldr	r2, [r1, #0]
100061a8:	7813      	ldrb	r3, [r2, #0]
100061aa:	3b30      	subs	r3, #48	; 0x30
100061ac:	b2db      	uxtb	r3, r3
100061ae:	2b09      	cmp	r3, #9
100061b0:	d9f1      	bls.n	10006196 <_atoi+0x6>
100061b2:	4770      	bx	lr

100061b4 <_out_rev>:
100061b4:	b5f0      	push	{r4, r5, r6, r7, lr}
100061b6:	46de      	mov	lr, fp
100061b8:	4657      	mov	r7, sl
100061ba:	464e      	mov	r6, r9
100061bc:	4645      	mov	r5, r8
100061be:	b5e0      	push	{r5, r6, r7, lr}
100061c0:	b083      	sub	sp, #12
100061c2:	4693      	mov	fp, r2
100061c4:	001f      	movs	r7, r3
100061c6:	9b0c      	ldr	r3, [sp, #48]	; 0x30
100061c8:	469a      	mov	sl, r3
100061ca:	9c0d      	ldr	r4, [sp, #52]	; 0x34
100061cc:	9b0e      	ldr	r3, [sp, #56]	; 0x38
100061ce:	4699      	mov	r9, r3
100061d0:	9b0f      	ldr	r3, [sp, #60]	; 0x3c
100061d2:	079b      	lsls	r3, r3, #30
100061d4:	d003      	beq.n	100061de <_out_rev+0x2a>
100061d6:	46b8      	mov	r8, r7
100061d8:	000f      	movs	r7, r1
100061da:	0006      	movs	r6, r0
100061dc:	e022      	b.n	10006224 <_out_rev+0x70>
100061de:	9201      	str	r2, [sp, #4]
100061e0:	46a3      	mov	fp, r4
100061e2:	4688      	mov	r8, r1
100061e4:	464e      	mov	r6, r9
100061e6:	46b9      	mov	r9, r7
100061e8:	0007      	movs	r7, r0
100061ea:	42b4      	cmp	r4, r6
100061ec:	d207      	bcs.n	100061fe <_out_rev+0x4a>
100061ee:	1c55      	adds	r5, r2, #1
100061f0:	464b      	mov	r3, r9
100061f2:	4641      	mov	r1, r8
100061f4:	2020      	movs	r0, #32
100061f6:	47b8      	blx	r7
100061f8:	3401      	adds	r4, #1
100061fa:	002a      	movs	r2, r5
100061fc:	e7f5      	b.n	100061ea <_out_rev+0x36>
100061fe:	003d      	movs	r5, r7
10006200:	464f      	mov	r7, r9
10006202:	465c      	mov	r4, fp
10006204:	9b01      	ldr	r3, [sp, #4]
10006206:	469b      	mov	fp, r3
10006208:	46b1      	mov	r9, r6
1000620a:	4646      	mov	r6, r8
1000620c:	46b8      	mov	r8, r7
1000620e:	0037      	movs	r7, r6
10006210:	002e      	movs	r6, r5
10006212:	e007      	b.n	10006224 <_out_rev+0x70>
10006214:	3c01      	subs	r4, #1
10006216:	1c55      	adds	r5, r2, #1
10006218:	4653      	mov	r3, sl
1000621a:	5d18      	ldrb	r0, [r3, r4]
1000621c:	4643      	mov	r3, r8
1000621e:	0039      	movs	r1, r7
10006220:	47b0      	blx	r6
10006222:	002a      	movs	r2, r5
10006224:	2c00      	cmp	r4, #0
10006226:	d1f5      	bne.n	10006214 <_out_rev+0x60>
10006228:	0035      	movs	r5, r6
1000622a:	003e      	movs	r6, r7
1000622c:	4647      	mov	r7, r8
1000622e:	9b0f      	ldr	r3, [sp, #60]	; 0x3c
10006230:	079b      	lsls	r3, r3, #30
10006232:	d407      	bmi.n	10006244 <_out_rev+0x90>
10006234:	0010      	movs	r0, r2
10006236:	b003      	add	sp, #12
10006238:	bcf0      	pop	{r4, r5, r6, r7}
1000623a:	46bb      	mov	fp, r7
1000623c:	46b2      	mov	sl, r6
1000623e:	46a9      	mov	r9, r5
10006240:	46a0      	mov	r8, r4
10006242:	bdf0      	pop	{r4, r5, r6, r7, pc}
10006244:	46b0      	mov	r8, r6
10006246:	464e      	mov	r6, r9
10006248:	46b9      	mov	r9, r7
1000624a:	002f      	movs	r7, r5
1000624c:	465d      	mov	r5, fp
1000624e:	1b53      	subs	r3, r2, r5
10006250:	42b3      	cmp	r3, r6
10006252:	d2ef      	bcs.n	10006234 <_out_rev+0x80>
10006254:	1c54      	adds	r4, r2, #1
10006256:	464b      	mov	r3, r9
10006258:	4641      	mov	r1, r8
1000625a:	2020      	movs	r0, #32
1000625c:	47b8      	blx	r7
1000625e:	0022      	movs	r2, r4
10006260:	e7f5      	b.n	1000624e <_out_rev+0x9a>

10006262 <_ntoa_format>:
10006262:	b5f0      	push	{r4, r5, r6, r7, lr}
10006264:	46ce      	mov	lr, r9
10006266:	4647      	mov	r7, r8
10006268:	b580      	push	{r7, lr}
1000626a:	b085      	sub	sp, #20
1000626c:	4694      	mov	ip, r2
1000626e:	4698      	mov	r8, r3
10006270:	9d0c      	ldr	r5, [sp, #48]	; 0x30
10006272:	9c0d      	ldr	r4, [sp, #52]	; 0x34
10006274:	ab0e      	add	r3, sp, #56	; 0x38
10006276:	781b      	ldrb	r3, [r3, #0]
10006278:	4699      	mov	r9, r3
1000627a:	9a10      	ldr	r2, [sp, #64]	; 0x40
1000627c:	9b11      	ldr	r3, [sp, #68]	; 0x44
1000627e:	9e12      	ldr	r6, [sp, #72]	; 0x48
10006280:	07b7      	lsls	r7, r6, #30
10006282:	d41c      	bmi.n	100062be <_ntoa_format+0x5c>
10006284:	2b00      	cmp	r3, #0
10006286:	d00c      	beq.n	100062a2 <_ntoa_format+0x40>
10006288:	07f7      	lsls	r7, r6, #31
1000628a:	d50a      	bpl.n	100062a2 <_ntoa_format+0x40>
1000628c:	464f      	mov	r7, r9
1000628e:	2f00      	cmp	r7, #0
10006290:	d102      	bne.n	10006298 <_ntoa_format+0x36>
10006292:	370c      	adds	r7, #12
10006294:	4237      	tst	r7, r6
10006296:	d004      	beq.n	100062a2 <_ntoa_format+0x40>
10006298:	3b01      	subs	r3, #1
1000629a:	e002      	b.n	100062a2 <_ntoa_format+0x40>
1000629c:	2730      	movs	r7, #48	; 0x30
1000629e:	552f      	strb	r7, [r5, r4]
100062a0:	3401      	adds	r4, #1
100062a2:	4294      	cmp	r4, r2
100062a4:	d201      	bcs.n	100062aa <_ntoa_format+0x48>
100062a6:	2c1f      	cmp	r4, #31
100062a8:	d9f8      	bls.n	1000629c <_ntoa_format+0x3a>
100062aa:	07f7      	lsls	r7, r6, #31
100062ac:	d507      	bpl.n	100062be <_ntoa_format+0x5c>
100062ae:	429c      	cmp	r4, r3
100062b0:	d205      	bcs.n	100062be <_ntoa_format+0x5c>
100062b2:	2c1f      	cmp	r4, #31
100062b4:	d803      	bhi.n	100062be <_ntoa_format+0x5c>
100062b6:	2730      	movs	r7, #48	; 0x30
100062b8:	552f      	strb	r7, [r5, r4]
100062ba:	3401      	adds	r4, #1
100062bc:	e7f5      	b.n	100062aa <_ntoa_format+0x48>
100062be:	06f7      	lsls	r7, r6, #27
100062c0:	d515      	bpl.n	100062ee <_ntoa_format+0x8c>
100062c2:	0577      	lsls	r7, r6, #21
100062c4:	d405      	bmi.n	100062d2 <_ntoa_format+0x70>
100062c6:	2c00      	cmp	r4, #0
100062c8:	d003      	beq.n	100062d2 <_ntoa_format+0x70>
100062ca:	4294      	cmp	r4, r2
100062cc:	d024      	beq.n	10006318 <_ntoa_format+0xb6>
100062ce:	429c      	cmp	r4, r3
100062d0:	d022      	beq.n	10006318 <_ntoa_format+0xb6>
100062d2:	9a0f      	ldr	r2, [sp, #60]	; 0x3c
100062d4:	2a10      	cmp	r2, #16
100062d6:	d02b      	beq.n	10006330 <_ntoa_format+0xce>
100062d8:	9a0f      	ldr	r2, [sp, #60]	; 0x3c
100062da:	2a10      	cmp	r2, #16
100062dc:	d030      	beq.n	10006340 <_ntoa_format+0xde>
100062de:	9a0f      	ldr	r2, [sp, #60]	; 0x3c
100062e0:	2a02      	cmp	r2, #2
100062e2:	d035      	beq.n	10006350 <_ntoa_format+0xee>
100062e4:	2c1f      	cmp	r4, #31
100062e6:	d802      	bhi.n	100062ee <_ntoa_format+0x8c>
100062e8:	2230      	movs	r2, #48	; 0x30
100062ea:	552a      	strb	r2, [r5, r4]
100062ec:	3401      	adds	r4, #1
100062ee:	2c1f      	cmp	r4, #31
100062f0:	d805      	bhi.n	100062fe <_ntoa_format+0x9c>
100062f2:	464a      	mov	r2, r9
100062f4:	2a00      	cmp	r2, #0
100062f6:	d031      	beq.n	1000635c <_ntoa_format+0xfa>
100062f8:	222d      	movs	r2, #45	; 0x2d
100062fa:	552a      	strb	r2, [r5, r4]
100062fc:	3401      	adds	r4, #1
100062fe:	9603      	str	r6, [sp, #12]
10006300:	9302      	str	r3, [sp, #8]
10006302:	9401      	str	r4, [sp, #4]
10006304:	9500      	str	r5, [sp, #0]
10006306:	4643      	mov	r3, r8
10006308:	4662      	mov	r2, ip
1000630a:	f7ff ff53 	bl	100061b4 <_out_rev>
1000630e:	b005      	add	sp, #20
10006310:	bcc0      	pop	{r6, r7}
10006312:	46b9      	mov	r9, r7
10006314:	46b0      	mov	r8, r6
10006316:	bdf0      	pop	{r4, r5, r6, r7, pc}
10006318:	1e62      	subs	r2, r4, #1
1000631a:	2c01      	cmp	r4, #1
1000631c:	d006      	beq.n	1000632c <_ntoa_format+0xca>
1000631e:	9f0f      	ldr	r7, [sp, #60]	; 0x3c
10006320:	2f10      	cmp	r7, #16
10006322:	d001      	beq.n	10006328 <_ntoa_format+0xc6>
10006324:	0014      	movs	r4, r2
10006326:	e7d4      	b.n	100062d2 <_ntoa_format+0x70>
10006328:	3c02      	subs	r4, #2
1000632a:	e7d2      	b.n	100062d2 <_ntoa_format+0x70>
1000632c:	0014      	movs	r4, r2
1000632e:	e7d0      	b.n	100062d2 <_ntoa_format+0x70>
10006330:	06b2      	lsls	r2, r6, #26
10006332:	d4d1      	bmi.n	100062d8 <_ntoa_format+0x76>
10006334:	2c1f      	cmp	r4, #31
10006336:	d8cf      	bhi.n	100062d8 <_ntoa_format+0x76>
10006338:	2278      	movs	r2, #120	; 0x78
1000633a:	552a      	strb	r2, [r5, r4]
1000633c:	3401      	adds	r4, #1
1000633e:	e7d1      	b.n	100062e4 <_ntoa_format+0x82>
10006340:	06b2      	lsls	r2, r6, #26
10006342:	d5cc      	bpl.n	100062de <_ntoa_format+0x7c>
10006344:	2c1f      	cmp	r4, #31
10006346:	d8ca      	bhi.n	100062de <_ntoa_format+0x7c>
10006348:	2258      	movs	r2, #88	; 0x58
1000634a:	552a      	strb	r2, [r5, r4]
1000634c:	3401      	adds	r4, #1
1000634e:	e7c9      	b.n	100062e4 <_ntoa_format+0x82>
10006350:	2c1f      	cmp	r4, #31
10006352:	d8c7      	bhi.n	100062e4 <_ntoa_format+0x82>
10006354:	3260      	adds	r2, #96	; 0x60
10006356:	552a      	strb	r2, [r5, r4]
10006358:	3401      	adds	r4, #1
1000635a:	e7c3      	b.n	100062e4 <_ntoa_format+0x82>
1000635c:	0772      	lsls	r2, r6, #29
1000635e:	d503      	bpl.n	10006368 <_ntoa_format+0x106>
10006360:	222b      	movs	r2, #43	; 0x2b
10006362:	552a      	strb	r2, [r5, r4]
10006364:	3401      	adds	r4, #1
10006366:	e7ca      	b.n	100062fe <_ntoa_format+0x9c>
10006368:	0732      	lsls	r2, r6, #28
1000636a:	d5c8      	bpl.n	100062fe <_ntoa_format+0x9c>
1000636c:	2220      	movs	r2, #32
1000636e:	552a      	strb	r2, [r5, r4]
10006370:	3401      	adds	r4, #1
10006372:	e7c4      	b.n	100062fe <_ntoa_format+0x9c>

10006374 <_ntoa_long>:
10006374:	b5f0      	push	{r4, r5, r6, r7, lr}
10006376:	46de      	mov	lr, fp
10006378:	4657      	mov	r7, sl
1000637a:	464e      	mov	r6, r9
1000637c:	4645      	mov	r5, r8
1000637e:	b5e0      	push	{r5, r6, r7, lr}
10006380:	b093      	sub	sp, #76	; 0x4c
10006382:	4681      	mov	r9, r0
10006384:	468a      	mov	sl, r1
10006386:	9208      	str	r2, [sp, #32]
10006388:	9309      	str	r3, [sp, #36]	; 0x24
1000638a:	ab1c      	add	r3, sp, #112	; 0x70
1000638c:	cb10      	ldmia	r3!, {r4}
1000638e:	781b      	ldrb	r3, [r3, #0]
10006390:	469b      	mov	fp, r3
10006392:	9d1e      	ldr	r5, [sp, #120]	; 0x78
10006394:	9b21      	ldr	r3, [sp, #132]	; 0x84
10006396:	4698      	mov	r8, r3
10006398:	2c00      	cmp	r4, #0
1000639a:	d103      	bne.n	100063a4 <_ntoa_long+0x30>
1000639c:	2310      	movs	r3, #16
1000639e:	4642      	mov	r2, r8
100063a0:	439a      	bics	r2, r3
100063a2:	4690      	mov	r8, r2
100063a4:	2380      	movs	r3, #128	; 0x80
100063a6:	00db      	lsls	r3, r3, #3
100063a8:	4646      	mov	r6, r8
100063aa:	401e      	ands	r6, r3
100063ac:	4642      	mov	r2, r8
100063ae:	421a      	tst	r2, r3
100063b0:	d012      	beq.n	100063d8 <_ntoa_long+0x64>
100063b2:	2c00      	cmp	r4, #0
100063b4:	d022      	beq.n	100063fc <_ntoa_long+0x88>
100063b6:	2600      	movs	r6, #0
100063b8:	e00e      	b.n	100063d8 <_ntoa_long+0x64>
100063ba:	3330      	adds	r3, #48	; 0x30
100063bc:	b2d9      	uxtb	r1, r3
100063be:	1c77      	adds	r7, r6, #1
100063c0:	ab0a      	add	r3, sp, #40	; 0x28
100063c2:	5599      	strb	r1, [r3, r6]
100063c4:	0029      	movs	r1, r5
100063c6:	0020      	movs	r0, r4
100063c8:	f7fe ffc8 	bl	1000535c <__wrap___aeabi_uidiv>
100063cc:	42ac      	cmp	r4, r5
100063ce:	d316      	bcc.n	100063fe <_ntoa_long+0x8a>
100063d0:	2f1f      	cmp	r7, #31
100063d2:	d814      	bhi.n	100063fe <_ntoa_long+0x8a>
100063d4:	003e      	movs	r6, r7
100063d6:	0004      	movs	r4, r0
100063d8:	0029      	movs	r1, r5
100063da:	0020      	movs	r0, r4
100063dc:	f7fe ffbe 	bl	1000535c <__wrap___aeabi_uidiv>
100063e0:	b2cb      	uxtb	r3, r1
100063e2:	2b09      	cmp	r3, #9
100063e4:	d9e9      	bls.n	100063ba <_ntoa_long+0x46>
100063e6:	4642      	mov	r2, r8
100063e8:	0692      	lsls	r2, r2, #26
100063ea:	d505      	bpl.n	100063f8 <_ntoa_long+0x84>
100063ec:	2141      	movs	r1, #65	; 0x41
100063ee:	18c9      	adds	r1, r1, r3
100063f0:	b2c9      	uxtb	r1, r1
100063f2:	390a      	subs	r1, #10
100063f4:	b2c9      	uxtb	r1, r1
100063f6:	e7e2      	b.n	100063be <_ntoa_long+0x4a>
100063f8:	2161      	movs	r1, #97	; 0x61
100063fa:	e7f8      	b.n	100063ee <_ntoa_long+0x7a>
100063fc:	0027      	movs	r7, r4
100063fe:	4643      	mov	r3, r8
10006400:	9306      	str	r3, [sp, #24]
10006402:	9b20      	ldr	r3, [sp, #128]	; 0x80
10006404:	9305      	str	r3, [sp, #20]
10006406:	9b1f      	ldr	r3, [sp, #124]	; 0x7c
10006408:	9304      	str	r3, [sp, #16]
1000640a:	9503      	str	r5, [sp, #12]
1000640c:	465b      	mov	r3, fp
1000640e:	9302      	str	r3, [sp, #8]
10006410:	9701      	str	r7, [sp, #4]
10006412:	ab0a      	add	r3, sp, #40	; 0x28
10006414:	9300      	str	r3, [sp, #0]
10006416:	9b09      	ldr	r3, [sp, #36]	; 0x24
10006418:	9a08      	ldr	r2, [sp, #32]
1000641a:	4651      	mov	r1, sl
1000641c:	4648      	mov	r0, r9
1000641e:	f7ff ff20 	bl	10006262 <_ntoa_format>
10006422:	b013      	add	sp, #76	; 0x4c
10006424:	bcf0      	pop	{r4, r5, r6, r7}
10006426:	46bb      	mov	fp, r7
10006428:	46b2      	mov	sl, r6
1000642a:	46a9      	mov	r9, r5
1000642c:	46a0      	mov	r8, r4
1000642e:	bdf0      	pop	{r4, r5, r6, r7, pc}

10006430 <_ntoa_long_long>:
10006430:	b5f0      	push	{r4, r5, r6, r7, lr}
10006432:	46de      	mov	lr, fp
10006434:	4657      	mov	r7, sl
10006436:	464e      	mov	r6, r9
10006438:	4645      	mov	r5, r8
1000643a:	b5e0      	push	{r5, r6, r7, lr}
1000643c:	b095      	sub	sp, #84	; 0x54
1000643e:	9008      	str	r0, [sp, #32]
10006440:	9109      	str	r1, [sp, #36]	; 0x24
10006442:	920a      	str	r2, [sp, #40]	; 0x28
10006444:	930b      	str	r3, [sp, #44]	; 0x2c
10006446:	9e1e      	ldr	r6, [sp, #120]	; 0x78
10006448:	9c1f      	ldr	r4, [sp, #124]	; 0x7c
1000644a:	ab20      	add	r3, sp, #128	; 0x80
1000644c:	781b      	ldrb	r3, [r3, #0]
1000644e:	469b      	mov	fp, r3
10006450:	9b22      	ldr	r3, [sp, #136]	; 0x88
10006452:	4699      	mov	r9, r3
10006454:	9d23      	ldr	r5, [sp, #140]	; 0x8c
10006456:	9b26      	ldr	r3, [sp, #152]	; 0x98
10006458:	469a      	mov	sl, r3
1000645a:	0033      	movs	r3, r6
1000645c:	4323      	orrs	r3, r4
1000645e:	d103      	bne.n	10006468 <_ntoa_long_long+0x38>
10006460:	3310      	adds	r3, #16
10006462:	4652      	mov	r2, sl
10006464:	439a      	bics	r2, r3
10006466:	4692      	mov	sl, r2
10006468:	2380      	movs	r3, #128	; 0x80
1000646a:	00db      	lsls	r3, r3, #3
1000646c:	4657      	mov	r7, sl
1000646e:	401f      	ands	r7, r3
10006470:	4652      	mov	r2, sl
10006472:	421a      	tst	r2, r3
10006474:	d019      	beq.n	100064aa <_ntoa_long_long+0x7a>
10006476:	0033      	movs	r3, r6
10006478:	4323      	orrs	r3, r4
1000647a:	d02d      	beq.n	100064d8 <_ntoa_long_long+0xa8>
1000647c:	2700      	movs	r7, #0
1000647e:	e014      	b.n	100064aa <_ntoa_long_long+0x7a>
10006480:	3330      	adds	r3, #48	; 0x30
10006482:	b2da      	uxtb	r2, r3
10006484:	1c7b      	adds	r3, r7, #1
10006486:	4698      	mov	r8, r3
10006488:	ab0c      	add	r3, sp, #48	; 0x30
1000648a:	55da      	strb	r2, [r3, r7]
1000648c:	464a      	mov	r2, r9
1000648e:	002b      	movs	r3, r5
10006490:	0030      	movs	r0, r6
10006492:	0021      	movs	r1, r4
10006494:	f7fe ffa0 	bl	100053d8 <__wrap___aeabi_uldivmod>
10006498:	42a5      	cmp	r5, r4
1000649a:	d81f      	bhi.n	100064dc <_ntoa_long_long+0xac>
1000649c:	d019      	beq.n	100064d2 <_ntoa_long_long+0xa2>
1000649e:	4643      	mov	r3, r8
100064a0:	2b1f      	cmp	r3, #31
100064a2:	d81b      	bhi.n	100064dc <_ntoa_long_long+0xac>
100064a4:	4647      	mov	r7, r8
100064a6:	0006      	movs	r6, r0
100064a8:	000c      	movs	r4, r1
100064aa:	464a      	mov	r2, r9
100064ac:	002b      	movs	r3, r5
100064ae:	0030      	movs	r0, r6
100064b0:	0021      	movs	r1, r4
100064b2:	f7fe ff91 	bl	100053d8 <__wrap___aeabi_uldivmod>
100064b6:	b2d3      	uxtb	r3, r2
100064b8:	2b09      	cmp	r3, #9
100064ba:	d9e1      	bls.n	10006480 <_ntoa_long_long+0x50>
100064bc:	4652      	mov	r2, sl
100064be:	0692      	lsls	r2, r2, #26
100064c0:	d505      	bpl.n	100064ce <_ntoa_long_long+0x9e>
100064c2:	2241      	movs	r2, #65	; 0x41
100064c4:	18d2      	adds	r2, r2, r3
100064c6:	b2d2      	uxtb	r2, r2
100064c8:	3a0a      	subs	r2, #10
100064ca:	b2d2      	uxtb	r2, r2
100064cc:	e7da      	b.n	10006484 <_ntoa_long_long+0x54>
100064ce:	2261      	movs	r2, #97	; 0x61
100064d0:	e7f8      	b.n	100064c4 <_ntoa_long_long+0x94>
100064d2:	45b1      	cmp	r9, r6
100064d4:	d9e3      	bls.n	1000649e <_ntoa_long_long+0x6e>
100064d6:	e001      	b.n	100064dc <_ntoa_long_long+0xac>
100064d8:	2300      	movs	r3, #0
100064da:	4698      	mov	r8, r3
100064dc:	4653      	mov	r3, sl
100064de:	9306      	str	r3, [sp, #24]
100064e0:	9b25      	ldr	r3, [sp, #148]	; 0x94
100064e2:	9305      	str	r3, [sp, #20]
100064e4:	9b24      	ldr	r3, [sp, #144]	; 0x90
100064e6:	9304      	str	r3, [sp, #16]
100064e8:	464b      	mov	r3, r9
100064ea:	9303      	str	r3, [sp, #12]
100064ec:	465b      	mov	r3, fp
100064ee:	9302      	str	r3, [sp, #8]
100064f0:	4643      	mov	r3, r8
100064f2:	9301      	str	r3, [sp, #4]
100064f4:	ab0c      	add	r3, sp, #48	; 0x30
100064f6:	9300      	str	r3, [sp, #0]
100064f8:	9b0b      	ldr	r3, [sp, #44]	; 0x2c
100064fa:	9a0a      	ldr	r2, [sp, #40]	; 0x28
100064fc:	9909      	ldr	r1, [sp, #36]	; 0x24
100064fe:	9808      	ldr	r0, [sp, #32]
10006500:	f7ff feaf 	bl	10006262 <_ntoa_format>
10006504:	b015      	add	sp, #84	; 0x54
10006506:	bcf0      	pop	{r4, r5, r6, r7}
10006508:	46bb      	mov	fp, r7
1000650a:	46b2      	mov	sl, r6
1000650c:	46a9      	mov	r9, r5
1000650e:	46a0      	mov	r8, r4
10006510:	bdf0      	pop	{r4, r5, r6, r7, pc}
	...

10006514 <_etoa>:
10006514:	b5f0      	push	{r4, r5, r6, r7, lr}
10006516:	46de      	mov	lr, fp
10006518:	4657      	mov	r7, sl
1000651a:	464e      	mov	r6, r9
1000651c:	4645      	mov	r5, r8
1000651e:	b5e0      	push	{r5, r6, r7, lr}
10006520:	b091      	sub	sp, #68	; 0x44
10006522:	4683      	mov	fp, r0
10006524:	468a      	mov	sl, r1
10006526:	920c      	str	r2, [sp, #48]	; 0x30
10006528:	4698      	mov	r8, r3
1000652a:	9c1a      	ldr	r4, [sp, #104]	; 0x68
1000652c:	9408      	str	r4, [sp, #32]
1000652e:	9d1b      	ldr	r5, [sp, #108]	; 0x6c
10006530:	9509      	str	r5, [sp, #36]	; 0x24
10006532:	0022      	movs	r2, r4
10006534:	002b      	movs	r3, r5
10006536:	0020      	movs	r0, r4
10006538:	0029      	movs	r1, r5
1000653a:	f7ff f9d8 	bl	100058ee <__wrap___aeabi_dcmpun>
1000653e:	2800      	cmp	r0, #0
10006540:	d000      	beq.n	10006544 <_etoa+0x30>
10006542:	e0e5      	b.n	10006710 <_etoa+0x1fc>
10006544:	2201      	movs	r2, #1
10006546:	4252      	negs	r2, r2
10006548:	4bd7      	ldr	r3, [pc, #860]	; (100068a8 <_etoa+0x394>)
1000654a:	0020      	movs	r0, r4
1000654c:	0029      	movs	r1, r5
1000654e:	f7ff f9c9 	bl	100058e4 <__wrap___aeabi_dcmpgt>
10006552:	2800      	cmp	r0, #0
10006554:	d000      	beq.n	10006558 <_etoa+0x44>
10006556:	e0db      	b.n	10006710 <_etoa+0x1fc>
10006558:	2201      	movs	r2, #1
1000655a:	4252      	negs	r2, r2
1000655c:	4bd3      	ldr	r3, [pc, #844]	; (100068ac <_etoa+0x398>)
1000655e:	0020      	movs	r0, r4
10006560:	0029      	movs	r1, r5
10006562:	f7ff f9a9 	bl	100058b8 <__wrap___aeabi_dcmplt>
10006566:	2800      	cmp	r0, #0
10006568:	d000      	beq.n	1000656c <_etoa+0x58>
1000656a:	e0d1      	b.n	10006710 <_etoa+0x1fc>
1000656c:	2200      	movs	r2, #0
1000656e:	2300      	movs	r3, #0
10006570:	9e08      	ldr	r6, [sp, #32]
10006572:	0030      	movs	r0, r6
10006574:	9d09      	ldr	r5, [sp, #36]	; 0x24
10006576:	0029      	movs	r1, r5
10006578:	f7ff f99e 	bl	100058b8 <__wrap___aeabi_dcmplt>
1000657c:	2800      	cmp	r0, #0
1000657e:	d000      	beq.n	10006582 <_etoa+0x6e>
10006580:	e0dd      	b.n	1000673e <_etoa+0x22a>
10006582:	9808      	ldr	r0, [sp, #32]
10006584:	9909      	ldr	r1, [sp, #36]	; 0x24
10006586:	9006      	str	r0, [sp, #24]
10006588:	9107      	str	r1, [sp, #28]
1000658a:	2380      	movs	r3, #128	; 0x80
1000658c:	00db      	lsls	r3, r3, #3
1000658e:	9a1e      	ldr	r2, [sp, #120]	; 0x78
10006590:	401a      	ands	r2, r3
10006592:	920d      	str	r2, [sp, #52]	; 0x34
10006594:	9a1e      	ldr	r2, [sp, #120]	; 0x78
10006596:	421a      	tst	r2, r3
10006598:	d101      	bne.n	1000659e <_etoa+0x8a>
1000659a:	2306      	movs	r3, #6
1000659c:	931c      	str	r3, [sp, #112]	; 0x70
1000659e:	9806      	ldr	r0, [sp, #24]
100065a0:	9907      	ldr	r1, [sp, #28]
100065a2:	0004      	movs	r4, r0
100065a4:	000d      	movs	r5, r1
100065a6:	000a      	movs	r2, r1
100065a8:	0006      	movs	r6, r0
100065aa:	4302      	orrs	r2, r0
100065ac:	d100      	bne.n	100065b0 <_etoa+0x9c>
100065ae:	e0d1      	b.n	10006754 <_etoa+0x240>
100065b0:	0d08      	lsrs	r0, r1, #20
100065b2:	0540      	lsls	r0, r0, #21
100065b4:	0d40      	lsrs	r0, r0, #21
100065b6:	4cbe      	ldr	r4, [pc, #760]	; (100068b0 <_etoa+0x39c>)
100065b8:	46a4      	mov	ip, r4
100065ba:	4460      	add	r0, ip
100065bc:	030a      	lsls	r2, r1, #12
100065be:	0b12      	lsrs	r2, r2, #12
100065c0:	4bbc      	ldr	r3, [pc, #752]	; (100068b4 <_etoa+0x3a0>)
100065c2:	4313      	orrs	r3, r2
100065c4:	001f      	movs	r7, r3
100065c6:	f7ff f9a3 	bl	10005910 <__wrap___aeabi_i2d>
100065ca:	4abb      	ldr	r2, [pc, #748]	; (100068b8 <_etoa+0x3a4>)
100065cc:	4bbb      	ldr	r3, [pc, #748]	; (100068bc <_etoa+0x3a8>)
100065ce:	f7ff f930 	bl	10005832 <__wrap___aeabi_dmul>
100065d2:	4abb      	ldr	r2, [pc, #748]	; (100068c0 <_etoa+0x3ac>)
100065d4:	4bbb      	ldr	r3, [pc, #748]	; (100068c4 <_etoa+0x3b0>)
100065d6:	f7ff f905 	bl	100057e4 <__wrap___aeabi_dadd>
100065da:	0004      	movs	r4, r0
100065dc:	000d      	movs	r5, r1
100065de:	2200      	movs	r2, #0
100065e0:	4bb9      	ldr	r3, [pc, #740]	; (100068c8 <_etoa+0x3b4>)
100065e2:	0030      	movs	r0, r6
100065e4:	0039      	movs	r1, r7
100065e6:	f7ff f8f4 	bl	100057d2 <__wrap___aeabi_dsub>
100065ea:	4ab8      	ldr	r2, [pc, #736]	; (100068cc <_etoa+0x3b8>)
100065ec:	4bb8      	ldr	r3, [pc, #736]	; (100068d0 <_etoa+0x3bc>)
100065ee:	f7ff f920 	bl	10005832 <__wrap___aeabi_dmul>
100065f2:	0002      	movs	r2, r0
100065f4:	000b      	movs	r3, r1
100065f6:	0020      	movs	r0, r4
100065f8:	0029      	movs	r1, r5
100065fa:	f7ff f8f3 	bl	100057e4 <__wrap___aeabi_dadd>
100065fe:	f7ff f99f 	bl	10005940 <__wrap___aeabi_d2iz>
10006602:	4681      	mov	r9, r0
10006604:	f7ff f984 	bl	10005910 <__wrap___aeabi_i2d>
10006608:	0004      	movs	r4, r0
1000660a:	000d      	movs	r5, r1
1000660c:	4ab1      	ldr	r2, [pc, #708]	; (100068d4 <_etoa+0x3c0>)
1000660e:	4bb2      	ldr	r3, [pc, #712]	; (100068d8 <_etoa+0x3c4>)
10006610:	f7ff f90f 	bl	10005832 <__wrap___aeabi_dmul>
10006614:	2200      	movs	r2, #0
10006616:	4bb1      	ldr	r3, [pc, #708]	; (100068dc <_etoa+0x3c8>)
10006618:	f7ff f8e4 	bl	100057e4 <__wrap___aeabi_dadd>
1000661c:	f7ff f990 	bl	10005940 <__wrap___aeabi_d2iz>
10006620:	0006      	movs	r6, r0
10006622:	4aaf      	ldr	r2, [pc, #700]	; (100068e0 <_etoa+0x3cc>)
10006624:	4baf      	ldr	r3, [pc, #700]	; (100068e4 <_etoa+0x3d0>)
10006626:	0020      	movs	r0, r4
10006628:	0029      	movs	r1, r5
1000662a:	f7ff f902 	bl	10005832 <__wrap___aeabi_dmul>
1000662e:	0004      	movs	r4, r0
10006630:	000d      	movs	r5, r1
10006632:	0030      	movs	r0, r6
10006634:	f7ff f96c 	bl	10005910 <__wrap___aeabi_i2d>
10006638:	4aab      	ldr	r2, [pc, #684]	; (100068e8 <_etoa+0x3d4>)
1000663a:	4bac      	ldr	r3, [pc, #688]	; (100068ec <_etoa+0x3d8>)
1000663c:	f7ff f8f9 	bl	10005832 <__wrap___aeabi_dmul>
10006640:	0002      	movs	r2, r0
10006642:	000b      	movs	r3, r1
10006644:	0020      	movs	r0, r4
10006646:	0029      	movs	r1, r5
10006648:	f7ff f8c3 	bl	100057d2 <__wrap___aeabi_dsub>
1000664c:	0004      	movs	r4, r0
1000664e:	000d      	movs	r5, r1
10006650:	0002      	movs	r2, r0
10006652:	000b      	movs	r3, r1
10006654:	f7ff f8ed 	bl	10005832 <__wrap___aeabi_dmul>
10006658:	900a      	str	r0, [sp, #40]	; 0x28
1000665a:	910b      	str	r1, [sp, #44]	; 0x2c
1000665c:	4ba4      	ldr	r3, [pc, #656]	; (100068f0 <_etoa+0x3dc>)
1000665e:	18f3      	adds	r3, r6, r3
10006660:	2600      	movs	r6, #0
10006662:	051f      	lsls	r7, r3, #20
10006664:	0022      	movs	r2, r4
10006666:	002b      	movs	r3, r5
10006668:	0020      	movs	r0, r4
1000666a:	0029      	movs	r1, r5
1000666c:	f7ff f8ba 	bl	100057e4 <__wrap___aeabi_dadd>
10006670:	900e      	str	r0, [sp, #56]	; 0x38
10006672:	910f      	str	r1, [sp, #60]	; 0x3c
10006674:	0022      	movs	r2, r4
10006676:	002b      	movs	r3, r5
10006678:	2000      	movs	r0, #0
1000667a:	2180      	movs	r1, #128	; 0x80
1000667c:	05c9      	lsls	r1, r1, #23
1000667e:	f7ff f8a8 	bl	100057d2 <__wrap___aeabi_dsub>
10006682:	0004      	movs	r4, r0
10006684:	000d      	movs	r5, r1
10006686:	2200      	movs	r2, #0
10006688:	4b9a      	ldr	r3, [pc, #616]	; (100068f4 <_etoa+0x3e0>)
1000668a:	980a      	ldr	r0, [sp, #40]	; 0x28
1000668c:	990b      	ldr	r1, [sp, #44]	; 0x2c
1000668e:	f7ff f8b2 	bl	100057f6 <__wrap___aeabi_ddiv>
10006692:	2200      	movs	r2, #0
10006694:	4b98      	ldr	r3, [pc, #608]	; (100068f8 <_etoa+0x3e4>)
10006696:	f7ff f8a5 	bl	100057e4 <__wrap___aeabi_dadd>
1000669a:	0002      	movs	r2, r0
1000669c:	000b      	movs	r3, r1
1000669e:	980a      	ldr	r0, [sp, #40]	; 0x28
100066a0:	990b      	ldr	r1, [sp, #44]	; 0x2c
100066a2:	f7ff f8a8 	bl	100057f6 <__wrap___aeabi_ddiv>
100066a6:	2200      	movs	r2, #0
100066a8:	4b94      	ldr	r3, [pc, #592]	; (100068fc <_etoa+0x3e8>)
100066aa:	f7ff f89b 	bl	100057e4 <__wrap___aeabi_dadd>
100066ae:	0002      	movs	r2, r0
100066b0:	000b      	movs	r3, r1
100066b2:	980a      	ldr	r0, [sp, #40]	; 0x28
100066b4:	990b      	ldr	r1, [sp, #44]	; 0x2c
100066b6:	f7ff f89e 	bl	100057f6 <__wrap___aeabi_ddiv>
100066ba:	0002      	movs	r2, r0
100066bc:	000b      	movs	r3, r1
100066be:	0020      	movs	r0, r4
100066c0:	0029      	movs	r1, r5
100066c2:	f7ff f88f 	bl	100057e4 <__wrap___aeabi_dadd>
100066c6:	0002      	movs	r2, r0
100066c8:	000b      	movs	r3, r1
100066ca:	980e      	ldr	r0, [sp, #56]	; 0x38
100066cc:	990f      	ldr	r1, [sp, #60]	; 0x3c
100066ce:	f7ff f892 	bl	100057f6 <__wrap___aeabi_ddiv>
100066d2:	2200      	movs	r2, #0
100066d4:	4b77      	ldr	r3, [pc, #476]	; (100068b4 <_etoa+0x3a0>)
100066d6:	f7ff f885 	bl	100057e4 <__wrap___aeabi_dadd>
100066da:	0032      	movs	r2, r6
100066dc:	003b      	movs	r3, r7
100066de:	f7ff f8a8 	bl	10005832 <__wrap___aeabi_dmul>
100066e2:	0006      	movs	r6, r0
100066e4:	000f      	movs	r7, r1
100066e6:	0004      	movs	r4, r0
100066e8:	000d      	movs	r5, r1
100066ea:	9a06      	ldr	r2, [sp, #24]
100066ec:	9b07      	ldr	r3, [sp, #28]
100066ee:	f7ff f8f9 	bl	100058e4 <__wrap___aeabi_dcmpgt>
100066f2:	2800      	cmp	r0, #0
100066f4:	d030      	beq.n	10006758 <_etoa+0x244>
100066f6:	2301      	movs	r3, #1
100066f8:	425b      	negs	r3, r3
100066fa:	469c      	mov	ip, r3
100066fc:	44e1      	add	r9, ip
100066fe:	2200      	movs	r2, #0
10006700:	4b7d      	ldr	r3, [pc, #500]	; (100068f8 <_etoa+0x3e4>)
10006702:	0030      	movs	r0, r6
10006704:	0039      	movs	r1, r7
10006706:	f7ff f876 	bl	100057f6 <__wrap___aeabi_ddiv>
1000670a:	0004      	movs	r4, r0
1000670c:	000d      	movs	r5, r1
1000670e:	e023      	b.n	10006758 <_etoa+0x244>
10006710:	9b1e      	ldr	r3, [sp, #120]	; 0x78
10006712:	9304      	str	r3, [sp, #16]
10006714:	9b1d      	ldr	r3, [sp, #116]	; 0x74
10006716:	9303      	str	r3, [sp, #12]
10006718:	9b1c      	ldr	r3, [sp, #112]	; 0x70
1000671a:	9302      	str	r3, [sp, #8]
1000671c:	9a08      	ldr	r2, [sp, #32]
1000671e:	9b09      	ldr	r3, [sp, #36]	; 0x24
10006720:	9200      	str	r2, [sp, #0]
10006722:	9301      	str	r3, [sp, #4]
10006724:	4643      	mov	r3, r8
10006726:	9a0c      	ldr	r2, [sp, #48]	; 0x30
10006728:	4651      	mov	r1, sl
1000672a:	4658      	mov	r0, fp
1000672c:	f000 f8fc 	bl	10006928 <_ftoa>
10006730:	b011      	add	sp, #68	; 0x44
10006732:	bcf0      	pop	{r4, r5, r6, r7}
10006734:	46bb      	mov	fp, r7
10006736:	46b2      	mov	sl, r6
10006738:	46a9      	mov	r9, r5
1000673a:	46a0      	mov	r8, r4
1000673c:	bdf0      	pop	{r4, r5, r6, r7, pc}
1000673e:	2300      	movs	r3, #0
10006740:	2400      	movs	r4, #0
10006742:	9306      	str	r3, [sp, #24]
10006744:	9407      	str	r4, [sp, #28]
10006746:	9606      	str	r6, [sp, #24]
10006748:	2380      	movs	r3, #128	; 0x80
1000674a:	061b      	lsls	r3, r3, #24
1000674c:	469c      	mov	ip, r3
1000674e:	4465      	add	r5, ip
10006750:	9507      	str	r5, [sp, #28]
10006752:	e71a      	b.n	1000658a <_etoa+0x76>
10006754:	2300      	movs	r3, #0
10006756:	4699      	mov	r9, r3
10006758:	464b      	mov	r3, r9
1000675a:	3363      	adds	r3, #99	; 0x63
1000675c:	2bc6      	cmp	r3, #198	; 0xc6
1000675e:	d81e      	bhi.n	1000679e <_etoa+0x28a>
10006760:	2604      	movs	r6, #4
10006762:	9b1e      	ldr	r3, [sp, #120]	; 0x78
10006764:	051b      	lsls	r3, r3, #20
10006766:	d526      	bpl.n	100067b6 <_etoa+0x2a2>
10006768:	002b      	movs	r3, r5
1000676a:	4323      	orrs	r3, r4
1000676c:	d00f      	beq.n	1000678e <_etoa+0x27a>
1000676e:	4a64      	ldr	r2, [pc, #400]	; (10006900 <_etoa+0x3ec>)
10006770:	4b64      	ldr	r3, [pc, #400]	; (10006904 <_etoa+0x3f0>)
10006772:	9806      	ldr	r0, [sp, #24]
10006774:	9907      	ldr	r1, [sp, #28]
10006776:	f7ff f8ad 	bl	100058d4 <__wrap___aeabi_dcmpge>
1000677a:	2800      	cmp	r0, #0
1000677c:	d079      	beq.n	10006872 <_etoa+0x35e>
1000677e:	2200      	movs	r2, #0
10006780:	4b61      	ldr	r3, [pc, #388]	; (10006908 <_etoa+0x3f4>)
10006782:	9806      	ldr	r0, [sp, #24]
10006784:	9907      	ldr	r1, [sp, #28]
10006786:	f7ff f897 	bl	100058b8 <__wrap___aeabi_dcmplt>
1000678a:	2800      	cmp	r0, #0
1000678c:	d071      	beq.n	10006872 <_etoa+0x35e>
1000678e:	9b1c      	ldr	r3, [sp, #112]	; 0x70
10006790:	454b      	cmp	r3, r9
10006792:	dd06      	ble.n	100067a2 <_etoa+0x28e>
10006794:	464a      	mov	r2, r9
10006796:	1a98      	subs	r0, r3, r2
10006798:	1e43      	subs	r3, r0, #1
1000679a:	931c      	str	r3, [sp, #112]	; 0x70
1000679c:	e003      	b.n	100067a6 <_etoa+0x292>
1000679e:	2605      	movs	r6, #5
100067a0:	e7df      	b.n	10006762 <_etoa+0x24e>
100067a2:	2300      	movs	r3, #0
100067a4:	931c      	str	r3, [sp, #112]	; 0x70
100067a6:	2380      	movs	r3, #128	; 0x80
100067a8:	00db      	lsls	r3, r3, #3
100067aa:	9a1e      	ldr	r2, [sp, #120]	; 0x78
100067ac:	431a      	orrs	r2, r3
100067ae:	921e      	str	r2, [sp, #120]	; 0x78
100067b0:	2600      	movs	r6, #0
100067b2:	2300      	movs	r3, #0
100067b4:	4699      	mov	r9, r3
100067b6:	9b1d      	ldr	r3, [sp, #116]	; 0x74
100067b8:	429e      	cmp	r6, r3
100067ba:	d264      	bcs.n	10006886 <_etoa+0x372>
100067bc:	1b9f      	subs	r7, r3, r6
100067be:	2302      	movs	r3, #2
100067c0:	9a1e      	ldr	r2, [sp, #120]	; 0x78
100067c2:	401a      	ands	r2, r3
100067c4:	920a      	str	r2, [sp, #40]	; 0x28
100067c6:	9a1e      	ldr	r2, [sp, #120]	; 0x78
100067c8:	4213      	tst	r3, r2
100067ca:	d002      	beq.n	100067d2 <_etoa+0x2be>
100067cc:	2e00      	cmp	r6, #0
100067ce:	d000      	beq.n	100067d2 <_etoa+0x2be>
100067d0:	2700      	movs	r7, #0
100067d2:	464b      	mov	r3, r9
100067d4:	2b00      	cmp	r3, #0
100067d6:	d007      	beq.n	100067e8 <_etoa+0x2d4>
100067d8:	0022      	movs	r2, r4
100067da:	002b      	movs	r3, r5
100067dc:	9806      	ldr	r0, [sp, #24]
100067de:	9907      	ldr	r1, [sp, #28]
100067e0:	f7ff f809 	bl	100057f6 <__wrap___aeabi_ddiv>
100067e4:	9006      	str	r0, [sp, #24]
100067e6:	9107      	str	r1, [sp, #28]
100067e8:	2200      	movs	r2, #0
100067ea:	2300      	movs	r3, #0
100067ec:	9808      	ldr	r0, [sp, #32]
100067ee:	9909      	ldr	r1, [sp, #36]	; 0x24
100067f0:	f7ff f862 	bl	100058b8 <__wrap___aeabi_dcmplt>
100067f4:	2800      	cmp	r0, #0
100067f6:	d148      	bne.n	1000688a <_etoa+0x376>
100067f8:	4b44      	ldr	r3, [pc, #272]	; (1000690c <_etoa+0x3f8>)
100067fa:	9a1e      	ldr	r2, [sp, #120]	; 0x78
100067fc:	4013      	ands	r3, r2
100067fe:	9304      	str	r3, [sp, #16]
10006800:	9703      	str	r7, [sp, #12]
10006802:	9b1c      	ldr	r3, [sp, #112]	; 0x70
10006804:	9302      	str	r3, [sp, #8]
10006806:	9b06      	ldr	r3, [sp, #24]
10006808:	9c07      	ldr	r4, [sp, #28]
1000680a:	9300      	str	r3, [sp, #0]
1000680c:	9401      	str	r4, [sp, #4]
1000680e:	4643      	mov	r3, r8
10006810:	9a0c      	ldr	r2, [sp, #48]	; 0x30
10006812:	4651      	mov	r1, sl
10006814:	4658      	mov	r0, fp
10006816:	f000 f887 	bl	10006928 <_ftoa>
1000681a:	2e00      	cmp	r6, #0
1000681c:	d100      	bne.n	10006820 <_etoa+0x30c>
1000681e:	e787      	b.n	10006730 <_etoa+0x21c>
10006820:	9b1e      	ldr	r3, [sp, #120]	; 0x78
10006822:	069b      	lsls	r3, r3, #26
10006824:	d53d      	bpl.n	100068a2 <_etoa+0x38e>
10006826:	2545      	movs	r5, #69	; 0x45
10006828:	1c44      	adds	r4, r0, #1
1000682a:	4643      	mov	r3, r8
1000682c:	0002      	movs	r2, r0
1000682e:	4651      	mov	r1, sl
10006830:	0028      	movs	r0, r5
10006832:	47d8      	blx	fp
10006834:	464b      	mov	r3, r9
10006836:	17da      	asrs	r2, r3, #31
10006838:	189b      	adds	r3, r3, r2
1000683a:	4053      	eors	r3, r2
1000683c:	2205      	movs	r2, #5
1000683e:	9205      	str	r2, [sp, #20]
10006840:	3e01      	subs	r6, #1
10006842:	9604      	str	r6, [sp, #16]
10006844:	2200      	movs	r2, #0
10006846:	9203      	str	r2, [sp, #12]
10006848:	320a      	adds	r2, #10
1000684a:	9202      	str	r2, [sp, #8]
1000684c:	464a      	mov	r2, r9
1000684e:	0fd0      	lsrs	r0, r2, #31
10006850:	9001      	str	r0, [sp, #4]
10006852:	9300      	str	r3, [sp, #0]
10006854:	4643      	mov	r3, r8
10006856:	0022      	movs	r2, r4
10006858:	4651      	mov	r1, sl
1000685a:	4658      	mov	r0, fp
1000685c:	f7ff fd8a 	bl	10006374 <_ntoa_long>
10006860:	9b0a      	ldr	r3, [sp, #40]	; 0x28
10006862:	2b00      	cmp	r3, #0
10006864:	d100      	bne.n	10006868 <_etoa+0x354>
10006866:	e763      	b.n	10006730 <_etoa+0x21c>
10006868:	0002      	movs	r2, r0
1000686a:	465f      	mov	r7, fp
1000686c:	9e0c      	ldr	r6, [sp, #48]	; 0x30
1000686e:	9d1d      	ldr	r5, [sp, #116]	; 0x74
10006870:	e054      	b.n	1000691c <_etoa+0x408>
10006872:	9b1c      	ldr	r3, [sp, #112]	; 0x70
10006874:	2b00      	cmp	r3, #0
10006876:	d09e      	beq.n	100067b6 <_etoa+0x2a2>
10006878:	9b0d      	ldr	r3, [sp, #52]	; 0x34
1000687a:	2b00      	cmp	r3, #0
1000687c:	d09b      	beq.n	100067b6 <_etoa+0x2a2>
1000687e:	9b1c      	ldr	r3, [sp, #112]	; 0x70
10006880:	3b01      	subs	r3, #1
10006882:	931c      	str	r3, [sp, #112]	; 0x70
10006884:	e797      	b.n	100067b6 <_etoa+0x2a2>
10006886:	2700      	movs	r7, #0
10006888:	e799      	b.n	100067be <_etoa+0x2aa>
1000688a:	9c06      	ldr	r4, [sp, #24]
1000688c:	9d07      	ldr	r5, [sp, #28]
1000688e:	0022      	movs	r2, r4
10006890:	0029      	movs	r1, r5
10006892:	2080      	movs	r0, #128	; 0x80
10006894:	0600      	lsls	r0, r0, #24
10006896:	4684      	mov	ip, r0
10006898:	4461      	add	r1, ip
1000689a:	000b      	movs	r3, r1
1000689c:	9206      	str	r2, [sp, #24]
1000689e:	9307      	str	r3, [sp, #28]
100068a0:	e7aa      	b.n	100067f8 <_etoa+0x2e4>
100068a2:	2565      	movs	r5, #101	; 0x65
100068a4:	e7c0      	b.n	10006828 <_etoa+0x314>
100068a6:	46c0      	nop			; (mov r8, r8)
100068a8:	7fefffff 	.word	0x7fefffff
100068ac:	ffefffff 	.word	0xffefffff
100068b0:	fffffc01 	.word	0xfffffc01
100068b4:	3ff00000 	.word	0x3ff00000
100068b8:	509f79fb 	.word	0x509f79fb
100068bc:	3fd34413 	.word	0x3fd34413
100068c0:	8b60c8b3 	.word	0x8b60c8b3
100068c4:	3fc68a28 	.word	0x3fc68a28
100068c8:	3ff80000 	.word	0x3ff80000
100068cc:	636f4361 	.word	0x636f4361
100068d0:	3fd287a7 	.word	0x3fd287a7
100068d4:	0979a371 	.word	0x0979a371
100068d8:	400a934f 	.word	0x400a934f
100068dc:	3fe00000 	.word	0x3fe00000
100068e0:	bbb55516 	.word	0xbbb55516
100068e4:	40026bb1 	.word	0x40026bb1
100068e8:	fefa39ef 	.word	0xfefa39ef
100068ec:	3fe62e42 	.word	0x3fe62e42
100068f0:	000003ff 	.word	0x000003ff
100068f4:	402c0000 	.word	0x402c0000
100068f8:	40240000 	.word	0x40240000
100068fc:	40180000 	.word	0x40180000
10006900:	eb1c432d 	.word	0xeb1c432d
10006904:	3f1a36e2 	.word	0x3f1a36e2
10006908:	412e8480 	.word	0x412e8480
1000690c:	fffff7ff 	.word	0xfffff7ff
10006910:	1c54      	adds	r4, r2, #1
10006912:	4643      	mov	r3, r8
10006914:	4651      	mov	r1, sl
10006916:	2020      	movs	r0, #32
10006918:	47b8      	blx	r7
1000691a:	0022      	movs	r2, r4
1000691c:	1b93      	subs	r3, r2, r6
1000691e:	42ab      	cmp	r3, r5
10006920:	d3f6      	bcc.n	10006910 <_etoa+0x3fc>
10006922:	0010      	movs	r0, r2
10006924:	e704      	b.n	10006730 <_etoa+0x21c>
10006926:	46c0      	nop			; (mov r8, r8)

10006928 <_ftoa>:
10006928:	b5f0      	push	{r4, r5, r6, r7, lr}
1000692a:	46de      	mov	lr, fp
1000692c:	4657      	mov	r7, sl
1000692e:	464e      	mov	r6, r9
10006930:	4645      	mov	r5, r8
10006932:	b5e0      	push	{r5, r6, r7, lr}
10006934:	b095      	sub	sp, #84	; 0x54
10006936:	9006      	str	r0, [sp, #24]
10006938:	9107      	str	r1, [sp, #28]
1000693a:	4693      	mov	fp, r2
1000693c:	4699      	mov	r9, r3
1000693e:	9f20      	ldr	r7, [sp, #128]	; 0x80
10006940:	9a1e      	ldr	r2, [sp, #120]	; 0x78
10006942:	9b1f      	ldr	r3, [sp, #124]	; 0x7c
10006944:	0010      	movs	r0, r2
10006946:	0019      	movs	r1, r3
10006948:	f7fe ffd1 	bl	100058ee <__wrap___aeabi_dcmpun>
1000694c:	2800      	cmp	r0, #0
1000694e:	d131      	bne.n	100069b4 <_ftoa+0x8c>
10006950:	2201      	movs	r2, #1
10006952:	4252      	negs	r2, r2
10006954:	4bbf      	ldr	r3, [pc, #764]	; (10006c54 <_ftoa+0x32c>)
10006956:	981e      	ldr	r0, [sp, #120]	; 0x78
10006958:	991f      	ldr	r1, [sp, #124]	; 0x7c
1000695a:	f7fe ffad 	bl	100058b8 <__wrap___aeabi_dcmplt>
1000695e:	2800      	cmp	r0, #0
10006960:	d137      	bne.n	100069d2 <_ftoa+0xaa>
10006962:	2201      	movs	r2, #1
10006964:	4252      	negs	r2, r2
10006966:	4bbc      	ldr	r3, [pc, #752]	; (10006c58 <_ftoa+0x330>)
10006968:	981e      	ldr	r0, [sp, #120]	; 0x78
1000696a:	991f      	ldr	r1, [sp, #124]	; 0x7c
1000696c:	f7fe ffba 	bl	100058e4 <__wrap___aeabi_dcmpgt>
10006970:	2800      	cmp	r0, #0
10006972:	d13d      	bne.n	100069f0 <_ftoa+0xc8>
10006974:	2200      	movs	r2, #0
10006976:	4bb9      	ldr	r3, [pc, #740]	; (10006c5c <_ftoa+0x334>)
10006978:	981e      	ldr	r0, [sp, #120]	; 0x78
1000697a:	991f      	ldr	r1, [sp, #124]	; 0x7c
1000697c:	f7fe ffb2 	bl	100058e4 <__wrap___aeabi_dcmpgt>
10006980:	2800      	cmp	r0, #0
10006982:	d150      	bne.n	10006a26 <_ftoa+0xfe>
10006984:	2200      	movs	r2, #0
10006986:	4bb6      	ldr	r3, [pc, #728]	; (10006c60 <_ftoa+0x338>)
10006988:	981e      	ldr	r0, [sp, #120]	; 0x78
1000698a:	991f      	ldr	r1, [sp, #124]	; 0x7c
1000698c:	f7fe ff94 	bl	100058b8 <__wrap___aeabi_dcmplt>
10006990:	2800      	cmp	r0, #0
10006992:	d148      	bne.n	10006a26 <_ftoa+0xfe>
10006994:	2200      	movs	r2, #0
10006996:	2300      	movs	r3, #0
10006998:	981e      	ldr	r0, [sp, #120]	; 0x78
1000699a:	991f      	ldr	r1, [sp, #124]	; 0x7c
1000699c:	f7fe ff8c 	bl	100058b8 <__wrap___aeabi_dcmplt>
100069a0:	2800      	cmp	r0, #0
100069a2:	d150      	bne.n	10006a46 <_ftoa+0x11e>
100069a4:	2300      	movs	r3, #0
100069a6:	4698      	mov	r8, r3
100069a8:	9b22      	ldr	r3, [sp, #136]	; 0x88
100069aa:	055b      	lsls	r3, r3, #21
100069ac:	d400      	bmi.n	100069b0 <_ftoa+0x88>
100069ae:	e0b6      	b.n	10006b1e <_ftoa+0x1f6>
100069b0:	2400      	movs	r4, #0
100069b2:	e058      	b.n	10006a66 <_ftoa+0x13e>
100069b4:	9b22      	ldr	r3, [sp, #136]	; 0x88
100069b6:	9303      	str	r3, [sp, #12]
100069b8:	9b21      	ldr	r3, [sp, #132]	; 0x84
100069ba:	9302      	str	r3, [sp, #8]
100069bc:	2303      	movs	r3, #3
100069be:	9301      	str	r3, [sp, #4]
100069c0:	4ba8      	ldr	r3, [pc, #672]	; (10006c64 <_ftoa+0x33c>)
100069c2:	9300      	str	r3, [sp, #0]
100069c4:	464b      	mov	r3, r9
100069c6:	465a      	mov	r2, fp
100069c8:	9907      	ldr	r1, [sp, #28]
100069ca:	9806      	ldr	r0, [sp, #24]
100069cc:	f7ff fbf2 	bl	100061b4 <_out_rev>
100069d0:	e10e      	b.n	10006bf0 <_ftoa+0x2c8>
100069d2:	9b22      	ldr	r3, [sp, #136]	; 0x88
100069d4:	9303      	str	r3, [sp, #12]
100069d6:	9b21      	ldr	r3, [sp, #132]	; 0x84
100069d8:	9302      	str	r3, [sp, #8]
100069da:	2304      	movs	r3, #4
100069dc:	9301      	str	r3, [sp, #4]
100069de:	4ba2      	ldr	r3, [pc, #648]	; (10006c68 <_ftoa+0x340>)
100069e0:	9300      	str	r3, [sp, #0]
100069e2:	464b      	mov	r3, r9
100069e4:	465a      	mov	r2, fp
100069e6:	9907      	ldr	r1, [sp, #28]
100069e8:	9806      	ldr	r0, [sp, #24]
100069ea:	f7ff fbe3 	bl	100061b4 <_out_rev>
100069ee:	e0ff      	b.n	10006bf0 <_ftoa+0x2c8>
100069f0:	2304      	movs	r3, #4
100069f2:	9a22      	ldr	r2, [sp, #136]	; 0x88
100069f4:	401a      	ands	r2, r3
100069f6:	9922      	ldr	r1, [sp, #136]	; 0x88
100069f8:	420b      	tst	r3, r1
100069fa:	d010      	beq.n	10006a1e <_ftoa+0xf6>
100069fc:	4b9b      	ldr	r3, [pc, #620]	; (10006c6c <_ftoa+0x344>)
100069fe:	2a00      	cmp	r2, #0
10006a00:	d00f      	beq.n	10006a22 <_ftoa+0xfa>
10006a02:	2204      	movs	r2, #4
10006a04:	9922      	ldr	r1, [sp, #136]	; 0x88
10006a06:	9103      	str	r1, [sp, #12]
10006a08:	9921      	ldr	r1, [sp, #132]	; 0x84
10006a0a:	9102      	str	r1, [sp, #8]
10006a0c:	9201      	str	r2, [sp, #4]
10006a0e:	9300      	str	r3, [sp, #0]
10006a10:	464b      	mov	r3, r9
10006a12:	465a      	mov	r2, fp
10006a14:	9907      	ldr	r1, [sp, #28]
10006a16:	9806      	ldr	r0, [sp, #24]
10006a18:	f7ff fbcc 	bl	100061b4 <_out_rev>
10006a1c:	e0e8      	b.n	10006bf0 <_ftoa+0x2c8>
10006a1e:	4b94      	ldr	r3, [pc, #592]	; (10006c70 <_ftoa+0x348>)
10006a20:	e7ed      	b.n	100069fe <_ftoa+0xd6>
10006a22:	2203      	movs	r2, #3
10006a24:	e7ee      	b.n	10006a04 <_ftoa+0xdc>
10006a26:	9b22      	ldr	r3, [sp, #136]	; 0x88
10006a28:	9304      	str	r3, [sp, #16]
10006a2a:	9b21      	ldr	r3, [sp, #132]	; 0x84
10006a2c:	9303      	str	r3, [sp, #12]
10006a2e:	9702      	str	r7, [sp, #8]
10006a30:	9b1e      	ldr	r3, [sp, #120]	; 0x78
10006a32:	9c1f      	ldr	r4, [sp, #124]	; 0x7c
10006a34:	9300      	str	r3, [sp, #0]
10006a36:	9401      	str	r4, [sp, #4]
10006a38:	464b      	mov	r3, r9
10006a3a:	465a      	mov	r2, fp
10006a3c:	9907      	ldr	r1, [sp, #28]
10006a3e:	9806      	ldr	r0, [sp, #24]
10006a40:	f7ff fd68 	bl	10006514 <_etoa>
10006a44:	e0d4      	b.n	10006bf0 <_ftoa+0x2c8>
10006a46:	9a1e      	ldr	r2, [sp, #120]	; 0x78
10006a48:	9b1f      	ldr	r3, [sp, #124]	; 0x7c
10006a4a:	2000      	movs	r0, #0
10006a4c:	2100      	movs	r1, #0
10006a4e:	f7fe fec0 	bl	100057d2 <__wrap___aeabi_dsub>
10006a52:	901e      	str	r0, [sp, #120]	; 0x78
10006a54:	911f      	str	r1, [sp, #124]	; 0x7c
10006a56:	2301      	movs	r3, #1
10006a58:	4698      	mov	r8, r3
10006a5a:	e7a5      	b.n	100069a8 <_ftoa+0x80>
10006a5c:	ab0c      	add	r3, sp, #48	; 0x30
10006a5e:	2230      	movs	r2, #48	; 0x30
10006a60:	551a      	strb	r2, [r3, r4]
10006a62:	3f01      	subs	r7, #1
10006a64:	3401      	adds	r4, #1
10006a66:	2c1f      	cmp	r4, #31
10006a68:	d801      	bhi.n	10006a6e <_ftoa+0x146>
10006a6a:	2f09      	cmp	r7, #9
10006a6c:	d8f6      	bhi.n	10006a5c <_ftoa+0x134>
10006a6e:	981e      	ldr	r0, [sp, #120]	; 0x78
10006a70:	991f      	ldr	r1, [sp, #124]	; 0x7c
10006a72:	f7fe ff65 	bl	10005940 <__wrap___aeabi_d2iz>
10006a76:	0005      	movs	r5, r0
10006a78:	f7fe ff4a 	bl	10005910 <__wrap___aeabi_i2d>
10006a7c:	0002      	movs	r2, r0
10006a7e:	000b      	movs	r3, r1
10006a80:	981e      	ldr	r0, [sp, #120]	; 0x78
10006a82:	991f      	ldr	r1, [sp, #124]	; 0x7c
10006a84:	f7fe fea5 	bl	100057d2 <__wrap___aeabi_dsub>
10006a88:	00fa      	lsls	r2, r7, #3
10006a8a:	4b7a      	ldr	r3, [pc, #488]	; (10006c74 <_ftoa+0x34c>)
10006a8c:	189b      	adds	r3, r3, r2
10006a8e:	681a      	ldr	r2, [r3, #0]
10006a90:	685b      	ldr	r3, [r3, #4]
10006a92:	920a      	str	r2, [sp, #40]	; 0x28
10006a94:	930b      	str	r3, [sp, #44]	; 0x2c
10006a96:	f7fe fecc 	bl	10005832 <__wrap___aeabi_dmul>
10006a9a:	9008      	str	r0, [sp, #32]
10006a9c:	9109      	str	r1, [sp, #36]	; 0x24
10006a9e:	f7fe ff73 	bl	10005988 <__wrap___aeabi_d2uiz>
10006aa2:	0006      	movs	r6, r0
10006aa4:	f7fe ff30 	bl	10005908 <__wrap___aeabi_ui2d>
10006aa8:	0002      	movs	r2, r0
10006aaa:	000b      	movs	r3, r1
10006aac:	9808      	ldr	r0, [sp, #32]
10006aae:	9909      	ldr	r1, [sp, #36]	; 0x24
10006ab0:	f7fe fe8f 	bl	100057d2 <__wrap___aeabi_dsub>
10006ab4:	9008      	str	r0, [sp, #32]
10006ab6:	9109      	str	r1, [sp, #36]	; 0x24
10006ab8:	2200      	movs	r2, #0
10006aba:	4b6f      	ldr	r3, [pc, #444]	; (10006c78 <_ftoa+0x350>)
10006abc:	f7fe ff12 	bl	100058e4 <__wrap___aeabi_dcmpgt>
10006ac0:	2800      	cmp	r0, #0
10006ac2:	d02e      	beq.n	10006b22 <_ftoa+0x1fa>
10006ac4:	3601      	adds	r6, #1
10006ac6:	0030      	movs	r0, r6
10006ac8:	f7fe ff1e 	bl	10005908 <__wrap___aeabi_ui2d>
10006acc:	0002      	movs	r2, r0
10006ace:	000b      	movs	r3, r1
10006ad0:	980a      	ldr	r0, [sp, #40]	; 0x28
10006ad2:	990b      	ldr	r1, [sp, #44]	; 0x2c
10006ad4:	f7fe fef6 	bl	100058c4 <__wrap___aeabi_dcmple>
10006ad8:	2800      	cmp	r0, #0
10006ada:	d001      	beq.n	10006ae0 <_ftoa+0x1b8>
10006adc:	3501      	adds	r5, #1
10006ade:	2600      	movs	r6, #0
10006ae0:	2f00      	cmp	r7, #0
10006ae2:	d12c      	bne.n	10006b3e <_ftoa+0x216>
10006ae4:	0028      	movs	r0, r5
10006ae6:	f7fe ff13 	bl	10005910 <__wrap___aeabi_i2d>
10006aea:	0002      	movs	r2, r0
10006aec:	000b      	movs	r3, r1
10006aee:	981e      	ldr	r0, [sp, #120]	; 0x78
10006af0:	991f      	ldr	r1, [sp, #124]	; 0x7c
10006af2:	f7fe fe6e 	bl	100057d2 <__wrap___aeabi_dsub>
10006af6:	0006      	movs	r6, r0
10006af8:	000f      	movs	r7, r1
10006afa:	2200      	movs	r2, #0
10006afc:	4b5e      	ldr	r3, [pc, #376]	; (10006c78 <_ftoa+0x350>)
10006afe:	f7fe fedb 	bl	100058b8 <__wrap___aeabi_dcmplt>
10006b02:	2800      	cmp	r0, #0
10006b04:	d146      	bne.n	10006b94 <_ftoa+0x26c>
10006b06:	2200      	movs	r2, #0
10006b08:	4b5b      	ldr	r3, [pc, #364]	; (10006c78 <_ftoa+0x350>)
10006b0a:	0030      	movs	r0, r6
10006b0c:	0039      	movs	r1, r7
10006b0e:	f7fe fee9 	bl	100058e4 <__wrap___aeabi_dcmpgt>
10006b12:	2800      	cmp	r0, #0
10006b14:	d13e      	bne.n	10006b94 <_ftoa+0x26c>
10006b16:	07eb      	lsls	r3, r5, #31
10006b18:	d53c      	bpl.n	10006b94 <_ftoa+0x26c>
10006b1a:	3501      	adds	r5, #1
10006b1c:	e03a      	b.n	10006b94 <_ftoa+0x26c>
10006b1e:	2706      	movs	r7, #6
10006b20:	e746      	b.n	100069b0 <_ftoa+0x88>
10006b22:	2200      	movs	r2, #0
10006b24:	4b54      	ldr	r3, [pc, #336]	; (10006c78 <_ftoa+0x350>)
10006b26:	9808      	ldr	r0, [sp, #32]
10006b28:	9909      	ldr	r1, [sp, #36]	; 0x24
10006b2a:	f7fe fec5 	bl	100058b8 <__wrap___aeabi_dcmplt>
10006b2e:	2800      	cmp	r0, #0
10006b30:	d1d6      	bne.n	10006ae0 <_ftoa+0x1b8>
10006b32:	2e00      	cmp	r6, #0
10006b34:	d001      	beq.n	10006b3a <_ftoa+0x212>
10006b36:	07f3      	lsls	r3, r6, #31
10006b38:	d5d2      	bpl.n	10006ae0 <_ftoa+0x1b8>
10006b3a:	3601      	adds	r6, #1
10006b3c:	e7d0      	b.n	10006ae0 <_ftoa+0x1b8>
10006b3e:	46aa      	mov	sl, r5
10006b40:	2c1f      	cmp	r4, #31
10006b42:	d811      	bhi.n	10006b68 <_ftoa+0x240>
10006b44:	3f01      	subs	r7, #1
10006b46:	210a      	movs	r1, #10
10006b48:	0030      	movs	r0, r6
10006b4a:	f7fe fc07 	bl	1000535c <__wrap___aeabi_uidiv>
10006b4e:	1c65      	adds	r5, r4, #1
10006b50:	3130      	adds	r1, #48	; 0x30
10006b52:	ab0c      	add	r3, sp, #48	; 0x30
10006b54:	5519      	strb	r1, [r3, r4]
10006b56:	210a      	movs	r1, #10
10006b58:	0030      	movs	r0, r6
10006b5a:	f7fe fbff 	bl	1000535c <__wrap___aeabi_uidiv>
10006b5e:	2e09      	cmp	r6, #9
10006b60:	d90e      	bls.n	10006b80 <_ftoa+0x258>
10006b62:	0006      	movs	r6, r0
10006b64:	002c      	movs	r4, r5
10006b66:	e7eb      	b.n	10006b40 <_ftoa+0x218>
10006b68:	4655      	mov	r5, sl
10006b6a:	2c1f      	cmp	r4, #31
10006b6c:	d80c      	bhi.n	10006b88 <_ftoa+0x260>
10006b6e:	1e7b      	subs	r3, r7, #1
10006b70:	2f00      	cmp	r7, #0
10006b72:	d009      	beq.n	10006b88 <_ftoa+0x260>
10006b74:	aa0c      	add	r2, sp, #48	; 0x30
10006b76:	2130      	movs	r1, #48	; 0x30
10006b78:	5511      	strb	r1, [r2, r4]
10006b7a:	001f      	movs	r7, r3
10006b7c:	3401      	adds	r4, #1
10006b7e:	e7f4      	b.n	10006b6a <_ftoa+0x242>
10006b80:	002b      	movs	r3, r5
10006b82:	4655      	mov	r5, sl
10006b84:	001c      	movs	r4, r3
10006b86:	e7f0      	b.n	10006b6a <_ftoa+0x242>
10006b88:	2c1f      	cmp	r4, #31
10006b8a:	d803      	bhi.n	10006b94 <_ftoa+0x26c>
10006b8c:	ab0c      	add	r3, sp, #48	; 0x30
10006b8e:	222e      	movs	r2, #46	; 0x2e
10006b90:	551a      	strb	r2, [r3, r4]
10006b92:	3401      	adds	r4, #1
10006b94:	2c1f      	cmp	r4, #31
10006b96:	d810      	bhi.n	10006bba <_ftoa+0x292>
10006b98:	210a      	movs	r1, #10
10006b9a:	0028      	movs	r0, r5
10006b9c:	f7fe fbb6 	bl	1000530c <__wrap___aeabi_idiv>
10006ba0:	1c66      	adds	r6, r4, #1
10006ba2:	3130      	adds	r1, #48	; 0x30
10006ba4:	ab0c      	add	r3, sp, #48	; 0x30
10006ba6:	5519      	strb	r1, [r3, r4]
10006ba8:	210a      	movs	r1, #10
10006baa:	0028      	movs	r0, r5
10006bac:	f7fe fbae 	bl	1000530c <__wrap___aeabi_idiv>
10006bb0:	1e05      	subs	r5, r0, #0
10006bb2:	d001      	beq.n	10006bb8 <_ftoa+0x290>
10006bb4:	0034      	movs	r4, r6
10006bb6:	e7ed      	b.n	10006b94 <_ftoa+0x26c>
10006bb8:	0034      	movs	r4, r6
10006bba:	2303      	movs	r3, #3
10006bbc:	9a22      	ldr	r2, [sp, #136]	; 0x88
10006bbe:	4013      	ands	r3, r2
10006bc0:	2b01      	cmp	r3, #1
10006bc2:	d01c      	beq.n	10006bfe <_ftoa+0x2d6>
10006bc4:	2c1f      	cmp	r4, #31
10006bc6:	d806      	bhi.n	10006bd6 <_ftoa+0x2ae>
10006bc8:	4643      	mov	r3, r8
10006bca:	2b00      	cmp	r3, #0
10006bcc:	d032      	beq.n	10006c34 <_ftoa+0x30c>
10006bce:	ab0c      	add	r3, sp, #48	; 0x30
10006bd0:	222d      	movs	r2, #45	; 0x2d
10006bd2:	551a      	strb	r2, [r3, r4]
10006bd4:	3401      	adds	r4, #1
10006bd6:	9b22      	ldr	r3, [sp, #136]	; 0x88
10006bd8:	9303      	str	r3, [sp, #12]
10006bda:	9b21      	ldr	r3, [sp, #132]	; 0x84
10006bdc:	9302      	str	r3, [sp, #8]
10006bde:	9401      	str	r4, [sp, #4]
10006be0:	ab0c      	add	r3, sp, #48	; 0x30
10006be2:	9300      	str	r3, [sp, #0]
10006be4:	464b      	mov	r3, r9
10006be6:	465a      	mov	r2, fp
10006be8:	9907      	ldr	r1, [sp, #28]
10006bea:	9806      	ldr	r0, [sp, #24]
10006bec:	f7ff fae2 	bl	100061b4 <_out_rev>
10006bf0:	b015      	add	sp, #84	; 0x54
10006bf2:	bcf0      	pop	{r4, r5, r6, r7}
10006bf4:	46bb      	mov	fp, r7
10006bf6:	46b2      	mov	sl, r6
10006bf8:	46a9      	mov	r9, r5
10006bfa:	46a0      	mov	r8, r4
10006bfc:	bdf0      	pop	{r4, r5, r6, r7, pc}
10006bfe:	9b21      	ldr	r3, [sp, #132]	; 0x84
10006c00:	2b00      	cmp	r3, #0
10006c02:	d013      	beq.n	10006c2c <_ftoa+0x304>
10006c04:	4643      	mov	r3, r8
10006c06:	2b00      	cmp	r3, #0
10006c08:	d102      	bne.n	10006c10 <_ftoa+0x2e8>
10006c0a:	330c      	adds	r3, #12
10006c0c:	4213      	tst	r3, r2
10006c0e:	d00f      	beq.n	10006c30 <_ftoa+0x308>
10006c10:	9b21      	ldr	r3, [sp, #132]	; 0x84
10006c12:	3b01      	subs	r3, #1
10006c14:	9321      	str	r3, [sp, #132]	; 0x84
10006c16:	0019      	movs	r1, r3
10006c18:	e003      	b.n	10006c22 <_ftoa+0x2fa>
10006c1a:	ab0c      	add	r3, sp, #48	; 0x30
10006c1c:	2230      	movs	r2, #48	; 0x30
10006c1e:	551a      	strb	r2, [r3, r4]
10006c20:	3401      	adds	r4, #1
10006c22:	428c      	cmp	r4, r1
10006c24:	d2ce      	bcs.n	10006bc4 <_ftoa+0x29c>
10006c26:	2c1f      	cmp	r4, #31
10006c28:	d9f7      	bls.n	10006c1a <_ftoa+0x2f2>
10006c2a:	e7cb      	b.n	10006bc4 <_ftoa+0x29c>
10006c2c:	9921      	ldr	r1, [sp, #132]	; 0x84
10006c2e:	e7f8      	b.n	10006c22 <_ftoa+0x2fa>
10006c30:	9921      	ldr	r1, [sp, #132]	; 0x84
10006c32:	e7f6      	b.n	10006c22 <_ftoa+0x2fa>
10006c34:	9b22      	ldr	r3, [sp, #136]	; 0x88
10006c36:	075b      	lsls	r3, r3, #29
10006c38:	d504      	bpl.n	10006c44 <_ftoa+0x31c>
10006c3a:	ab0c      	add	r3, sp, #48	; 0x30
10006c3c:	222b      	movs	r2, #43	; 0x2b
10006c3e:	551a      	strb	r2, [r3, r4]
10006c40:	3401      	adds	r4, #1
10006c42:	e7c8      	b.n	10006bd6 <_ftoa+0x2ae>
10006c44:	9b22      	ldr	r3, [sp, #136]	; 0x88
10006c46:	071b      	lsls	r3, r3, #28
10006c48:	d5c5      	bpl.n	10006bd6 <_ftoa+0x2ae>
10006c4a:	ab0c      	add	r3, sp, #48	; 0x30
10006c4c:	2220      	movs	r2, #32
10006c4e:	551a      	strb	r2, [r3, r4]
10006c50:	3401      	adds	r4, #1
10006c52:	e7c0      	b.n	10006bd6 <_ftoa+0x2ae>
10006c54:	ffefffff 	.word	0xffefffff
10006c58:	7fefffff 	.word	0x7fefffff
10006c5c:	41cdcd65 	.word	0x41cdcd65
10006c60:	c1cdcd65 	.word	0xc1cdcd65
10006c64:	1000cdc8 	.word	0x1000cdc8
10006c68:	1000cdcc 	.word	0x1000cdcc
10006c6c:	1000cdc0 	.word	0x1000cdc0
10006c70:	1000cdbc 	.word	0x1000cdbc
10006c74:	1000cfb8 	.word	0x1000cfb8
10006c78:	3fe00000 	.word	0x3fe00000

10006c7c <_vsnprintf>:
10006c7c:	b5f0      	push	{r4, r5, r6, r7, lr}
10006c7e:	46de      	mov	lr, fp
10006c80:	4657      	mov	r7, sl
10006c82:	464e      	mov	r6, r9
10006c84:	4645      	mov	r5, r8
10006c86:	b5e0      	push	{r5, r6, r7, lr}
10006c88:	b093      	sub	sp, #76	; 0x4c
10006c8a:	4682      	mov	sl, r0
10006c8c:	468b      	mov	fp, r1
10006c8e:	4690      	mov	r8, r2
10006c90:	9311      	str	r3, [sp, #68]	; 0x44
10006c92:	2900      	cmp	r1, #0
10006c94:	d100      	bne.n	10006c98 <_vsnprintf+0x1c>
10006c96:	e2eb      	b.n	10007270 <_vsnprintf+0x5f4>
10006c98:	2700      	movs	r7, #0
10006c9a:	4655      	mov	r5, sl
10006c9c:	9b11      	ldr	r3, [sp, #68]	; 0x44
10006c9e:	7818      	ldrb	r0, [r3, #0]
10006ca0:	2800      	cmp	r0, #0
10006ca2:	d100      	bne.n	10006ca6 <_vsnprintf+0x2a>
10006ca4:	e2e7      	b.n	10007276 <_vsnprintf+0x5fa>
10006ca6:	2825      	cmp	r0, #37	; 0x25
10006ca8:	d009      	beq.n	10006cbe <_vsnprintf+0x42>
10006caa:	1c7c      	adds	r4, r7, #1
10006cac:	4643      	mov	r3, r8
10006cae:	003a      	movs	r2, r7
10006cb0:	4659      	mov	r1, fp
10006cb2:	47a8      	blx	r5
10006cb4:	9b11      	ldr	r3, [sp, #68]	; 0x44
10006cb6:	3301      	adds	r3, #1
10006cb8:	9311      	str	r3, [sp, #68]	; 0x44
10006cba:	0027      	movs	r7, r4
10006cbc:	e7ee      	b.n	10006c9c <_vsnprintf+0x20>
10006cbe:	3301      	adds	r3, #1
10006cc0:	9311      	str	r3, [sp, #68]	; 0x44
10006cc2:	2400      	movs	r4, #0
10006cc4:	9a11      	ldr	r2, [sp, #68]	; 0x44
10006cc6:	7811      	ldrb	r1, [r2, #0]
10006cc8:	000b      	movs	r3, r1
10006cca:	3b20      	subs	r3, #32
10006ccc:	b2d8      	uxtb	r0, r3
10006cce:	2810      	cmp	r0, #16
10006cd0:	d803      	bhi.n	10006cda <_vsnprintf+0x5e>
10006cd2:	0083      	lsls	r3, r0, #2
10006cd4:	48d0      	ldr	r0, [pc, #832]	; (10007018 <_vsnprintf+0x39c>)
10006cd6:	58c3      	ldr	r3, [r0, r3]
10006cd8:	469f      	mov	pc, r3
10006cda:	000b      	movs	r3, r1
10006cdc:	3b30      	subs	r3, #48	; 0x30
10006cde:	b2db      	uxtb	r3, r3
10006ce0:	2b09      	cmp	r3, #9
10006ce2:	d92c      	bls.n	10006d3e <_vsnprintf+0xc2>
10006ce4:	292a      	cmp	r1, #42	; 0x2a
10006ce6:	d02f      	beq.n	10006d48 <_vsnprintf+0xcc>
10006ce8:	2300      	movs	r3, #0
10006cea:	930a      	str	r3, [sp, #40]	; 0x28
10006cec:	9b11      	ldr	r3, [sp, #68]	; 0x44
10006cee:	781a      	ldrb	r2, [r3, #0]
10006cf0:	2a2e      	cmp	r2, #46	; 0x2e
10006cf2:	d039      	beq.n	10006d68 <_vsnprintf+0xec>
10006cf4:	2300      	movs	r3, #0
10006cf6:	469a      	mov	sl, r3
10006cf8:	9a11      	ldr	r2, [sp, #68]	; 0x44
10006cfa:	7813      	ldrb	r3, [r2, #0]
10006cfc:	3b68      	subs	r3, #104	; 0x68
10006cfe:	b2d9      	uxtb	r1, r3
10006d00:	2912      	cmp	r1, #18
10006d02:	d876      	bhi.n	10006df2 <_vsnprintf+0x176>
10006d04:	008b      	lsls	r3, r1, #2
10006d06:	49c5      	ldr	r1, [pc, #788]	; (1000701c <_vsnprintf+0x3a0>)
10006d08:	58cb      	ldr	r3, [r1, r3]
10006d0a:	469f      	mov	pc, r3
10006d0c:	2301      	movs	r3, #1
10006d0e:	431c      	orrs	r4, r3
10006d10:	3201      	adds	r2, #1
10006d12:	9211      	str	r2, [sp, #68]	; 0x44
10006d14:	e7d6      	b.n	10006cc4 <_vsnprintf+0x48>
10006d16:	2302      	movs	r3, #2
10006d18:	431c      	orrs	r4, r3
10006d1a:	3201      	adds	r2, #1
10006d1c:	9211      	str	r2, [sp, #68]	; 0x44
10006d1e:	e7d1      	b.n	10006cc4 <_vsnprintf+0x48>
10006d20:	2304      	movs	r3, #4
10006d22:	431c      	orrs	r4, r3
10006d24:	3201      	adds	r2, #1
10006d26:	9211      	str	r2, [sp, #68]	; 0x44
10006d28:	e7cc      	b.n	10006cc4 <_vsnprintf+0x48>
10006d2a:	2308      	movs	r3, #8
10006d2c:	431c      	orrs	r4, r3
10006d2e:	3201      	adds	r2, #1
10006d30:	9211      	str	r2, [sp, #68]	; 0x44
10006d32:	e7c7      	b.n	10006cc4 <_vsnprintf+0x48>
10006d34:	2310      	movs	r3, #16
10006d36:	431c      	orrs	r4, r3
10006d38:	3201      	adds	r2, #1
10006d3a:	9211      	str	r2, [sp, #68]	; 0x44
10006d3c:	e7c2      	b.n	10006cc4 <_vsnprintf+0x48>
10006d3e:	a811      	add	r0, sp, #68	; 0x44
10006d40:	f7ff fa26 	bl	10006190 <_atoi>
10006d44:	900a      	str	r0, [sp, #40]	; 0x28
10006d46:	e7d1      	b.n	10006cec <_vsnprintf+0x70>
10006d48:	9b1c      	ldr	r3, [sp, #112]	; 0x70
10006d4a:	1d1a      	adds	r2, r3, #4
10006d4c:	921c      	str	r2, [sp, #112]	; 0x70
10006d4e:	6818      	ldr	r0, [r3, #0]
10006d50:	2800      	cmp	r0, #0
10006d52:	db04      	blt.n	10006d5e <_vsnprintf+0xe2>
10006d54:	900a      	str	r0, [sp, #40]	; 0x28
10006d56:	9b11      	ldr	r3, [sp, #68]	; 0x44
10006d58:	3301      	adds	r3, #1
10006d5a:	9311      	str	r3, [sp, #68]	; 0x44
10006d5c:	e7c6      	b.n	10006cec <_vsnprintf+0x70>
10006d5e:	2302      	movs	r3, #2
10006d60:	431c      	orrs	r4, r3
10006d62:	4243      	negs	r3, r0
10006d64:	930a      	str	r3, [sp, #40]	; 0x28
10006d66:	e7f6      	b.n	10006d56 <_vsnprintf+0xda>
10006d68:	2280      	movs	r2, #128	; 0x80
10006d6a:	00d2      	lsls	r2, r2, #3
10006d6c:	4314      	orrs	r4, r2
10006d6e:	1c5a      	adds	r2, r3, #1
10006d70:	9211      	str	r2, [sp, #68]	; 0x44
10006d72:	785a      	ldrb	r2, [r3, #1]
10006d74:	0013      	movs	r3, r2
10006d76:	3b30      	subs	r3, #48	; 0x30
10006d78:	b2db      	uxtb	r3, r3
10006d7a:	2b09      	cmp	r3, #9
10006d7c:	d904      	bls.n	10006d88 <_vsnprintf+0x10c>
10006d7e:	2a2a      	cmp	r2, #42	; 0x2a
10006d80:	d007      	beq.n	10006d92 <_vsnprintf+0x116>
10006d82:	2300      	movs	r3, #0
10006d84:	469a      	mov	sl, r3
10006d86:	e7b7      	b.n	10006cf8 <_vsnprintf+0x7c>
10006d88:	a811      	add	r0, sp, #68	; 0x44
10006d8a:	f7ff fa01 	bl	10006190 <_atoi>
10006d8e:	4682      	mov	sl, r0
10006d90:	e7b2      	b.n	10006cf8 <_vsnprintf+0x7c>
10006d92:	9b1c      	ldr	r3, [sp, #112]	; 0x70
10006d94:	1d1a      	adds	r2, r3, #4
10006d96:	921c      	str	r2, [sp, #112]	; 0x70
10006d98:	6818      	ldr	r0, [r3, #0]
10006d9a:	2800      	cmp	r0, #0
10006d9c:	db04      	blt.n	10006da8 <_vsnprintf+0x12c>
10006d9e:	4682      	mov	sl, r0
10006da0:	9b11      	ldr	r3, [sp, #68]	; 0x44
10006da2:	3301      	adds	r3, #1
10006da4:	9311      	str	r3, [sp, #68]	; 0x44
10006da6:	e7a7      	b.n	10006cf8 <_vsnprintf+0x7c>
10006da8:	2000      	movs	r0, #0
10006daa:	e7f8      	b.n	10006d9e <_vsnprintf+0x122>
10006dac:	2380      	movs	r3, #128	; 0x80
10006dae:	005b      	lsls	r3, r3, #1
10006db0:	4323      	orrs	r3, r4
10006db2:	1c51      	adds	r1, r2, #1
10006db4:	9111      	str	r1, [sp, #68]	; 0x44
10006db6:	7852      	ldrb	r2, [r2, #1]
10006db8:	2a6c      	cmp	r2, #108	; 0x6c
10006dba:	d001      	beq.n	10006dc0 <_vsnprintf+0x144>
10006dbc:	001c      	movs	r4, r3
10006dbe:	e018      	b.n	10006df2 <_vsnprintf+0x176>
10006dc0:	23c0      	movs	r3, #192	; 0xc0
10006dc2:	009b      	lsls	r3, r3, #2
10006dc4:	431c      	orrs	r4, r3
10006dc6:	3101      	adds	r1, #1
10006dc8:	9111      	str	r1, [sp, #68]	; 0x44
10006dca:	e012      	b.n	10006df2 <_vsnprintf+0x176>
10006dcc:	2380      	movs	r3, #128	; 0x80
10006dce:	4323      	orrs	r3, r4
10006dd0:	1c51      	adds	r1, r2, #1
10006dd2:	9111      	str	r1, [sp, #68]	; 0x44
10006dd4:	7852      	ldrb	r2, [r2, #1]
10006dd6:	2a68      	cmp	r2, #104	; 0x68
10006dd8:	d001      	beq.n	10006dde <_vsnprintf+0x162>
10006dda:	001c      	movs	r4, r3
10006ddc:	e009      	b.n	10006df2 <_vsnprintf+0x176>
10006dde:	23c0      	movs	r3, #192	; 0xc0
10006de0:	431c      	orrs	r4, r3
10006de2:	3101      	adds	r1, #1
10006de4:	9111      	str	r1, [sp, #68]	; 0x44
10006de6:	e004      	b.n	10006df2 <_vsnprintf+0x176>
10006de8:	2380      	movs	r3, #128	; 0x80
10006dea:	005b      	lsls	r3, r3, #1
10006dec:	431c      	orrs	r4, r3
10006dee:	3201      	adds	r2, #1
10006df0:	9211      	str	r2, [sp, #68]	; 0x44
10006df2:	9b11      	ldr	r3, [sp, #68]	; 0x44
10006df4:	7818      	ldrb	r0, [r3, #0]
10006df6:	0003      	movs	r3, r0
10006df8:	3b25      	subs	r3, #37	; 0x25
10006dfa:	b2da      	uxtb	r2, r3
10006dfc:	2a53      	cmp	r2, #83	; 0x53
10006dfe:	d900      	bls.n	10006e02 <_vsnprintf+0x186>
10006e00:	e22c      	b.n	1000725c <_vsnprintf+0x5e0>
10006e02:	0093      	lsls	r3, r2, #2
10006e04:	4a86      	ldr	r2, [pc, #536]	; (10007020 <_vsnprintf+0x3a4>)
10006e06:	58d3      	ldr	r3, [r2, r3]
10006e08:	469f      	mov	pc, r3
10006e0a:	2380      	movs	r3, #128	; 0x80
10006e0c:	009b      	lsls	r3, r3, #2
10006e0e:	431c      	orrs	r4, r3
10006e10:	3201      	adds	r2, #1
10006e12:	9211      	str	r2, [sp, #68]	; 0x44
10006e14:	e7ed      	b.n	10006df2 <_vsnprintf+0x176>
10006e16:	2380      	movs	r3, #128	; 0x80
10006e18:	005b      	lsls	r3, r3, #1
10006e1a:	431c      	orrs	r4, r3
10006e1c:	3201      	adds	r2, #1
10006e1e:	9211      	str	r2, [sp, #68]	; 0x44
10006e20:	e7e7      	b.n	10006df2 <_vsnprintf+0x176>
10006e22:	2878      	cmp	r0, #120	; 0x78
10006e24:	d009      	beq.n	10006e3a <_vsnprintf+0x1be>
10006e26:	2858      	cmp	r0, #88	; 0x58
10006e28:	d038      	beq.n	10006e9c <_vsnprintf+0x220>
10006e2a:	286f      	cmp	r0, #111	; 0x6f
10006e2c:	d038      	beq.n	10006ea0 <_vsnprintf+0x224>
10006e2e:	2862      	cmp	r0, #98	; 0x62
10006e30:	d038      	beq.n	10006ea4 <_vsnprintf+0x228>
10006e32:	2310      	movs	r3, #16
10006e34:	439c      	bics	r4, r3
10006e36:	260a      	movs	r6, #10
10006e38:	e000      	b.n	10006e3c <_vsnprintf+0x1c0>
10006e3a:	2610      	movs	r6, #16
10006e3c:	2858      	cmp	r0, #88	; 0x58
10006e3e:	d033      	beq.n	10006ea8 <_vsnprintf+0x22c>
10006e40:	2869      	cmp	r0, #105	; 0x69
10006e42:	d003      	beq.n	10006e4c <_vsnprintf+0x1d0>
10006e44:	2864      	cmp	r0, #100	; 0x64
10006e46:	d001      	beq.n	10006e4c <_vsnprintf+0x1d0>
10006e48:	220c      	movs	r2, #12
10006e4a:	4394      	bics	r4, r2
10006e4c:	0563      	lsls	r3, r4, #21
10006e4e:	d501      	bpl.n	10006e54 <_vsnprintf+0x1d8>
10006e50:	2201      	movs	r2, #1
10006e52:	4394      	bics	r4, r2
10006e54:	2869      	cmp	r0, #105	; 0x69
10006e56:	d02a      	beq.n	10006eae <_vsnprintf+0x232>
10006e58:	2864      	cmp	r0, #100	; 0x64
10006e5a:	d028      	beq.n	10006eae <_vsnprintf+0x232>
10006e5c:	05a3      	lsls	r3, r4, #22
10006e5e:	d500      	bpl.n	10006e62 <_vsnprintf+0x1e6>
10006e60:	e09f      	b.n	10006fa2 <_vsnprintf+0x326>
10006e62:	05e3      	lsls	r3, r4, #23
10006e64:	d500      	bpl.n	10006e68 <_vsnprintf+0x1ec>
10006e66:	e0b8      	b.n	10006fda <_vsnprintf+0x35e>
10006e68:	0663      	lsls	r3, r4, #25
10006e6a:	d400      	bmi.n	10006e6e <_vsnprintf+0x1f2>
10006e6c:	e0ca      	b.n	10007004 <_vsnprintf+0x388>
10006e6e:	9a1c      	ldr	r2, [sp, #112]	; 0x70
10006e70:	1d11      	adds	r1, r2, #4
10006e72:	911c      	str	r1, [sp, #112]	; 0x70
10006e74:	6811      	ldr	r1, [r2, #0]
10006e76:	22ff      	movs	r2, #255	; 0xff
10006e78:	400a      	ands	r2, r1
10006e7a:	9405      	str	r4, [sp, #20]
10006e7c:	9b0a      	ldr	r3, [sp, #40]	; 0x28
10006e7e:	9304      	str	r3, [sp, #16]
10006e80:	4653      	mov	r3, sl
10006e82:	9303      	str	r3, [sp, #12]
10006e84:	9602      	str	r6, [sp, #8]
10006e86:	2300      	movs	r3, #0
10006e88:	9301      	str	r3, [sp, #4]
10006e8a:	9200      	str	r2, [sp, #0]
10006e8c:	4643      	mov	r3, r8
10006e8e:	003a      	movs	r2, r7
10006e90:	4659      	mov	r1, fp
10006e92:	0028      	movs	r0, r5
10006e94:	f7ff fa6e 	bl	10006374 <_ntoa_long>
10006e98:	0007      	movs	r7, r0
10006e9a:	e027      	b.n	10006eec <_vsnprintf+0x270>
10006e9c:	2610      	movs	r6, #16
10006e9e:	e7cd      	b.n	10006e3c <_vsnprintf+0x1c0>
10006ea0:	2608      	movs	r6, #8
10006ea2:	e7cb      	b.n	10006e3c <_vsnprintf+0x1c0>
10006ea4:	2602      	movs	r6, #2
10006ea6:	e7c9      	b.n	10006e3c <_vsnprintf+0x1c0>
10006ea8:	2220      	movs	r2, #32
10006eaa:	4314      	orrs	r4, r2
10006eac:	e7c8      	b.n	10006e40 <_vsnprintf+0x1c4>
10006eae:	05a3      	lsls	r3, r4, #22
10006eb0:	d420      	bmi.n	10006ef4 <_vsnprintf+0x278>
10006eb2:	05e3      	lsls	r3, r4, #23
10006eb4:	d450      	bmi.n	10006f58 <_vsnprintf+0x2dc>
10006eb6:	0663      	lsls	r3, r4, #25
10006eb8:	d566      	bpl.n	10006f88 <_vsnprintf+0x30c>
10006eba:	9a1c      	ldr	r2, [sp, #112]	; 0x70
10006ebc:	1d11      	adds	r1, r2, #4
10006ebe:	911c      	str	r1, [sp, #112]	; 0x70
10006ec0:	6811      	ldr	r1, [r2, #0]
10006ec2:	22ff      	movs	r2, #255	; 0xff
10006ec4:	400a      	ands	r2, r1
10006ec6:	17d3      	asrs	r3, r2, #31
10006ec8:	18d1      	adds	r1, r2, r3
10006eca:	4059      	eors	r1, r3
10006ecc:	9405      	str	r4, [sp, #20]
10006ece:	9b0a      	ldr	r3, [sp, #40]	; 0x28
10006ed0:	9304      	str	r3, [sp, #16]
10006ed2:	4653      	mov	r3, sl
10006ed4:	9303      	str	r3, [sp, #12]
10006ed6:	9602      	str	r6, [sp, #8]
10006ed8:	0fd2      	lsrs	r2, r2, #31
10006eda:	9201      	str	r2, [sp, #4]
10006edc:	9100      	str	r1, [sp, #0]
10006ede:	4643      	mov	r3, r8
10006ee0:	003a      	movs	r2, r7
10006ee2:	4659      	mov	r1, fp
10006ee4:	0028      	movs	r0, r5
10006ee6:	f7ff fa45 	bl	10006374 <_ntoa_long>
10006eea:	0007      	movs	r7, r0
10006eec:	9b11      	ldr	r3, [sp, #68]	; 0x44
10006eee:	3301      	adds	r3, #1
10006ef0:	9311      	str	r3, [sp, #68]	; 0x44
10006ef2:	e6d3      	b.n	10006c9c <_vsnprintf+0x20>
10006ef4:	9b1c      	ldr	r3, [sp, #112]	; 0x70
10006ef6:	1dda      	adds	r2, r3, #7
10006ef8:	2107      	movs	r1, #7
10006efa:	438a      	bics	r2, r1
10006efc:	0011      	movs	r1, r2
10006efe:	3108      	adds	r1, #8
10006f00:	911c      	str	r1, [sp, #112]	; 0x70
10006f02:	6811      	ldr	r1, [r2, #0]
10006f04:	6853      	ldr	r3, [r2, #4]
10006f06:	469c      	mov	ip, r3
10006f08:	17db      	asrs	r3, r3, #31
10006f0a:	930c      	str	r3, [sp, #48]	; 0x30
10006f0c:	930d      	str	r3, [sp, #52]	; 0x34
10006f0e:	9a0c      	ldr	r2, [sp, #48]	; 0x30
10006f10:	9b0d      	ldr	r3, [sp, #52]	; 0x34
10006f12:	0010      	movs	r0, r2
10006f14:	4048      	eors	r0, r1
10006f16:	900e      	str	r0, [sp, #56]	; 0x38
10006f18:	4662      	mov	r2, ip
10006f1a:	4053      	eors	r3, r2
10006f1c:	930f      	str	r3, [sp, #60]	; 0x3c
10006f1e:	980e      	ldr	r0, [sp, #56]	; 0x38
10006f20:	990f      	ldr	r1, [sp, #60]	; 0x3c
10006f22:	9a0c      	ldr	r2, [sp, #48]	; 0x30
10006f24:	9b0d      	ldr	r3, [sp, #52]	; 0x34
10006f26:	1a80      	subs	r0, r0, r2
10006f28:	4199      	sbcs	r1, r3
10006f2a:	900e      	str	r0, [sp, #56]	; 0x38
10006f2c:	910f      	str	r1, [sp, #60]	; 0x3c
10006f2e:	9408      	str	r4, [sp, #32]
10006f30:	9b0a      	ldr	r3, [sp, #40]	; 0x28
10006f32:	9307      	str	r3, [sp, #28]
10006f34:	4653      	mov	r3, sl
10006f36:	9306      	str	r3, [sp, #24]
10006f38:	9604      	str	r6, [sp, #16]
10006f3a:	2300      	movs	r3, #0
10006f3c:	9305      	str	r3, [sp, #20]
10006f3e:	4663      	mov	r3, ip
10006f40:	0fda      	lsrs	r2, r3, #31
10006f42:	9202      	str	r2, [sp, #8]
10006f44:	9000      	str	r0, [sp, #0]
10006f46:	9101      	str	r1, [sp, #4]
10006f48:	4643      	mov	r3, r8
10006f4a:	003a      	movs	r2, r7
10006f4c:	4659      	mov	r1, fp
10006f4e:	0028      	movs	r0, r5
10006f50:	f7ff fa6e 	bl	10006430 <_ntoa_long_long>
10006f54:	0007      	movs	r7, r0
10006f56:	e7c9      	b.n	10006eec <_vsnprintf+0x270>
10006f58:	9a1c      	ldr	r2, [sp, #112]	; 0x70
10006f5a:	1d11      	adds	r1, r2, #4
10006f5c:	911c      	str	r1, [sp, #112]	; 0x70
10006f5e:	6812      	ldr	r2, [r2, #0]
10006f60:	17d3      	asrs	r3, r2, #31
10006f62:	18d1      	adds	r1, r2, r3
10006f64:	4059      	eors	r1, r3
10006f66:	9405      	str	r4, [sp, #20]
10006f68:	9b0a      	ldr	r3, [sp, #40]	; 0x28
10006f6a:	9304      	str	r3, [sp, #16]
10006f6c:	4653      	mov	r3, sl
10006f6e:	9303      	str	r3, [sp, #12]
10006f70:	9602      	str	r6, [sp, #8]
10006f72:	0fd2      	lsrs	r2, r2, #31
10006f74:	9201      	str	r2, [sp, #4]
10006f76:	9100      	str	r1, [sp, #0]
10006f78:	4643      	mov	r3, r8
10006f7a:	003a      	movs	r2, r7
10006f7c:	4659      	mov	r1, fp
10006f7e:	0028      	movs	r0, r5
10006f80:	f7ff f9f8 	bl	10006374 <_ntoa_long>
10006f84:	0007      	movs	r7, r0
10006f86:	e7b1      	b.n	10006eec <_vsnprintf+0x270>
10006f88:	0623      	lsls	r3, r4, #24
10006f8a:	d505      	bpl.n	10006f98 <_vsnprintf+0x31c>
10006f8c:	9a1c      	ldr	r2, [sp, #112]	; 0x70
10006f8e:	1d11      	adds	r1, r2, #4
10006f90:	911c      	str	r1, [sp, #112]	; 0x70
10006f92:	2300      	movs	r3, #0
10006f94:	5ed2      	ldrsh	r2, [r2, r3]
10006f96:	e796      	b.n	10006ec6 <_vsnprintf+0x24a>
10006f98:	9a1c      	ldr	r2, [sp, #112]	; 0x70
10006f9a:	1d11      	adds	r1, r2, #4
10006f9c:	911c      	str	r1, [sp, #112]	; 0x70
10006f9e:	6812      	ldr	r2, [r2, #0]
10006fa0:	e791      	b.n	10006ec6 <_vsnprintf+0x24a>
10006fa2:	9b1c      	ldr	r3, [sp, #112]	; 0x70
10006fa4:	1dda      	adds	r2, r3, #7
10006fa6:	2107      	movs	r1, #7
10006fa8:	438a      	bics	r2, r1
10006faa:	0011      	movs	r1, r2
10006fac:	3108      	adds	r1, #8
10006fae:	911c      	str	r1, [sp, #112]	; 0x70
10006fb0:	9408      	str	r4, [sp, #32]
10006fb2:	9b0a      	ldr	r3, [sp, #40]	; 0x28
10006fb4:	9307      	str	r3, [sp, #28]
10006fb6:	4653      	mov	r3, sl
10006fb8:	9306      	str	r3, [sp, #24]
10006fba:	9604      	str	r6, [sp, #16]
10006fbc:	2300      	movs	r3, #0
10006fbe:	9305      	str	r3, [sp, #20]
10006fc0:	9302      	str	r3, [sp, #8]
10006fc2:	6813      	ldr	r3, [r2, #0]
10006fc4:	6854      	ldr	r4, [r2, #4]
10006fc6:	9300      	str	r3, [sp, #0]
10006fc8:	9401      	str	r4, [sp, #4]
10006fca:	4643      	mov	r3, r8
10006fcc:	003a      	movs	r2, r7
10006fce:	4659      	mov	r1, fp
10006fd0:	0028      	movs	r0, r5
10006fd2:	f7ff fa2d 	bl	10006430 <_ntoa_long_long>
10006fd6:	0007      	movs	r7, r0
10006fd8:	e788      	b.n	10006eec <_vsnprintf+0x270>
10006fda:	9a1c      	ldr	r2, [sp, #112]	; 0x70
10006fdc:	1d11      	adds	r1, r2, #4
10006fde:	911c      	str	r1, [sp, #112]	; 0x70
10006fe0:	9405      	str	r4, [sp, #20]
10006fe2:	9b0a      	ldr	r3, [sp, #40]	; 0x28
10006fe4:	9304      	str	r3, [sp, #16]
10006fe6:	4653      	mov	r3, sl
10006fe8:	9303      	str	r3, [sp, #12]
10006fea:	9602      	str	r6, [sp, #8]
10006fec:	2300      	movs	r3, #0
10006fee:	9301      	str	r3, [sp, #4]
10006ff0:	6813      	ldr	r3, [r2, #0]
10006ff2:	9300      	str	r3, [sp, #0]
10006ff4:	4643      	mov	r3, r8
10006ff6:	003a      	movs	r2, r7
10006ff8:	4659      	mov	r1, fp
10006ffa:	0028      	movs	r0, r5
10006ffc:	f7ff f9ba 	bl	10006374 <_ntoa_long>
10007000:	0007      	movs	r7, r0
10007002:	e773      	b.n	10006eec <_vsnprintf+0x270>
10007004:	0623      	lsls	r3, r4, #24
10007006:	d50d      	bpl.n	10007024 <_vsnprintf+0x3a8>
10007008:	9a1c      	ldr	r2, [sp, #112]	; 0x70
1000700a:	1d11      	adds	r1, r2, #4
1000700c:	911c      	str	r1, [sp, #112]	; 0x70
1000700e:	6812      	ldr	r2, [r2, #0]
10007010:	0412      	lsls	r2, r2, #16
10007012:	0c12      	lsrs	r2, r2, #16
10007014:	e731      	b.n	10006e7a <_vsnprintf+0x1fe>
10007016:	46c0      	nop			; (mov r8, r8)
10007018:	1000cdd4 	.word	0x1000cdd4
1000701c:	1000ce18 	.word	0x1000ce18
10007020:	1000ce64 	.word	0x1000ce64
10007024:	9a1c      	ldr	r2, [sp, #112]	; 0x70
10007026:	1d11      	adds	r1, r2, #4
10007028:	911c      	str	r1, [sp, #112]	; 0x70
1000702a:	6812      	ldr	r2, [r2, #0]
1000702c:	e725      	b.n	10006e7a <_vsnprintf+0x1fe>
1000702e:	2846      	cmp	r0, #70	; 0x46
10007030:	d01a      	beq.n	10007068 <_vsnprintf+0x3ec>
10007032:	9b1c      	ldr	r3, [sp, #112]	; 0x70
10007034:	3307      	adds	r3, #7
10007036:	2207      	movs	r2, #7
10007038:	4393      	bics	r3, r2
1000703a:	001a      	movs	r2, r3
1000703c:	3208      	adds	r2, #8
1000703e:	921c      	str	r2, [sp, #112]	; 0x70
10007040:	9404      	str	r4, [sp, #16]
10007042:	9a0a      	ldr	r2, [sp, #40]	; 0x28
10007044:	9203      	str	r2, [sp, #12]
10007046:	4652      	mov	r2, sl
10007048:	9202      	str	r2, [sp, #8]
1000704a:	685c      	ldr	r4, [r3, #4]
1000704c:	681b      	ldr	r3, [r3, #0]
1000704e:	9300      	str	r3, [sp, #0]
10007050:	9401      	str	r4, [sp, #4]
10007052:	4643      	mov	r3, r8
10007054:	003a      	movs	r2, r7
10007056:	4659      	mov	r1, fp
10007058:	0028      	movs	r0, r5
1000705a:	f7ff fc65 	bl	10006928 <_ftoa>
1000705e:	0007      	movs	r7, r0
10007060:	9b11      	ldr	r3, [sp, #68]	; 0x44
10007062:	3301      	adds	r3, #1
10007064:	9311      	str	r3, [sp, #68]	; 0x44
10007066:	e619      	b.n	10006c9c <_vsnprintf+0x20>
10007068:	2320      	movs	r3, #32
1000706a:	431c      	orrs	r4, r3
1000706c:	e7e1      	b.n	10007032 <_vsnprintf+0x3b6>
1000706e:	2867      	cmp	r0, #103	; 0x67
10007070:	d001      	beq.n	10007076 <_vsnprintf+0x3fa>
10007072:	2847      	cmp	r0, #71	; 0x47
10007074:	d102      	bne.n	1000707c <_vsnprintf+0x400>
10007076:	2380      	movs	r3, #128	; 0x80
10007078:	011b      	lsls	r3, r3, #4
1000707a:	431c      	orrs	r4, r3
1000707c:	2845      	cmp	r0, #69	; 0x45
1000707e:	d001      	beq.n	10007084 <_vsnprintf+0x408>
10007080:	2847      	cmp	r0, #71	; 0x47
10007082:	d101      	bne.n	10007088 <_vsnprintf+0x40c>
10007084:	2320      	movs	r3, #32
10007086:	431c      	orrs	r4, r3
10007088:	9b1c      	ldr	r3, [sp, #112]	; 0x70
1000708a:	3307      	adds	r3, #7
1000708c:	2207      	movs	r2, #7
1000708e:	4393      	bics	r3, r2
10007090:	001a      	movs	r2, r3
10007092:	3208      	adds	r2, #8
10007094:	921c      	str	r2, [sp, #112]	; 0x70
10007096:	9404      	str	r4, [sp, #16]
10007098:	9a0a      	ldr	r2, [sp, #40]	; 0x28
1000709a:	9203      	str	r2, [sp, #12]
1000709c:	4652      	mov	r2, sl
1000709e:	9202      	str	r2, [sp, #8]
100070a0:	685c      	ldr	r4, [r3, #4]
100070a2:	681b      	ldr	r3, [r3, #0]
100070a4:	9300      	str	r3, [sp, #0]
100070a6:	9401      	str	r4, [sp, #4]
100070a8:	4643      	mov	r3, r8
100070aa:	003a      	movs	r2, r7
100070ac:	4659      	mov	r1, fp
100070ae:	0028      	movs	r0, r5
100070b0:	f7ff fa30 	bl	10006514 <_etoa>
100070b4:	0007      	movs	r7, r0
100070b6:	9b11      	ldr	r3, [sp, #68]	; 0x44
100070b8:	3301      	adds	r3, #1
100070ba:	9311      	str	r3, [sp, #68]	; 0x44
100070bc:	e5ee      	b.n	10006c9c <_vsnprintf+0x20>
100070be:	2302      	movs	r3, #2
100070c0:	001a      	movs	r2, r3
100070c2:	4022      	ands	r2, r4
100070c4:	4692      	mov	sl, r2
100070c6:	4223      	tst	r3, r4
100070c8:	d01f      	beq.n	1000710a <_vsnprintf+0x48e>
100070ca:	2401      	movs	r4, #1
100070cc:	9b1c      	ldr	r3, [sp, #112]	; 0x70
100070ce:	1d1a      	adds	r2, r3, #4
100070d0:	921c      	str	r2, [sp, #112]	; 0x70
100070d2:	1c7a      	adds	r2, r7, #1
100070d4:	4691      	mov	r9, r2
100070d6:	7818      	ldrb	r0, [r3, #0]
100070d8:	4643      	mov	r3, r8
100070da:	003a      	movs	r2, r7
100070dc:	4659      	mov	r1, fp
100070de:	47a8      	blx	r5
100070e0:	4653      	mov	r3, sl
100070e2:	2b00      	cmp	r3, #0
100070e4:	d116      	bne.n	10007114 <_vsnprintf+0x498>
100070e6:	9b11      	ldr	r3, [sp, #68]	; 0x44
100070e8:	3301      	adds	r3, #1
100070ea:	9311      	str	r3, [sp, #68]	; 0x44
100070ec:	464f      	mov	r7, r9
100070ee:	e5d5      	b.n	10006c9c <_vsnprintf+0x20>
100070f0:	1c56      	adds	r6, r2, #1
100070f2:	4643      	mov	r3, r8
100070f4:	4659      	mov	r1, fp
100070f6:	2020      	movs	r0, #32
100070f8:	47b8      	blx	r7
100070fa:	0023      	movs	r3, r4
100070fc:	0032      	movs	r2, r6
100070fe:	1c5c      	adds	r4, r3, #1
10007100:	429d      	cmp	r5, r3
10007102:	d8f5      	bhi.n	100070f0 <_vsnprintf+0x474>
10007104:	003d      	movs	r5, r7
10007106:	0017      	movs	r7, r2
10007108:	e7e0      	b.n	100070cc <_vsnprintf+0x450>
1000710a:	2301      	movs	r3, #1
1000710c:	003a      	movs	r2, r7
1000710e:	002f      	movs	r7, r5
10007110:	9d0a      	ldr	r5, [sp, #40]	; 0x28
10007112:	e7f4      	b.n	100070fe <_vsnprintf+0x482>
10007114:	464a      	mov	r2, r9
10007116:	46a9      	mov	r9, r5
10007118:	9d0a      	ldr	r5, [sp, #40]	; 0x28
1000711a:	e006      	b.n	1000712a <_vsnprintf+0x4ae>
1000711c:	1c57      	adds	r7, r2, #1
1000711e:	4643      	mov	r3, r8
10007120:	4659      	mov	r1, fp
10007122:	2020      	movs	r0, #32
10007124:	47c8      	blx	r9
10007126:	0034      	movs	r4, r6
10007128:	003a      	movs	r2, r7
1000712a:	1c66      	adds	r6, r4, #1
1000712c:	42a5      	cmp	r5, r4
1000712e:	d8f5      	bhi.n	1000711c <_vsnprintf+0x4a0>
10007130:	464d      	mov	r5, r9
10007132:	4691      	mov	r9, r2
10007134:	e7d7      	b.n	100070e6 <_vsnprintf+0x46a>
10007136:	9b1c      	ldr	r3, [sp, #112]	; 0x70
10007138:	1d1a      	adds	r2, r3, #4
1000713a:	921c      	str	r2, [sp, #112]	; 0x70
1000713c:	681b      	ldr	r3, [r3, #0]
1000713e:	4699      	mov	r9, r3
10007140:	4653      	mov	r3, sl
10007142:	2b00      	cmp	r3, #0
10007144:	d100      	bne.n	10007148 <_vsnprintf+0x4cc>
10007146:	3b01      	subs	r3, #1
10007148:	464e      	mov	r6, r9
1000714a:	e001      	b.n	10007150 <_vsnprintf+0x4d4>
1000714c:	3601      	adds	r6, #1
1000714e:	0013      	movs	r3, r2
10007150:	7832      	ldrb	r2, [r6, #0]
10007152:	2a00      	cmp	r2, #0
10007154:	d002      	beq.n	1000715c <_vsnprintf+0x4e0>
10007156:	1e5a      	subs	r2, r3, #1
10007158:	2b00      	cmp	r3, #0
1000715a:	d1f7      	bne.n	1000714c <_vsnprintf+0x4d0>
1000715c:	464b      	mov	r3, r9
1000715e:	1af2      	subs	r2, r6, r3
10007160:	9210      	str	r2, [sp, #64]	; 0x40
10007162:	2380      	movs	r3, #128	; 0x80
10007164:	00db      	lsls	r3, r3, #3
10007166:	0026      	movs	r6, r4
10007168:	401e      	ands	r6, r3
1000716a:	421c      	tst	r4, r3
1000716c:	d003      	beq.n	10007176 <_vsnprintf+0x4fa>
1000716e:	4552      	cmp	r2, sl
10007170:	d901      	bls.n	10007176 <_vsnprintf+0x4fa>
10007172:	4653      	mov	r3, sl
10007174:	9310      	str	r3, [sp, #64]	; 0x40
10007176:	2302      	movs	r3, #2
10007178:	001a      	movs	r2, r3
1000717a:	4022      	ands	r2, r4
1000717c:	920b      	str	r2, [sp, #44]	; 0x2c
1000717e:	4223      	tst	r3, r4
10007180:	d005      	beq.n	1000718e <_vsnprintf+0x512>
10007182:	003a      	movs	r2, r7
10007184:	0037      	movs	r7, r6
10007186:	464c      	mov	r4, r9
10007188:	46a9      	mov	r9, r5
1000718a:	4655      	mov	r5, sl
1000718c:	e020      	b.n	100071d0 <_vsnprintf+0x554>
1000718e:	003a      	movs	r2, r7
10007190:	9b10      	ldr	r3, [sp, #64]	; 0x40
10007192:	465f      	mov	r7, fp
10007194:	46b3      	mov	fp, r6
10007196:	002e      	movs	r6, r5
10007198:	e006      	b.n	100071a8 <_vsnprintf+0x52c>
1000719a:	1c55      	adds	r5, r2, #1
1000719c:	4643      	mov	r3, r8
1000719e:	0039      	movs	r1, r7
100071a0:	2020      	movs	r0, #32
100071a2:	47b0      	blx	r6
100071a4:	0023      	movs	r3, r4
100071a6:	002a      	movs	r2, r5
100071a8:	1c5c      	adds	r4, r3, #1
100071aa:	990a      	ldr	r1, [sp, #40]	; 0x28
100071ac:	4299      	cmp	r1, r3
100071ae:	d8f4      	bhi.n	1000719a <_vsnprintf+0x51e>
100071b0:	0035      	movs	r5, r6
100071b2:	465e      	mov	r6, fp
100071b4:	46bb      	mov	fp, r7
100071b6:	9410      	str	r4, [sp, #64]	; 0x40
100071b8:	0037      	movs	r7, r6
100071ba:	464c      	mov	r4, r9
100071bc:	46a9      	mov	r9, r5
100071be:	4655      	mov	r5, sl
100071c0:	e006      	b.n	100071d0 <_vsnprintf+0x554>
100071c2:	001d      	movs	r5, r3
100071c4:	3401      	adds	r4, #1
100071c6:	1c56      	adds	r6, r2, #1
100071c8:	4643      	mov	r3, r8
100071ca:	4659      	mov	r1, fp
100071cc:	47c8      	blx	r9
100071ce:	0032      	movs	r2, r6
100071d0:	7820      	ldrb	r0, [r4, #0]
100071d2:	2800      	cmp	r0, #0
100071d4:	d004      	beq.n	100071e0 <_vsnprintf+0x564>
100071d6:	2f00      	cmp	r7, #0
100071d8:	d0f4      	beq.n	100071c4 <_vsnprintf+0x548>
100071da:	1e6b      	subs	r3, r5, #1
100071dc:	2d00      	cmp	r5, #0
100071de:	d1f0      	bne.n	100071c2 <_vsnprintf+0x546>
100071e0:	0017      	movs	r7, r2
100071e2:	464d      	mov	r5, r9
100071e4:	9b0b      	ldr	r3, [sp, #44]	; 0x2c
100071e6:	2b00      	cmp	r3, #0
100071e8:	d103      	bne.n	100071f2 <_vsnprintf+0x576>
100071ea:	9b11      	ldr	r3, [sp, #68]	; 0x44
100071ec:	3301      	adds	r3, #1
100071ee:	9311      	str	r3, [sp, #68]	; 0x44
100071f0:	e554      	b.n	10006c9c <_vsnprintf+0x20>
100071f2:	9f0a      	ldr	r7, [sp, #40]	; 0x28
100071f4:	9b10      	ldr	r3, [sp, #64]	; 0x40
100071f6:	e006      	b.n	10007206 <_vsnprintf+0x58a>
100071f8:	1c56      	adds	r6, r2, #1
100071fa:	4643      	mov	r3, r8
100071fc:	4659      	mov	r1, fp
100071fe:	2020      	movs	r0, #32
10007200:	47a8      	blx	r5
10007202:	0023      	movs	r3, r4
10007204:	0032      	movs	r2, r6
10007206:	1c5c      	adds	r4, r3, #1
10007208:	429f      	cmp	r7, r3
1000720a:	d8f5      	bhi.n	100071f8 <_vsnprintf+0x57c>
1000720c:	0017      	movs	r7, r2
1000720e:	e7ec      	b.n	100071ea <_vsnprintf+0x56e>
10007210:	2321      	movs	r3, #33	; 0x21
10007212:	431c      	orrs	r4, r3
10007214:	9b1c      	ldr	r3, [sp, #112]	; 0x70
10007216:	1d1a      	adds	r2, r3, #4
10007218:	921c      	str	r2, [sp, #112]	; 0x70
1000721a:	681b      	ldr	r3, [r3, #0]
1000721c:	9300      	str	r3, [sp, #0]
1000721e:	9405      	str	r4, [sp, #20]
10007220:	2308      	movs	r3, #8
10007222:	9304      	str	r3, [sp, #16]
10007224:	4653      	mov	r3, sl
10007226:	9303      	str	r3, [sp, #12]
10007228:	2310      	movs	r3, #16
1000722a:	9302      	str	r3, [sp, #8]
1000722c:	2300      	movs	r3, #0
1000722e:	9301      	str	r3, [sp, #4]
10007230:	4643      	mov	r3, r8
10007232:	003a      	movs	r2, r7
10007234:	4659      	mov	r1, fp
10007236:	0028      	movs	r0, r5
10007238:	f7ff f89c 	bl	10006374 <_ntoa_long>
1000723c:	0007      	movs	r7, r0
1000723e:	9b11      	ldr	r3, [sp, #68]	; 0x44
10007240:	3301      	adds	r3, #1
10007242:	9311      	str	r3, [sp, #68]	; 0x44
10007244:	e52a      	b.n	10006c9c <_vsnprintf+0x20>
10007246:	1c7c      	adds	r4, r7, #1
10007248:	4643      	mov	r3, r8
1000724a:	003a      	movs	r2, r7
1000724c:	4659      	mov	r1, fp
1000724e:	2025      	movs	r0, #37	; 0x25
10007250:	47a8      	blx	r5
10007252:	9b11      	ldr	r3, [sp, #68]	; 0x44
10007254:	3301      	adds	r3, #1
10007256:	9311      	str	r3, [sp, #68]	; 0x44
10007258:	0027      	movs	r7, r4
1000725a:	e51f      	b.n	10006c9c <_vsnprintf+0x20>
1000725c:	1c7c      	adds	r4, r7, #1
1000725e:	4643      	mov	r3, r8
10007260:	003a      	movs	r2, r7
10007262:	4659      	mov	r1, fp
10007264:	47a8      	blx	r5
10007266:	9b11      	ldr	r3, [sp, #68]	; 0x44
10007268:	3301      	adds	r3, #1
1000726a:	9311      	str	r3, [sp, #68]	; 0x44
1000726c:	0027      	movs	r7, r4
1000726e:	e515      	b.n	10006c9c <_vsnprintf+0x20>
10007270:	4b0a      	ldr	r3, [pc, #40]	; (1000729c <_vsnprintf+0x620>)
10007272:	469a      	mov	sl, r3
10007274:	e510      	b.n	10006c98 <_vsnprintf+0x1c>
10007276:	46aa      	mov	sl, r5
10007278:	4547      	cmp	r7, r8
1000727a:	d302      	bcc.n	10007282 <_vsnprintf+0x606>
1000727c:	4643      	mov	r3, r8
1000727e:	1e5a      	subs	r2, r3, #1
10007280:	e000      	b.n	10007284 <_vsnprintf+0x608>
10007282:	003a      	movs	r2, r7
10007284:	4643      	mov	r3, r8
10007286:	4659      	mov	r1, fp
10007288:	2000      	movs	r0, #0
1000728a:	47d0      	blx	sl
1000728c:	0038      	movs	r0, r7
1000728e:	b013      	add	sp, #76	; 0x4c
10007290:	bcf0      	pop	{r4, r5, r6, r7}
10007292:	46bb      	mov	fp, r7
10007294:	46b2      	mov	sl, r6
10007296:	46a9      	mov	r9, r5
10007298:	46a0      	mov	r8, r4
1000729a:	bdf0      	pop	{r4, r5, r6, r7, pc}
1000729c:	10006181 	.word	0x10006181

100072a0 <vfctprintf>:
100072a0:	b500      	push	{lr}
100072a2:	b085      	sub	sp, #20
100072a4:	9002      	str	r0, [sp, #8]
100072a6:	9103      	str	r1, [sp, #12]
100072a8:	2101      	movs	r1, #1
100072aa:	9300      	str	r3, [sp, #0]
100072ac:	0013      	movs	r3, r2
100072ae:	424a      	negs	r2, r1
100072b0:	a902      	add	r1, sp, #8
100072b2:	4802      	ldr	r0, [pc, #8]	; (100072bc <vfctprintf+0x1c>)
100072b4:	f7ff fce2 	bl	10006c7c <_vsnprintf>
100072b8:	b005      	add	sp, #20
100072ba:	bd00      	pop	{pc}
100072bc:	10006183 	.word	0x10006183

100072c0 <_exit>:
100072c0:	be00      	bkpt	0x0000
100072c2:	e7fd      	b.n	100072c0 <_exit>

100072c4 <_sbrk>:
100072c4:	0003      	movs	r3, r0
100072c6:	4a0a      	ldr	r2, [pc, #40]	; (100072f0 <_sbrk+0x2c>)
100072c8:	6812      	ldr	r2, [r2, #0]
100072ca:	2a00      	cmp	r2, #0
100072cc:	d008      	beq.n	100072e0 <_sbrk+0x1c>
100072ce:	4a08      	ldr	r2, [pc, #32]	; (100072f0 <_sbrk+0x2c>)
100072d0:	6810      	ldr	r0, [r2, #0]
100072d2:	18c3      	adds	r3, r0, r3
100072d4:	4a07      	ldr	r2, [pc, #28]	; (100072f4 <_sbrk+0x30>)
100072d6:	429a      	cmp	r2, r3
100072d8:	d306      	bcc.n	100072e8 <_sbrk+0x24>
100072da:	4a05      	ldr	r2, [pc, #20]	; (100072f0 <_sbrk+0x2c>)
100072dc:	6013      	str	r3, [r2, #0]
100072de:	4770      	bx	lr
100072e0:	4a03      	ldr	r2, [pc, #12]	; (100072f0 <_sbrk+0x2c>)
100072e2:	4905      	ldr	r1, [pc, #20]	; (100072f8 <_sbrk+0x34>)
100072e4:	6011      	str	r1, [r2, #0]
100072e6:	e7f2      	b.n	100072ce <_sbrk+0xa>
100072e8:	2001      	movs	r0, #1
100072ea:	4240      	negs	r0, r0
100072ec:	e7f7      	b.n	100072de <_sbrk+0x1a>
100072ee:	46c0      	nop			; (mov r8, r8)
100072f0:	20002a00 	.word	0x20002a00
100072f4:	20040000 	.word	0x20040000
100072f8:	20002c70 	.word	0x20002c70

100072fc <_read>:
100072fc:	b510      	push	{r4, lr}
100072fe:	0003      	movs	r3, r0
10007300:	0008      	movs	r0, r1
10007302:	0011      	movs	r1, r2
10007304:	2b00      	cmp	r3, #0
10007306:	d105      	bne.n	10007314 <_read+0x18>
10007308:	4b04      	ldr	r3, [pc, #16]	; (1000731c <_read+0x20>)
1000730a:	681a      	ldr	r2, [r3, #0]
1000730c:	685b      	ldr	r3, [r3, #4]
1000730e:	f000 f941 	bl	10007594 <stdio_get_until>
10007312:	bd10      	pop	{r4, pc}
10007314:	2001      	movs	r0, #1
10007316:	4240      	negs	r0, r0
10007318:	e7fb      	b.n	10007312 <_read+0x16>
1000731a:	46c0      	nop			; (mov r8, r8)
1000731c:	1000ca90 	.word	0x1000ca90

10007320 <_write>:
10007320:	b510      	push	{r4, lr}
10007322:	0003      	movs	r3, r0
10007324:	0008      	movs	r0, r1
10007326:	0014      	movs	r4, r2
10007328:	3b01      	subs	r3, #1
1000732a:	2b01      	cmp	r3, #1
1000732c:	d806      	bhi.n	1000733c <_write+0x1c>
1000732e:	2301      	movs	r3, #1
10007330:	2200      	movs	r2, #0
10007332:	0021      	movs	r1, r4
10007334:	f000 f8e4 	bl	10007500 <stdio_put_string>
10007338:	0020      	movs	r0, r4
1000733a:	bd10      	pop	{r4, pc}
1000733c:	2001      	movs	r0, #1
1000733e:	4240      	negs	r0, r0
10007340:	e7fb      	b.n	1000733a <_write+0x1a>

10007342 <_close>:
10007342:	2001      	movs	r0, #1
10007344:	4240      	negs	r0, r0
10007346:	4770      	bx	lr

10007348 <_lseek>:
10007348:	2001      	movs	r0, #1
1000734a:	4240      	negs	r0, r0
1000734c:	4770      	bx	lr

1000734e <_fstat>:
1000734e:	2001      	movs	r0, #1
10007350:	4240      	negs	r0, r0
10007352:	4770      	bx	lr

10007354 <_isatty>:
10007354:	0003      	movs	r3, r0
10007356:	2000      	movs	r0, #0
10007358:	2202      	movs	r2, #2
1000735a:	429a      	cmp	r2, r3
1000735c:	4140      	adcs	r0, r0
1000735e:	4770      	bx	lr

10007360 <exit>:
10007360:	b510      	push	{r4, lr}
10007362:	f7ff ffad 	bl	100072c0 <_exit>
	...

10007368 <__assert_func>:
10007368:	b510      	push	{r4, lr}
1000736a:	b082      	sub	sp, #8
1000736c:	000c      	movs	r4, r1
1000736e:	0019      	movs	r1, r3
10007370:	2a00      	cmp	r2, #0
10007372:	d00c      	beq.n	1000738e <__assert_func+0x26>
10007374:	4b08      	ldr	r3, [pc, #32]	; (10007398 <__assert_func+0x30>)
10007376:	2a00      	cmp	r2, #0
10007378:	d00b      	beq.n	10007392 <__assert_func+0x2a>
1000737a:	9201      	str	r2, [sp, #4]
1000737c:	9300      	str	r3, [sp, #0]
1000737e:	0023      	movs	r3, r4
10007380:	0002      	movs	r2, r0
10007382:	4806      	ldr	r0, [pc, #24]	; (1000739c <__assert_func+0x34>)
10007384:	f000 f9d8 	bl	10007738 <__wrap_printf>
10007388:	2001      	movs	r0, #1
1000738a:	f7ff ff99 	bl	100072c0 <_exit>
1000738e:	4b04      	ldr	r3, [pc, #16]	; (100073a0 <__assert_func+0x38>)
10007390:	e7f1      	b.n	10007376 <__assert_func+0xe>
10007392:	4a03      	ldr	r2, [pc, #12]	; (100073a0 <__assert_func+0x38>)
10007394:	e7f1      	b.n	1000737a <__assert_func+0x12>
10007396:	46c0      	nop			; (mov r8, r8)
10007398:	1000d008 	.word	0x1000d008
1000739c:	1000d018 	.word	0x1000d018
100073a0:	1000bf1c 	.word	0x1000bf1c

100073a4 <runtime_init>:
100073a4:	b510      	push	{r4, lr}
100073a6:	f3ef 8305 	mrs	r3, IPSR
100073aa:	2b00      	cmp	r3, #0
100073ac:	d000      	beq.n	100073b0 <runtime_init+0xc>
100073ae:	be00      	bkpt	0x0000
100073b0:	f7fd fea6 	bl	10005100 <runtime_run_initializers>
100073b4:	4c03      	ldr	r4, [pc, #12]	; (100073c4 <runtime_init+0x20>)
100073b6:	e001      	b.n	100073bc <runtime_init+0x18>
100073b8:	cc08      	ldmia	r4!, {r3}
100073ba:	4798      	blx	r3
100073bc:	4b02      	ldr	r3, [pc, #8]	; (100073c8 <runtime_init+0x24>)
100073be:	429c      	cmp	r4, r3
100073c0:	d3fa      	bcc.n	100073b8 <runtime_init+0x14>
100073c2:	bd10      	pop	{r4, pc}
100073c4:	1000bb3c 	.word	0x1000bb3c
100073c8:	1000bb44 	.word	0x1000bb44

100073cc <stdio_out_chars_no_crlf>:
100073cc:	b510      	push	{r4, lr}
100073ce:	0003      	movs	r3, r0
100073d0:	0008      	movs	r0, r1
100073d2:	0011      	movs	r1, r2
100073d4:	681b      	ldr	r3, [r3, #0]
100073d6:	4798      	blx	r3
100073d8:	bd10      	pop	{r4, pc}
	...

100073dc <stdio_out_chars_crlf>:
100073dc:	b5f8      	push	{r3, r4, r5, r6, r7, lr}
100073de:	0007      	movs	r7, r0
100073e0:	000d      	movs	r5, r1
100073e2:	0016      	movs	r6, r2
100073e4:	7d43      	ldrb	r3, [r0, #21]
100073e6:	2b00      	cmp	r3, #0
100073e8:	d002      	beq.n	100073f0 <stdio_out_chars_crlf+0x14>
100073ea:	2400      	movs	r4, #0
100073ec:	2000      	movs	r0, #0
100073ee:	e00c      	b.n	1000740a <stdio_out_chars_crlf+0x2e>
100073f0:	6803      	ldr	r3, [r0, #0]
100073f2:	0011      	movs	r1, r2
100073f4:	0028      	movs	r0, r5
100073f6:	4798      	blx	r3
100073f8:	e02d      	b.n	10007456 <stdio_out_chars_crlf+0x7a>
100073fa:	7d3b      	ldrb	r3, [r7, #20]
100073fc:	e010      	b.n	10007420 <stdio_out_chars_crlf+0x44>
100073fe:	2102      	movs	r1, #2
10007400:	4815      	ldr	r0, [pc, #84]	; (10007458 <stdio_out_chars_crlf+0x7c>)
10007402:	683b      	ldr	r3, [r7, #0]
10007404:	4798      	blx	r3
10007406:	1c60      	adds	r0, r4, #1
10007408:	3401      	adds	r4, #1
1000740a:	42b4      	cmp	r4, r6
1000740c:	da14      	bge.n	10007438 <stdio_out_chars_crlf+0x5c>
1000740e:	2c00      	cmp	r4, #0
10007410:	ddf3      	ble.n	100073fa <stdio_out_chars_crlf+0x1e>
10007412:	192b      	adds	r3, r5, r4
10007414:	3b01      	subs	r3, #1
10007416:	781b      	ldrb	r3, [r3, #0]
10007418:	3b0d      	subs	r3, #13
1000741a:	425a      	negs	r2, r3
1000741c:	4153      	adcs	r3, r2
1000741e:	b2db      	uxtb	r3, r3
10007420:	5d2a      	ldrb	r2, [r5, r4]
10007422:	2a0a      	cmp	r2, #10
10007424:	d1f0      	bne.n	10007408 <stdio_out_chars_crlf+0x2c>
10007426:	2b00      	cmp	r3, #0
10007428:	d1ee      	bne.n	10007408 <stdio_out_chars_crlf+0x2c>
1000742a:	42a0      	cmp	r0, r4
1000742c:	dae7      	bge.n	100073fe <stdio_out_chars_crlf+0x22>
1000742e:	1a21      	subs	r1, r4, r0
10007430:	1828      	adds	r0, r5, r0
10007432:	683b      	ldr	r3, [r7, #0]
10007434:	4798      	blx	r3
10007436:	e7e2      	b.n	100073fe <stdio_out_chars_crlf+0x22>
10007438:	42b0      	cmp	r0, r6
1000743a:	da03      	bge.n	10007444 <stdio_out_chars_crlf+0x68>
1000743c:	1a31      	subs	r1, r6, r0
1000743e:	1828      	adds	r0, r5, r0
10007440:	683b      	ldr	r3, [r7, #0]
10007442:	4798      	blx	r3
10007444:	2e00      	cmp	r6, #0
10007446:	dd06      	ble.n	10007456 <stdio_out_chars_crlf+0x7a>
10007448:	19ad      	adds	r5, r5, r6
1000744a:	3d01      	subs	r5, #1
1000744c:	782b      	ldrb	r3, [r5, #0]
1000744e:	3b0d      	subs	r3, #13
10007450:	425a      	negs	r2, r3
10007452:	4153      	adcs	r3, r2
10007454:	753b      	strb	r3, [r7, #20]
10007456:	bdf8      	pop	{r3, r4, r5, r6, r7, pc}
10007458:	1000d0a8 	.word	0x1000d0a8

1000745c <stdio_stack_buffer_flush>:
1000745c:	b570      	push	{r4, r5, r6, lr}
1000745e:	0005      	movs	r5, r0
10007460:	6803      	ldr	r3, [r0, #0]
10007462:	2b00      	cmp	r3, #0
10007464:	d016      	beq.n	10007494 <stdio_stack_buffer_flush+0x38>
10007466:	4b0c      	ldr	r3, [pc, #48]	; (10007498 <stdio_stack_buffer_flush+0x3c>)
10007468:	681c      	ldr	r4, [r3, #0]
1000746a:	e005      	b.n	10007478 <stdio_stack_buffer_flush+0x1c>
1000746c:	0029      	movs	r1, r5
1000746e:	c904      	ldmia	r1!, {r2}
10007470:	0020      	movs	r0, r4
10007472:	f7ff ffb3 	bl	100073dc <stdio_out_chars_crlf>
10007476:	6924      	ldr	r4, [r4, #16]
10007478:	2c00      	cmp	r4, #0
1000747a:	d009      	beq.n	10007490 <stdio_stack_buffer_flush+0x34>
1000747c:	6823      	ldr	r3, [r4, #0]
1000747e:	2b00      	cmp	r3, #0
10007480:	d0f9      	beq.n	10007476 <stdio_stack_buffer_flush+0x1a>
10007482:	4b06      	ldr	r3, [pc, #24]	; (1000749c <stdio_stack_buffer_flush+0x40>)
10007484:	681b      	ldr	r3, [r3, #0]
10007486:	2b00      	cmp	r3, #0
10007488:	d0f0      	beq.n	1000746c <stdio_stack_buffer_flush+0x10>
1000748a:	42a3      	cmp	r3, r4
1000748c:	d1f3      	bne.n	10007476 <stdio_stack_buffer_flush+0x1a>
1000748e:	e7ed      	b.n	1000746c <stdio_stack_buffer_flush+0x10>
10007490:	2300      	movs	r3, #0
10007492:	602b      	str	r3, [r5, #0]
10007494:	bd70      	pop	{r4, r5, r6, pc}
10007496:	46c0      	nop			; (mov r8, r8)
10007498:	20001f14 	.word	0x20001f14
1000749c:	200029fc 	.word	0x200029fc

100074a0 <stdio_buffered_printer>:
100074a0:	b570      	push	{r4, r5, r6, lr}
100074a2:	0005      	movs	r5, r0
100074a4:	000c      	movs	r4, r1
100074a6:	680b      	ldr	r3, [r1, #0]
100074a8:	2b80      	cmp	r3, #128	; 0x80
100074aa:	d005      	beq.n	100074b8 <stdio_buffered_printer+0x18>
100074ac:	6821      	ldr	r1, [r4, #0]
100074ae:	1c4b      	adds	r3, r1, #1
100074b0:	6023      	str	r3, [r4, #0]
100074b2:	1864      	adds	r4, r4, r1
100074b4:	7125      	strb	r5, [r4, #4]
100074b6:	bd70      	pop	{r4, r5, r6, pc}
100074b8:	0008      	movs	r0, r1
100074ba:	f7ff ffcf 	bl	1000745c <stdio_stack_buffer_flush>
100074be:	e7f5      	b.n	100074ac <stdio_buffered_printer+0xc>

100074c0 <stdout_serialize_begin>:
100074c0:	b510      	push	{r4, lr}
100074c2:	f7fd fc09 	bl	10004cd8 <time_us_64>
100074c6:	4a07      	ldr	r2, [pc, #28]	; (100074e4 <stdout_serialize_begin+0x24>)
100074c8:	2300      	movs	r3, #0
100074ca:	1812      	adds	r2, r2, r0
100074cc:	414b      	adcs	r3, r1
100074ce:	2b00      	cmp	r3, #0
100074d0:	db03      	blt.n	100074da <stdout_serialize_begin+0x1a>
100074d2:	4805      	ldr	r0, [pc, #20]	; (100074e8 <stdout_serialize_begin+0x28>)
100074d4:	f004 faf4 	bl	1000bac0 <__mutex_try_enter_block_until_veneer>
100074d8:	bd10      	pop	{r4, pc}
100074da:	2201      	movs	r2, #1
100074dc:	4252      	negs	r2, r2
100074de:	4b03      	ldr	r3, [pc, #12]	; (100074ec <stdout_serialize_begin+0x2c>)
100074e0:	e7f7      	b.n	100074d2 <stdout_serialize_begin+0x12>
100074e2:	46c0      	nop			; (mov r8, r8)
100074e4:	000f4240 	.word	0x000f4240
100074e8:	20001268 	.word	0x20001268
100074ec:	7fffffff 	.word	0x7fffffff

100074f0 <stdout_serialize_end>:
100074f0:	b510      	push	{r4, lr}
100074f2:	4802      	ldr	r0, [pc, #8]	; (100074fc <stdout_serialize_end+0xc>)
100074f4:	f004 fab4 	bl	1000ba60 <__mutex_exit_veneer>
100074f8:	bd10      	pop	{r4, pc}
100074fa:	46c0      	nop			; (mov r8, r8)
100074fc:	20001268 	.word	0x20001268

10007500 <stdio_put_string>:
10007500:	b5f0      	push	{r4, r5, r6, r7, lr}
10007502:	46ce      	mov	lr, r9
10007504:	4647      	mov	r7, r8
10007506:	b580      	push	{r7, lr}
10007508:	b083      	sub	sp, #12
1000750a:	0006      	movs	r6, r0
1000750c:	000d      	movs	r5, r1
1000750e:	4690      	mov	r8, r2
10007510:	001c      	movs	r4, r3
10007512:	f7ff ffd5 	bl	100074c0 <stdout_serialize_begin>
10007516:	4681      	mov	r9, r0
10007518:	1c6b      	adds	r3, r5, #1
1000751a:	d005      	beq.n	10007528 <stdio_put_string+0x28>
1000751c:	2c00      	cmp	r4, #0
1000751e:	d008      	beq.n	10007532 <stdio_put_string+0x32>
10007520:	4f18      	ldr	r7, [pc, #96]	; (10007584 <stdio_put_string+0x84>)
10007522:	4b19      	ldr	r3, [pc, #100]	; (10007588 <stdio_put_string+0x88>)
10007524:	681c      	ldr	r4, [r3, #0]
10007526:	e007      	b.n	10007538 <stdio_put_string+0x38>
10007528:	0030      	movs	r0, r6
1000752a:	f003 fd0b 	bl	1000af44 <strlen>
1000752e:	0005      	movs	r5, r0
10007530:	e7f4      	b.n	1000751c <stdio_put_string+0x1c>
10007532:	4f16      	ldr	r7, [pc, #88]	; (1000758c <stdio_put_string+0x8c>)
10007534:	e7f5      	b.n	10007522 <stdio_put_string+0x22>
10007536:	6924      	ldr	r4, [r4, #16]
10007538:	2c00      	cmp	r4, #0
1000753a:	d017      	beq.n	1000756c <stdio_put_string+0x6c>
1000753c:	6823      	ldr	r3, [r4, #0]
1000753e:	2b00      	cmp	r3, #0
10007540:	d0f9      	beq.n	10007536 <stdio_put_string+0x36>
10007542:	4b13      	ldr	r3, [pc, #76]	; (10007590 <stdio_put_string+0x90>)
10007544:	681b      	ldr	r3, [r3, #0]
10007546:	2b00      	cmp	r3, #0
10007548:	d001      	beq.n	1000754e <stdio_put_string+0x4e>
1000754a:	42a3      	cmp	r3, r4
1000754c:	d1f3      	bne.n	10007536 <stdio_put_string+0x36>
1000754e:	002a      	movs	r2, r5
10007550:	0031      	movs	r1, r6
10007552:	0020      	movs	r0, r4
10007554:	47b8      	blx	r7
10007556:	4643      	mov	r3, r8
10007558:	2b00      	cmp	r3, #0
1000755a:	d0ec      	beq.n	10007536 <stdio_put_string+0x36>
1000755c:	466b      	mov	r3, sp
1000755e:	1dd9      	adds	r1, r3, #7
10007560:	230a      	movs	r3, #10
10007562:	700b      	strb	r3, [r1, #0]
10007564:	2201      	movs	r2, #1
10007566:	0020      	movs	r0, r4
10007568:	47b8      	blx	r7
1000756a:	e7e4      	b.n	10007536 <stdio_put_string+0x36>
1000756c:	464b      	mov	r3, r9
1000756e:	2b00      	cmp	r3, #0
10007570:	d105      	bne.n	1000757e <stdio_put_string+0x7e>
10007572:	0028      	movs	r0, r5
10007574:	b003      	add	sp, #12
10007576:	bcc0      	pop	{r6, r7}
10007578:	46b9      	mov	r9, r7
1000757a:	46b0      	mov	r8, r6
1000757c:	bdf0      	pop	{r4, r5, r6, r7, pc}
1000757e:	f7ff ffb7 	bl	100074f0 <stdout_serialize_end>
10007582:	e7f6      	b.n	10007572 <stdio_put_string+0x72>
10007584:	100073dd 	.word	0x100073dd
10007588:	20001f14 	.word	0x20001f14
1000758c:	100073cd 	.word	0x100073cd
10007590:	200029fc 	.word	0x200029fc

10007594 <stdio_get_until>:
10007594:	b5f0      	push	{r4, r5, r6, r7, lr}
10007596:	46ce      	mov	lr, r9
10007598:	b500      	push	{lr}
1000759a:	b082      	sub	sp, #8
1000759c:	0006      	movs	r6, r0
1000759e:	000f      	movs	r7, r1
100075a0:	4691      	mov	r9, r2
100075a2:	9301      	str	r3, [sp, #4]
100075a4:	e028      	b.n	100075f8 <stdio_get_until+0x64>
100075a6:	68a3      	ldr	r3, [r4, #8]
100075a8:	2b00      	cmp	r3, #0
100075aa:	d004      	beq.n	100075b6 <stdio_get_until+0x22>
100075ac:	0039      	movs	r1, r7
100075ae:	0030      	movs	r0, r6
100075b0:	4798      	blx	r3
100075b2:	2800      	cmp	r0, #0
100075b4:	dc27      	bgt.n	10007606 <stdio_get_until+0x72>
100075b6:	6924      	ldr	r4, [r4, #16]
100075b8:	2c00      	cmp	r4, #0
100075ba:	d006      	beq.n	100075ca <stdio_get_until+0x36>
100075bc:	4d14      	ldr	r5, [pc, #80]	; (10007610 <stdio_get_until+0x7c>)
100075be:	682d      	ldr	r5, [r5, #0]
100075c0:	2d00      	cmp	r5, #0
100075c2:	d0f0      	beq.n	100075a6 <stdio_get_until+0x12>
100075c4:	42a5      	cmp	r5, r4
100075c6:	d1f6      	bne.n	100075b6 <stdio_get_until+0x22>
100075c8:	e7ed      	b.n	100075a6 <stdio_get_until+0x12>
100075ca:	9901      	ldr	r1, [sp, #4]
100075cc:	000a      	movs	r2, r1
100075ce:	4b11      	ldr	r3, [pc, #68]	; (10007614 <stdio_get_until+0x80>)
100075d0:	6a5b      	ldr	r3, [r3, #36]	; 0x24
100075d2:	4299      	cmp	r1, r3
100075d4:	d809      	bhi.n	100075ea <stdio_get_until+0x56>
100075d6:	490f      	ldr	r1, [pc, #60]	; (10007614 <stdio_get_until+0x80>)
100075d8:	6a89      	ldr	r1, [r1, #40]	; 0x28
100075da:	4549      	cmp	r1, r9
100075dc:	d20f      	bcs.n	100075fe <stdio_get_until+0x6a>
100075de:	429a      	cmp	r2, r3
100075e0:	d001      	beq.n	100075e6 <stdio_get_until+0x52>
100075e2:	2301      	movs	r3, #1
100075e4:	e002      	b.n	100075ec <stdio_get_until+0x58>
100075e6:	2300      	movs	r3, #0
100075e8:	e000      	b.n	100075ec <stdio_get_until+0x58>
100075ea:	2300      	movs	r3, #0
100075ec:	2b00      	cmp	r3, #0
100075ee:	d108      	bne.n	10007602 <stdio_get_until+0x6e>
100075f0:	2001      	movs	r0, #1
100075f2:	2100      	movs	r1, #0
100075f4:	f7fd fb78 	bl	10004ce8 <busy_wait_us>
100075f8:	4b07      	ldr	r3, [pc, #28]	; (10007618 <stdio_get_until+0x84>)
100075fa:	681c      	ldr	r4, [r3, #0]
100075fc:	e7dc      	b.n	100075b8 <stdio_get_until+0x24>
100075fe:	2301      	movs	r3, #1
10007600:	e7f4      	b.n	100075ec <stdio_get_until+0x58>
10007602:	2002      	movs	r0, #2
10007604:	4240      	negs	r0, r0
10007606:	b002      	add	sp, #8
10007608:	bc80      	pop	{r7}
1000760a:	46b9      	mov	r9, r7
1000760c:	bdf0      	pop	{r4, r5, r6, r7, pc}
1000760e:	46c0      	nop			; (mov r8, r8)
10007610:	200029fc 	.word	0x200029fc
10007614:	40054000 	.word	0x40054000
10007618:	20001f14 	.word	0x20001f14

1000761c <stdio_set_driver_enabled>:
1000761c:	4a09      	ldr	r2, [pc, #36]	; (10007644 <stdio_set_driver_enabled+0x28>)
1000761e:	e001      	b.n	10007624 <stdio_set_driver_enabled+0x8>
10007620:	3310      	adds	r3, #16
10007622:	001a      	movs	r2, r3
10007624:	6813      	ldr	r3, [r2, #0]
10007626:	2b00      	cmp	r3, #0
10007628:	d008      	beq.n	1000763c <stdio_set_driver_enabled+0x20>
1000762a:	4283      	cmp	r3, r0
1000762c:	d1f8      	bne.n	10007620 <stdio_set_driver_enabled+0x4>
1000762e:	2900      	cmp	r1, #0
10007630:	d107      	bne.n	10007642 <stdio_set_driver_enabled+0x26>
10007632:	6903      	ldr	r3, [r0, #16]
10007634:	6013      	str	r3, [r2, #0]
10007636:	2300      	movs	r3, #0
10007638:	6103      	str	r3, [r0, #16]
1000763a:	e002      	b.n	10007642 <stdio_set_driver_enabled+0x26>
1000763c:	2900      	cmp	r1, #0
1000763e:	d000      	beq.n	10007642 <stdio_set_driver_enabled+0x26>
10007640:	6010      	str	r0, [r2, #0]
10007642:	4770      	bx	lr
10007644:	20001f14 	.word	0x20001f14

10007648 <stdio_flush>:
10007648:	b510      	push	{r4, lr}
1000764a:	4b06      	ldr	r3, [pc, #24]	; (10007664 <stdio_flush+0x1c>)
1000764c:	681c      	ldr	r4, [r3, #0]
1000764e:	e001      	b.n	10007654 <stdio_flush+0xc>
10007650:	4798      	blx	r3
10007652:	6924      	ldr	r4, [r4, #16]
10007654:	2c00      	cmp	r4, #0
10007656:	d003      	beq.n	10007660 <stdio_flush+0x18>
10007658:	6863      	ldr	r3, [r4, #4]
1000765a:	2b00      	cmp	r3, #0
1000765c:	d1f8      	bne.n	10007650 <stdio_flush+0x8>
1000765e:	e7f8      	b.n	10007652 <stdio_flush+0xa>
10007660:	bd10      	pop	{r4, pc}
10007662:	46c0      	nop			; (mov r8, r8)
10007664:	20001f14 	.word	0x20001f14

10007668 <stdio_getchar_timeout_us>:
10007668:	b530      	push	{r4, r5, lr}
1000766a:	b083      	sub	sp, #12
1000766c:	0004      	movs	r4, r0
1000766e:	2500      	movs	r5, #0
10007670:	f7fd fb32 	bl	10004cd8 <time_us_64>
10007674:	0022      	movs	r2, r4
10007676:	002b      	movs	r3, r5
10007678:	1812      	adds	r2, r2, r0
1000767a:	414b      	adcs	r3, r1
1000767c:	2b00      	cmp	r3, #0
1000767e:	db0a      	blt.n	10007696 <stdio_getchar_timeout_us+0x2e>
10007680:	2101      	movs	r1, #1
10007682:	a801      	add	r0, sp, #4
10007684:	f7ff ff86 	bl	10007594 <stdio_get_until>
10007688:	2800      	cmp	r0, #0
1000768a:	db02      	blt.n	10007692 <stdio_getchar_timeout_us+0x2a>
1000768c:	d007      	beq.n	1000769e <stdio_getchar_timeout_us+0x36>
1000768e:	ab01      	add	r3, sp, #4
10007690:	7818      	ldrb	r0, [r3, #0]
10007692:	b003      	add	sp, #12
10007694:	bd30      	pop	{r4, r5, pc}
10007696:	2201      	movs	r2, #1
10007698:	4252      	negs	r2, r2
1000769a:	4b04      	ldr	r3, [pc, #16]	; (100076ac <stdio_getchar_timeout_us+0x44>)
1000769c:	e7f0      	b.n	10007680 <stdio_getchar_timeout_us+0x18>
1000769e:	2104      	movs	r1, #4
100076a0:	4b03      	ldr	r3, [pc, #12]	; (100076b0 <stdio_getchar_timeout_us+0x48>)
100076a2:	4a04      	ldr	r2, [pc, #16]	; (100076b4 <stdio_getchar_timeout_us+0x4c>)
100076a4:	31ff      	adds	r1, #255	; 0xff
100076a6:	4804      	ldr	r0, [pc, #16]	; (100076b8 <stdio_getchar_timeout_us+0x50>)
100076a8:	f7ff fe5e 	bl	10007368 <__assert_func>
100076ac:	7fffffff 	.word	0x7fffffff
100076b0:	1000d048 	.word	0x1000d048
100076b4:	1000d08c 	.word	0x1000d08c
100076b8:	1000d04c 	.word	0x1000d04c

100076bc <__wrap_putchar>:
100076bc:	b510      	push	{r4, lr}
100076be:	b082      	sub	sp, #8
100076c0:	0004      	movs	r4, r0
100076c2:	466b      	mov	r3, sp
100076c4:	1dd8      	adds	r0, r3, #7
100076c6:	7004      	strb	r4, [r0, #0]
100076c8:	2301      	movs	r3, #1
100076ca:	2200      	movs	r2, #0
100076cc:	2101      	movs	r1, #1
100076ce:	f7ff ff17 	bl	10007500 <stdio_put_string>
100076d2:	0020      	movs	r0, r4
100076d4:	b002      	add	sp, #8
100076d6:	bd10      	pop	{r4, pc}

100076d8 <__wrap_puts>:
100076d8:	b570      	push	{r4, r5, r6, lr}
100076da:	0005      	movs	r5, r0
100076dc:	f003 fc32 	bl	1000af44 <strlen>
100076e0:	0004      	movs	r4, r0
100076e2:	2301      	movs	r3, #1
100076e4:	2201      	movs	r2, #1
100076e6:	0001      	movs	r1, r0
100076e8:	0028      	movs	r0, r5
100076ea:	f7ff ff09 	bl	10007500 <stdio_put_string>
100076ee:	f7ff ffab 	bl	10007648 <stdio_flush>
100076f2:	0020      	movs	r0, r4
100076f4:	bd70      	pop	{r4, r5, r6, pc}
	...

100076f8 <__wrap_vprintf>:
100076f8:	b570      	push	{r4, r5, r6, lr}
100076fa:	b0a2      	sub	sp, #136	; 0x88
100076fc:	0004      	movs	r4, r0
100076fe:	000e      	movs	r6, r1
10007700:	f7ff fede 	bl	100074c0 <stdout_serialize_begin>
10007704:	0005      	movs	r5, r0
10007706:	2300      	movs	r3, #0
10007708:	9301      	str	r3, [sp, #4]
1000770a:	0033      	movs	r3, r6
1000770c:	0022      	movs	r2, r4
1000770e:	a901      	add	r1, sp, #4
10007710:	4808      	ldr	r0, [pc, #32]	; (10007734 <__wrap_vprintf+0x3c>)
10007712:	f7ff fdc5 	bl	100072a0 <vfctprintf>
10007716:	0004      	movs	r4, r0
10007718:	a801      	add	r0, sp, #4
1000771a:	f7ff fe9f 	bl	1000745c <stdio_stack_buffer_flush>
1000771e:	f7ff ff93 	bl	10007648 <stdio_flush>
10007722:	2d00      	cmp	r5, #0
10007724:	d102      	bne.n	1000772c <__wrap_vprintf+0x34>
10007726:	0020      	movs	r0, r4
10007728:	b022      	add	sp, #136	; 0x88
1000772a:	bd70      	pop	{r4, r5, r6, pc}
1000772c:	f7ff fee0 	bl	100074f0 <stdout_serialize_end>
10007730:	e7f9      	b.n	10007726 <__wrap_vprintf+0x2e>
10007732:	46c0      	nop			; (mov r8, r8)
10007734:	100074a1 	.word	0x100074a1

10007738 <__wrap_printf>:
10007738:	b40f      	push	{r0, r1, r2, r3}
1000773a:	b500      	push	{lr}
1000773c:	b083      	sub	sp, #12
1000773e:	a904      	add	r1, sp, #16
10007740:	c901      	ldmia	r1!, {r0}
10007742:	9101      	str	r1, [sp, #4]
10007744:	f7ff ffd8 	bl	100076f8 <__wrap_vprintf>
10007748:	b003      	add	sp, #12
1000774a:	bc08      	pop	{r3}
1000774c:	b004      	add	sp, #16
1000774e:	4718      	bx	r3

10007750 <stdio_uart_out_chars>:
10007750:	b5f0      	push	{r4, r5, r6, r7, lr}
10007752:	b083      	sub	sp, #12
10007754:	0005      	movs	r5, r0
10007756:	000e      	movs	r6, r1
10007758:	2400      	movs	r4, #0
1000775a:	e00f      	b.n	1000777c <stdio_uart_out_chars+0x2c>
1000775c:	466b      	mov	r3, sp
1000775e:	1dd9      	adds	r1, r3, #7
10007760:	230d      	movs	r3, #13
10007762:	700b      	strb	r3, [r1, #0]
10007764:	2000      	movs	r0, #0
10007766:	2800      	cmp	r0, #0
10007768:	d116      	bne.n	10007798 <stdio_uart_out_chars+0x48>
1000776a:	6993      	ldr	r3, [r2, #24]
1000776c:	069b      	lsls	r3, r3, #26
1000776e:	d4fc      	bmi.n	1000776a <stdio_uart_out_chars+0x1a>
10007770:	780b      	ldrb	r3, [r1, #0]
10007772:	6013      	str	r3, [r2, #0]
10007774:	3001      	adds	r0, #1
10007776:	3101      	adds	r1, #1
10007778:	e7f5      	b.n	10007766 <stdio_uart_out_chars+0x16>
1000777a:	3401      	adds	r4, #1
1000777c:	42b4      	cmp	r4, r6
1000777e:	da19      	bge.n	100077b4 <stdio_uart_out_chars+0x64>
10007780:	4b0d      	ldr	r3, [pc, #52]	; (100077b8 <stdio_uart_out_chars+0x68>)
10007782:	681a      	ldr	r2, [r3, #0]
10007784:	5d2f      	ldrb	r7, [r5, r4]
10007786:	4b0d      	ldr	r3, [pc, #52]	; (100077bc <stdio_uart_out_chars+0x6c>)
10007788:	18d3      	adds	r3, r2, r3
1000778a:	4259      	negs	r1, r3
1000778c:	414b      	adcs	r3, r1
1000778e:	005b      	lsls	r3, r3, #1
10007790:	490b      	ldr	r1, [pc, #44]	; (100077c0 <stdio_uart_out_chars+0x70>)
10007792:	5e5b      	ldrsh	r3, [r3, r1]
10007794:	42bb      	cmp	r3, r7
10007796:	d0e1      	beq.n	1000775c <stdio_uart_out_chars+0xc>
10007798:	466b      	mov	r3, sp
1000779a:	1dd9      	adds	r1, r3, #7
1000779c:	700f      	strb	r7, [r1, #0]
1000779e:	2000      	movs	r0, #0
100077a0:	2800      	cmp	r0, #0
100077a2:	d1ea      	bne.n	1000777a <stdio_uart_out_chars+0x2a>
100077a4:	6993      	ldr	r3, [r2, #24]
100077a6:	069b      	lsls	r3, r3, #26
100077a8:	d4fc      	bmi.n	100077a4 <stdio_uart_out_chars+0x54>
100077aa:	780b      	ldrb	r3, [r1, #0]
100077ac:	6013      	str	r3, [r2, #0]
100077ae:	3001      	adds	r0, #1
100077b0:	3101      	adds	r1, #1
100077b2:	e7f5      	b.n	100077a0 <stdio_uart_out_chars+0x50>
100077b4:	b003      	add	sp, #12
100077b6:	bdf0      	pop	{r4, r5, r6, r7, pc}
100077b8:	20002c64 	.word	0x20002c64
100077bc:	bffc8000 	.word	0xbffc8000
100077c0:	20002c5c 	.word	0x20002c5c

100077c4 <stdio_uart_in_chars>:
100077c4:	b5f0      	push	{r4, r5, r6, r7, lr}
100077c6:	b083      	sub	sp, #12
100077c8:	0006      	movs	r6, r0
100077ca:	000f      	movs	r7, r1
100077cc:	2500      	movs	r5, #0
100077ce:	e004      	b.n	100077da <stdio_uart_in_chars+0x16>
100077d0:	466b      	mov	r3, sp
100077d2:	3307      	adds	r3, #7
100077d4:	781b      	ldrb	r3, [r3, #0]
100077d6:	702b      	strb	r3, [r5, #0]
100077d8:	0025      	movs	r5, r4
100077da:	42bd      	cmp	r5, r7
100077dc:	da15      	bge.n	1000780a <stdio_uart_in_chars+0x46>
100077de:	4b16      	ldr	r3, [pc, #88]	; (10007838 <stdio_uart_in_chars+0x74>)
100077e0:	681a      	ldr	r2, [r3, #0]
100077e2:	6993      	ldr	r3, [r2, #24]
100077e4:	2410      	movs	r4, #16
100077e6:	0021      	movs	r1, r4
100077e8:	4019      	ands	r1, r3
100077ea:	421c      	tst	r4, r3
100077ec:	d10d      	bne.n	1000780a <stdio_uart_in_chars+0x46>
100077ee:	1c6c      	adds	r4, r5, #1
100077f0:	1975      	adds	r5, r6, r5
100077f2:	466b      	mov	r3, sp
100077f4:	1dd8      	adds	r0, r3, #7
100077f6:	2900      	cmp	r1, #0
100077f8:	d1ea      	bne.n	100077d0 <stdio_uart_in_chars+0xc>
100077fa:	6993      	ldr	r3, [r2, #24]
100077fc:	06db      	lsls	r3, r3, #27
100077fe:	d4fc      	bmi.n	100077fa <stdio_uart_in_chars+0x36>
10007800:	6813      	ldr	r3, [r2, #0]
10007802:	7003      	strb	r3, [r0, #0]
10007804:	3101      	adds	r1, #1
10007806:	3001      	adds	r0, #1
10007808:	e7f5      	b.n	100077f6 <stdio_uart_in_chars+0x32>
1000780a:	4b0c      	ldr	r3, [pc, #48]	; (1000783c <stdio_uart_in_chars+0x78>)
1000780c:	681b      	ldr	r3, [r3, #0]
1000780e:	2b00      	cmp	r3, #0
10007810:	d00a      	beq.n	10007828 <stdio_uart_in_chars+0x64>
10007812:	4b09      	ldr	r3, [pc, #36]	; (10007838 <stdio_uart_in_chars+0x74>)
10007814:	681b      	ldr	r3, [r3, #0]
10007816:	2250      	movs	r2, #80	; 0x50
10007818:	639a      	str	r2, [r3, #56]	; 0x38
1000781a:	6b59      	ldr	r1, [r3, #52]	; 0x34
1000781c:	3a18      	subs	r2, #24
1000781e:	400a      	ands	r2, r1
10007820:	4907      	ldr	r1, [pc, #28]	; (10007840 <stdio_uart_in_chars+0x7c>)
10007822:	468c      	mov	ip, r1
10007824:	4463      	add	r3, ip
10007826:	601a      	str	r2, [r3, #0]
10007828:	2d00      	cmp	r5, #0
1000782a:	d002      	beq.n	10007832 <stdio_uart_in_chars+0x6e>
1000782c:	0028      	movs	r0, r5
1000782e:	b003      	add	sp, #12
10007830:	bdf0      	pop	{r4, r5, r6, r7, pc}
10007832:	3d03      	subs	r5, #3
10007834:	e7fa      	b.n	1000782c <stdio_uart_in_chars+0x68>
10007836:	46c0      	nop			; (mov r8, r8)
10007838:	20002c64 	.word	0x20002c64
1000783c:	20001ccc 	.word	0x20001ccc
10007840:	00001034 	.word	0x00001034

10007844 <on_uart_rx>:
10007844:	b510      	push	{r4, lr}
10007846:	4b06      	ldr	r3, [pc, #24]	; (10007860 <on_uart_rx+0x1c>)
10007848:	681b      	ldr	r3, [r3, #0]
1000784a:	2b00      	cmp	r3, #0
1000784c:	d006      	beq.n	1000785c <on_uart_rx+0x18>
1000784e:	4a05      	ldr	r2, [pc, #20]	; (10007864 <on_uart_rx+0x20>)
10007850:	6812      	ldr	r2, [r2, #0]
10007852:	2100      	movs	r1, #0
10007854:	6391      	str	r1, [r2, #56]	; 0x38
10007856:	4a04      	ldr	r2, [pc, #16]	; (10007868 <on_uart_rx+0x24>)
10007858:	6810      	ldr	r0, [r2, #0]
1000785a:	4798      	blx	r3
1000785c:	bd10      	pop	{r4, pc}
1000785e:	46c0      	nop			; (mov r8, r8)
10007860:	20001ccc 	.word	0x20001ccc
10007864:	20002c64 	.word	0x20002c64
10007868:	20001cd0 	.word	0x20001cd0

1000786c <stdio_uart_out_flush>:
1000786c:	4b02      	ldr	r3, [pc, #8]	; (10007878 <stdio_uart_out_flush+0xc>)
1000786e:	699b      	ldr	r3, [r3, #24]
10007870:	071b      	lsls	r3, r3, #28
10007872:	d4fb      	bmi.n	1000786c <stdio_uart_out_flush>
10007874:	4770      	bx	lr
10007876:	46c0      	nop			; (mov r8, r8)
10007878:	40034000 	.word	0x40034000

1000787c <stdio_uart_set_chars_available_callback>:
1000787c:	b570      	push	{r4, r5, r6, lr}
1000787e:	0004      	movs	r4, r0
10007880:	000d      	movs	r5, r1
10007882:	4b1c      	ldr	r3, [pc, #112]	; (100078f4 <stdio_uart_set_chars_available_callback+0x78>)
10007884:	681b      	ldr	r3, [r3, #0]
10007886:	4a1c      	ldr	r2, [pc, #112]	; (100078f8 <stdio_uart_set_chars_available_callback+0x7c>)
10007888:	4293      	cmp	r3, r2
1000788a:	d00d      	beq.n	100078a8 <stdio_uart_set_chars_available_callback+0x2c>
1000788c:	2614      	movs	r6, #20
1000788e:	2c00      	cmp	r4, #0
10007890:	d003      	beq.n	1000789a <stdio_uart_set_chars_available_callback+0x1e>
10007892:	4a1a      	ldr	r2, [pc, #104]	; (100078fc <stdio_uart_set_chars_available_callback+0x80>)
10007894:	6812      	ldr	r2, [r2, #0]
10007896:	2a00      	cmp	r2, #0
10007898:	d008      	beq.n	100078ac <stdio_uart_set_chars_available_callback+0x30>
1000789a:	2c00      	cmp	r4, #0
1000789c:	d01a      	beq.n	100078d4 <stdio_uart_set_chars_available_callback+0x58>
1000789e:	4b17      	ldr	r3, [pc, #92]	; (100078fc <stdio_uart_set_chars_available_callback+0x80>)
100078a0:	601c      	str	r4, [r3, #0]
100078a2:	4b17      	ldr	r3, [pc, #92]	; (10007900 <stdio_uart_set_chars_available_callback+0x84>)
100078a4:	601d      	str	r5, [r3, #0]
100078a6:	bd70      	pop	{r4, r5, r6, pc}
100078a8:	2615      	movs	r6, #21
100078aa:	e7f0      	b.n	1000788e <stdio_uart_set_chars_available_callback+0x12>
100078ac:	4915      	ldr	r1, [pc, #84]	; (10007904 <stdio_uart_set_chars_available_callback+0x88>)
100078ae:	0030      	movs	r0, r6
100078b0:	f7fc fb34 	bl	10003f1c <irq_set_exclusive_handler>
100078b4:	2101      	movs	r1, #1
100078b6:	0030      	movs	r0, r6
100078b8:	f7fc fb1e 	bl	10003ef8 <irq_set_enabled>
100078bc:	4b0d      	ldr	r3, [pc, #52]	; (100078f4 <stdio_uart_set_chars_available_callback+0x78>)
100078be:	681b      	ldr	r3, [r3, #0]
100078c0:	2250      	movs	r2, #80	; 0x50
100078c2:	639a      	str	r2, [r3, #56]	; 0x38
100078c4:	6b59      	ldr	r1, [r3, #52]	; 0x34
100078c6:	3a18      	subs	r2, #24
100078c8:	400a      	ands	r2, r1
100078ca:	490f      	ldr	r1, [pc, #60]	; (10007908 <stdio_uart_set_chars_available_callback+0x8c>)
100078cc:	468c      	mov	ip, r1
100078ce:	4463      	add	r3, ip
100078d0:	601a      	str	r2, [r3, #0]
100078d2:	e7e4      	b.n	1000789e <stdio_uart_set_chars_available_callback+0x22>
100078d4:	4a09      	ldr	r2, [pc, #36]	; (100078fc <stdio_uart_set_chars_available_callback+0x80>)
100078d6:	6812      	ldr	r2, [r2, #0]
100078d8:	2a00      	cmp	r2, #0
100078da:	d0e0      	beq.n	1000789e <stdio_uart_set_chars_available_callback+0x22>
100078dc:	2200      	movs	r2, #0
100078de:	639a      	str	r2, [r3, #56]	; 0x38
100078e0:	2100      	movs	r1, #0
100078e2:	0030      	movs	r0, r6
100078e4:	f7fc fb08 	bl	10003ef8 <irq_set_enabled>
100078e8:	4906      	ldr	r1, [pc, #24]	; (10007904 <stdio_uart_set_chars_available_callback+0x88>)
100078ea:	0030      	movs	r0, r6
100078ec:	f7fc fc5c 	bl	100041a8 <irq_remove_handler>
100078f0:	e7d5      	b.n	1000789e <stdio_uart_set_chars_available_callback+0x22>
100078f2:	46c0      	nop			; (mov r8, r8)
100078f4:	20002c64 	.word	0x20002c64
100078f8:	40038000 	.word	0x40038000
100078fc:	20001ccc 	.word	0x20001ccc
10007900:	20001cd0 	.word	0x20001cd0
10007904:	10007845 	.word	0x10007845
10007908:	00001034 	.word	0x00001034

1000790c <stdio_uart_init_full>:
1000790c:	b570      	push	{r4, r5, r6, lr}
1000790e:	000d      	movs	r5, r1
10007910:	001c      	movs	r4, r3
10007912:	4b0d      	ldr	r3, [pc, #52]	; (10007948 <stdio_uart_init_full+0x3c>)
10007914:	6018      	str	r0, [r3, #0]
10007916:	2a00      	cmp	r2, #0
10007918:	da0b      	bge.n	10007932 <stdio_uart_init_full+0x26>
1000791a:	2c00      	cmp	r4, #0
1000791c:	da0e      	bge.n	1000793c <stdio_uart_init_full+0x30>
1000791e:	4b0a      	ldr	r3, [pc, #40]	; (10007948 <stdio_uart_init_full+0x3c>)
10007920:	6818      	ldr	r0, [r3, #0]
10007922:	0029      	movs	r1, r5
10007924:	f7fd fa6a 	bl	10004dfc <uart_init>
10007928:	2101      	movs	r1, #1
1000792a:	4808      	ldr	r0, [pc, #32]	; (1000794c <stdio_uart_init_full+0x40>)
1000792c:	f7ff fe76 	bl	1000761c <stdio_set_driver_enabled>
10007930:	bd70      	pop	{r4, r5, r6, pc}
10007932:	2102      	movs	r1, #2
10007934:	0010      	movs	r0, r2
10007936:	f7fc f995 	bl	10003c64 <gpio_set_function>
1000793a:	e7ee      	b.n	1000791a <stdio_uart_init_full+0xe>
1000793c:	2102      	movs	r1, #2
1000793e:	0020      	movs	r0, r4
10007940:	f7fc f990 	bl	10003c64 <gpio_set_function>
10007944:	e7eb      	b.n	1000791e <stdio_uart_init_full+0x12>
10007946:	46c0      	nop			; (mov r8, r8)
10007948:	20002c64 	.word	0x20002c64
1000794c:	200009f0 	.word	0x200009f0

10007950 <board_init>:
10007950:	b510      	push	{r4, lr}
10007952:	2019      	movs	r0, #25
10007954:	f7fc f9a0 	bl	10003c98 <gpio_init>
10007958:	23d0      	movs	r3, #208	; 0xd0
1000795a:	061b      	lsls	r3, r3, #24
1000795c:	2280      	movs	r2, #128	; 0x80
1000795e:	0492      	lsls	r2, r2, #18
10007960:	625a      	str	r2, [r3, #36]	; 0x24
10007962:	4805      	ldr	r0, [pc, #20]	; (10007978 <board_init+0x28>)
10007964:	4b05      	ldr	r3, [pc, #20]	; (1000797c <board_init+0x2c>)
10007966:	6018      	str	r0, [r3, #0]
10007968:	21e1      	movs	r1, #225	; 0xe1
1000796a:	2301      	movs	r3, #1
1000796c:	2200      	movs	r2, #0
1000796e:	0249      	lsls	r1, r1, #9
10007970:	f7ff ffcc 	bl	1000790c <stdio_uart_init_full>
10007974:	bd10      	pop	{r4, pc}
10007976:	46c0      	nop			; (mov r8, r8)
10007978:	40034000 	.word	0x40034000
1000797c:	20002c60 	.word	0x20002c60

10007980 <board_led_write>:
10007980:	2800      	cmp	r0, #0
10007982:	d005      	beq.n	10007990 <board_led_write+0x10>
10007984:	23d0      	movs	r3, #208	; 0xd0
10007986:	061b      	lsls	r3, r3, #24
10007988:	2280      	movs	r2, #128	; 0x80
1000798a:	0492      	lsls	r2, r2, #18
1000798c:	615a      	str	r2, [r3, #20]
1000798e:	4770      	bx	lr
10007990:	23d0      	movs	r3, #208	; 0xd0
10007992:	061b      	lsls	r3, r3, #24
10007994:	2280      	movs	r2, #128	; 0x80
10007996:	0492      	lsls	r2, r2, #18
10007998:	619a      	str	r2, [r3, #24]
1000799a:	e7f8      	b.n	1000798e <board_led_write+0xe>

1000799c <board_getchar>:
1000799c:	b510      	push	{r4, lr}
1000799e:	2000      	movs	r0, #0
100079a0:	f7ff fe62 	bl	10007668 <stdio_getchar_timeout_us>
100079a4:	bd10      	pop	{r4, pc}
	...

100079a8 <_retrieve_unique_id_on_boot>:
100079a8:	b510      	push	{r4, lr}
100079aa:	4802      	ldr	r0, [pc, #8]	; (100079b4 <_retrieve_unique_id_on_boot+0xc>)
100079ac:	f000 f804 	bl	100079b8 <flash_get_unique_id>
100079b0:	bd10      	pop	{r4, pc}
100079b2:	46c0      	nop			; (mov r8, r8)
100079b4:	20002a48 	.word	0x20002a48

100079b8 <flash_get_unique_id>:
100079b8:	b570      	push	{r4, r5, r6, lr}
100079ba:	b088      	sub	sp, #32
100079bc:	0004      	movs	r4, r0
100079be:	ad04      	add	r5, sp, #16
100079c0:	2600      	movs	r6, #0
100079c2:	9604      	str	r6, [sp, #16]
100079c4:	2209      	movs	r2, #9
100079c6:	2100      	movs	r1, #0
100079c8:	a805      	add	r0, sp, #20
100079ca:	f7fe fbcd 	bl	10006168 <__wrap_memset>
100079ce:	9600      	str	r6, [sp, #0]
100079d0:	2209      	movs	r2, #9
100079d2:	2100      	movs	r1, #0
100079d4:	a801      	add	r0, sp, #4
100079d6:	f7fe fbc7 	bl	10006168 <__wrap_memset>
100079da:	234b      	movs	r3, #75	; 0x4b
100079dc:	702b      	strb	r3, [r5, #0]
100079de:	220d      	movs	r2, #13
100079e0:	4669      	mov	r1, sp
100079e2:	0028      	movs	r0, r5
100079e4:	f004 f834 	bl	1000ba50 <__flash_do_cmd_veneer>
100079e8:	2300      	movs	r3, #0
100079ea:	e004      	b.n	100079f6 <flash_get_unique_id+0x3e>
100079ec:	1d5a      	adds	r2, r3, #5
100079ee:	4669      	mov	r1, sp
100079f0:	5c8a      	ldrb	r2, [r1, r2]
100079f2:	54e2      	strb	r2, [r4, r3]
100079f4:	3301      	adds	r3, #1
100079f6:	2b07      	cmp	r3, #7
100079f8:	ddf8      	ble.n	100079ec <flash_get_unique_id+0x34>
100079fa:	b008      	add	sp, #32
100079fc:	bd70      	pop	{r4, r5, r6, pc}
	...

10007a00 <get_dev_ep>:
10007a00:	b530      	push	{r4, r5, lr}
10007a02:	0005      	movs	r5, r0
10007a04:	064b      	lsls	r3, r1, #25
10007a06:	d013      	beq.n	10007a30 <get_dev_ep+0x30>
10007a08:	2201      	movs	r2, #1
10007a0a:	e000      	b.n	10007a0e <get_dev_ep+0xe>
10007a0c:	3201      	adds	r2, #1
10007a0e:	2a0f      	cmp	r2, #15
10007a10:	d80c      	bhi.n	10007a2c <get_dev_ep+0x2c>
10007a12:	0153      	lsls	r3, r2, #5
10007a14:	4c07      	ldr	r4, [pc, #28]	; (10007a34 <get_dev_ep+0x34>)
10007a16:	1918      	adds	r0, r3, r4
10007a18:	5d1b      	ldrb	r3, [r3, r4]
10007a1a:	2b00      	cmp	r3, #0
10007a1c:	d0f6      	beq.n	10007a0c <get_dev_ep+0xc>
10007a1e:	7f43      	ldrb	r3, [r0, #29]
10007a20:	42ab      	cmp	r3, r5
10007a22:	d1f3      	bne.n	10007a0c <get_dev_ep+0xc>
10007a24:	7883      	ldrb	r3, [r0, #2]
10007a26:	428b      	cmp	r3, r1
10007a28:	d1f0      	bne.n	10007a0c <get_dev_ep+0xc>
10007a2a:	e000      	b.n	10007a2e <get_dev_ep+0x2e>
10007a2c:	2000      	movs	r0, #0
10007a2e:	bd30      	pop	{r4, r5, pc}
10007a30:	4800      	ldr	r0, [pc, #0]	; (10007a34 <get_dev_ep+0x34>)
10007a32:	e7fc      	b.n	10007a2e <get_dev_ep+0x2e>
10007a34:	20001f1c 	.word	0x20001f1c

10007a38 <_next_free_interrupt_ep>:
10007a38:	2201      	movs	r2, #1
10007a3a:	2000      	movs	r0, #0
10007a3c:	2a0f      	cmp	r2, #15
10007a3e:	d809      	bhi.n	10007a54 <_next_free_interrupt_ep+0x1c>
10007a40:	0153      	lsls	r3, r2, #5
10007a42:	4905      	ldr	r1, [pc, #20]	; (10007a58 <_next_free_interrupt_ep+0x20>)
10007a44:	1858      	adds	r0, r3, r1
10007a46:	5c5b      	ldrb	r3, [r3, r1]
10007a48:	2b00      	cmp	r3, #0
10007a4a:	d001      	beq.n	10007a50 <_next_free_interrupt_ep+0x18>
10007a4c:	3201      	adds	r2, #1
10007a4e:	e7f5      	b.n	10007a3c <_next_free_interrupt_ep+0x4>
10007a50:	1e51      	subs	r1, r2, #1
10007a52:	7781      	strb	r1, [r0, #30]
10007a54:	4770      	bx	lr
10007a56:	46c0      	nop			; (mov r8, r8)
10007a58:	20001f1c 	.word	0x20001f1c

10007a5c <_hw_endpoint_allocate>:
10007a5c:	b510      	push	{r4, lr}
10007a5e:	2800      	cmp	r0, #0
10007a60:	d107      	bne.n	10007a72 <_hw_endpoint_allocate+0x16>
10007a62:	4811      	ldr	r0, [pc, #68]	; (10007aa8 <_hw_endpoint_allocate+0x4c>)
10007a64:	4b11      	ldr	r3, [pc, #68]	; (10007aac <_hw_endpoint_allocate+0x50>)
10007a66:	6083      	str	r3, [r0, #8]
10007a68:	4b11      	ldr	r3, [pc, #68]	; (10007ab0 <_hw_endpoint_allocate+0x54>)
10007a6a:	6043      	str	r3, [r0, #4]
10007a6c:	4b11      	ldr	r3, [pc, #68]	; (10007ab4 <_hw_endpoint_allocate+0x58>)
10007a6e:	60c3      	str	r3, [r0, #12]
10007a70:	bd10      	pop	{r4, pc}
10007a72:	f7ff ffe1 	bl	10007a38 <_next_free_interrupt_ep>
10007a76:	2800      	cmp	r0, #0
10007a78:	d00f      	beq.n	10007a9a <_hw_endpoint_allocate+0x3e>
10007a7a:	7f83      	ldrb	r3, [r0, #30]
10007a7c:	00da      	lsls	r2, r3, #3
10007a7e:	490e      	ldr	r1, [pc, #56]	; (10007ab8 <_hw_endpoint_allocate+0x5c>)
10007a80:	1851      	adds	r1, r2, r1
10007a82:	6081      	str	r1, [r0, #8]
10007a84:	490d      	ldr	r1, [pc, #52]	; (10007abc <_hw_endpoint_allocate+0x60>)
10007a86:	468c      	mov	ip, r1
10007a88:	4462      	add	r2, ip
10007a8a:	6042      	str	r2, [r0, #4]
10007a8c:	3302      	adds	r3, #2
10007a8e:	019b      	lsls	r3, r3, #6
10007a90:	4a08      	ldr	r2, [pc, #32]	; (10007ab4 <_hw_endpoint_allocate+0x58>)
10007a92:	4694      	mov	ip, r2
10007a94:	4463      	add	r3, ip
10007a96:	60c3      	str	r3, [r0, #12]
10007a98:	e7ea      	b.n	10007a70 <_hw_endpoint_allocate+0x14>
10007a9a:	2120      	movs	r1, #32
10007a9c:	4b08      	ldr	r3, [pc, #32]	; (10007ac0 <_hw_endpoint_allocate+0x64>)
10007a9e:	4a09      	ldr	r2, [pc, #36]	; (10007ac4 <_hw_endpoint_allocate+0x68>)
10007aa0:	31ff      	adds	r1, #255	; 0xff
10007aa2:	4809      	ldr	r0, [pc, #36]	; (10007ac8 <_hw_endpoint_allocate+0x6c>)
10007aa4:	f7ff fc60 	bl	10007368 <__assert_func>
10007aa8:	20001f1c 	.word	0x20001f1c
10007aac:	50100080 	.word	0x50100080
10007ab0:	50100100 	.word	0x50100100
10007ab4:	50100180 	.word	0x50100180
10007ab8:	50100088 	.word	0x50100088
10007abc:	50100008 	.word	0x50100008
10007ac0:	1000d30c 	.word	0x1000d30c
10007ac4:	1000d418 	.word	0x1000d418
10007ac8:	1000d274 	.word	0x1000d274

10007acc <hcd_init>:
10007acc:	b570      	push	{r4, r5, r6, lr}
10007ace:	2800      	cmp	r0, #0
10007ad0:	d11d      	bne.n	10007b0e <hcd_init+0x42>
10007ad2:	f000 fa8b 	bl	10007fec <rp2040_usb_init>
10007ad6:	4c11      	ldr	r4, [pc, #68]	; (10007b1c <hcd_init+0x50>)
10007ad8:	230c      	movs	r3, #12
10007ada:	67a3      	str	r3, [r4, #120]	; 0x78
10007adc:	4d10      	ldr	r5, [pc, #64]	; (10007b20 <hcd_init+0x54>)
10007ade:	0029      	movs	r1, r5
10007ae0:	2005      	movs	r0, #5
10007ae2:	f7fc fb61 	bl	100041a8 <irq_remove_handler>
10007ae6:	22ff      	movs	r2, #255	; 0xff
10007ae8:	0029      	movs	r1, r5
10007aea:	2005      	movs	r0, #5
10007aec:	f7fc fa40 	bl	10003f70 <irq_add_shared_handler>
10007af0:	2280      	movs	r2, #128	; 0x80
10007af2:	0092      	lsls	r2, r2, #2
10007af4:	2100      	movs	r1, #0
10007af6:	480b      	ldr	r0, [pc, #44]	; (10007b24 <hcd_init+0x58>)
10007af8:	f7fe fb36 	bl	10006168 <__wrap_memset>
10007afc:	2303      	movs	r3, #3
10007afe:	6423      	str	r3, [r4, #64]	; 0x40
10007b00:	4b09      	ldr	r3, [pc, #36]	; (10007b28 <hcd_init+0x5c>)
10007b02:	64e3      	str	r3, [r4, #76]	; 0x4c
10007b04:	2390      	movs	r3, #144	; 0x90
10007b06:	4a09      	ldr	r2, [pc, #36]	; (10007b2c <hcd_init+0x60>)
10007b08:	50e2      	str	r2, [r4, r3]
10007b0a:	2001      	movs	r0, #1
10007b0c:	bd70      	pop	{r4, r5, r6, pc}
10007b0e:	21bf      	movs	r1, #191	; 0xbf
10007b10:	4b07      	ldr	r3, [pc, #28]	; (10007b30 <hcd_init+0x64>)
10007b12:	4a08      	ldr	r2, [pc, #32]	; (10007b34 <hcd_init+0x68>)
10007b14:	0049      	lsls	r1, r1, #1
10007b16:	4808      	ldr	r0, [pc, #32]	; (10007b38 <hcd_init+0x6c>)
10007b18:	f7ff fc26 	bl	10007368 <__assert_func>
10007b1c:	50110000 	.word	0x50110000
10007b20:	200004b9 	.word	0x200004b9
10007b24:	20001f1c 	.word	0x20001f1c
10007b28:	20008600 	.word	0x20008600
10007b2c:	0000047b 	.word	0x0000047b
10007b30:	1000d310 	.word	0x1000d310
10007b34:	1000d3cc 	.word	0x1000d3cc
10007b38:	1000d274 	.word	0x1000d274

10007b3c <hcd_port_reset>:
10007b3c:	b510      	push	{r4, lr}
10007b3e:	2800      	cmp	r0, #0
10007b40:	d100      	bne.n	10007b44 <hcd_port_reset+0x8>
10007b42:	bd10      	pop	{r4, pc}
10007b44:	21d5      	movs	r1, #213	; 0xd5
10007b46:	4b03      	ldr	r3, [pc, #12]	; (10007b54 <hcd_port_reset+0x18>)
10007b48:	4a03      	ldr	r2, [pc, #12]	; (10007b58 <hcd_port_reset+0x1c>)
10007b4a:	0049      	lsls	r1, r1, #1
10007b4c:	4803      	ldr	r0, [pc, #12]	; (10007b5c <hcd_port_reset+0x20>)
10007b4e:	f7ff fc0b 	bl	10007368 <__assert_func>
10007b52:	46c0      	nop			; (mov r8, r8)
10007b54:	1000d310 	.word	0x1000d310
10007b58:	1000d47c 	.word	0x1000d47c
10007b5c:	1000d274 	.word	0x1000d274

10007b60 <hcd_port_reset_end>:
10007b60:	4770      	bx	lr
	...

10007b64 <hcd_port_connect_status>:
10007b64:	b510      	push	{r4, lr}
10007b66:	2800      	cmp	r0, #0
10007b68:	d108      	bne.n	10007b7c <hcd_port_connect_status+0x18>
10007b6a:	4b08      	ldr	r3, [pc, #32]	; (10007b8c <hcd_port_connect_status+0x28>)
10007b6c:	6d18      	ldr	r0, [r3, #80]	; 0x50
10007b6e:	23c0      	movs	r3, #192	; 0xc0
10007b70:	009b      	lsls	r3, r3, #2
10007b72:	4018      	ands	r0, r3
10007b74:	1e43      	subs	r3, r0, #1
10007b76:	4198      	sbcs	r0, r3
10007b78:	b2c0      	uxtb	r0, r0
10007b7a:	bd10      	pop	{r4, pc}
10007b7c:	21b8      	movs	r1, #184	; 0xb8
10007b7e:	4b04      	ldr	r3, [pc, #16]	; (10007b90 <hcd_port_connect_status+0x2c>)
10007b80:	4a04      	ldr	r2, [pc, #16]	; (10007b94 <hcd_port_connect_status+0x30>)
10007b82:	31ff      	adds	r1, #255	; 0xff
10007b84:	4804      	ldr	r0, [pc, #16]	; (10007b98 <hcd_port_connect_status+0x34>)
10007b86:	f7ff fbef 	bl	10007368 <__assert_func>
10007b8a:	46c0      	nop			; (mov r8, r8)
10007b8c:	50110000 	.word	0x50110000
10007b90:	1000d310 	.word	0x1000d310
10007b94:	1000d464 	.word	0x1000d464
10007b98:	1000d274 	.word	0x1000d274

10007b9c <hcd_port_speed_get>:
10007b9c:	b510      	push	{r4, lr}
10007b9e:	2800      	cmp	r0, #0
10007ba0:	d109      	bne.n	10007bb6 <hcd_port_speed_get+0x1a>
10007ba2:	4b0b      	ldr	r3, [pc, #44]	; (10007bd0 <hcd_port_speed_get+0x34>)
10007ba4:	6d1a      	ldr	r2, [r3, #80]	; 0x50
10007ba6:	0a12      	lsrs	r2, r2, #8
10007ba8:	2303      	movs	r3, #3
10007baa:	4013      	ands	r3, r2
10007bac:	2b01      	cmp	r3, #1
10007bae:	d00c      	beq.n	10007bca <hcd_port_speed_get+0x2e>
10007bb0:	2b02      	cmp	r3, #2
10007bb2:	d107      	bne.n	10007bc4 <hcd_port_speed_get+0x28>
10007bb4:	bd10      	pop	{r4, pc}
10007bb6:	21df      	movs	r1, #223	; 0xdf
10007bb8:	4b06      	ldr	r3, [pc, #24]	; (10007bd4 <hcd_port_speed_get+0x38>)
10007bba:	4a07      	ldr	r2, [pc, #28]	; (10007bd8 <hcd_port_speed_get+0x3c>)
10007bbc:	0049      	lsls	r1, r1, #1
10007bbe:	4807      	ldr	r0, [pc, #28]	; (10007bdc <hcd_port_speed_get+0x40>)
10007bc0:	f7ff fbd2 	bl	10007368 <__assert_func>
10007bc4:	4806      	ldr	r0, [pc, #24]	; (10007be0 <hcd_port_speed_get+0x44>)
10007bc6:	f7fc f873 	bl	10003cb0 <panic>
10007bca:	0018      	movs	r0, r3
10007bcc:	e7f2      	b.n	10007bb4 <hcd_port_speed_get+0x18>
10007bce:	46c0      	nop			; (mov r8, r8)
10007bd0:	50110000 	.word	0x50110000
10007bd4:	1000d310 	.word	0x1000d310
10007bd8:	1000d450 	.word	0x1000d450
10007bdc:	1000d274 	.word	0x1000d274
10007be0:	1000d31c 	.word	0x1000d31c

10007be4 <_hw_endpoint_init>:
10007be4:	b5f0      	push	{r4, r5, r6, r7, lr}
10007be6:	46d6      	mov	lr, sl
10007be8:	464f      	mov	r7, r9
10007bea:	4646      	mov	r6, r8
10007bec:	b5c0      	push	{r6, r7, lr}
10007bee:	0004      	movs	r4, r0
10007bf0:	000f      	movs	r7, r1
10007bf2:	4699      	mov	r9, r3
10007bf4:	a908      	add	r1, sp, #32
10007bf6:	780d      	ldrb	r5, [r1, #0]
10007bf8:	a909      	add	r1, sp, #36	; 0x24
10007bfa:	7809      	ldrb	r1, [r1, #0]
10007bfc:	6843      	ldr	r3, [r0, #4]
10007bfe:	469c      	mov	ip, r3
10007c00:	2b00      	cmp	r3, #0
10007c02:	d050      	beq.n	10007ca6 <_hw_endpoint_init+0xc2>
10007c04:	6883      	ldr	r3, [r0, #8]
10007c06:	2b00      	cmp	r3, #0
10007c08:	d054      	beq.n	10007cb4 <_hw_endpoint_init+0xd0>
10007c0a:	68c3      	ldr	r3, [r0, #12]
10007c0c:	2b00      	cmp	r3, #0
10007c0e:	d058      	beq.n	10007cc2 <_hw_endpoint_init+0xde>
10007c10:	207f      	movs	r0, #127	; 0x7f
10007c12:	4680      	mov	r8, r0
10007c14:	0006      	movs	r6, r0
10007c16:	4016      	ands	r6, r2
10007c18:	46b2      	mov	sl, r6
10007c1a:	09d0      	lsrs	r0, r2, #7
10007c1c:	70a2      	strb	r2, [r4, #2]
10007c1e:	7767      	strb	r7, [r4, #29]
10007c20:	7060      	strb	r0, [r4, #1]
10007c22:	4646      	mov	r6, r8
10007c24:	4216      	tst	r6, r2
10007c26:	d153      	bne.n	10007cd0 <_hw_endpoint_init+0xec>
10007c28:	2201      	movs	r2, #1
10007c2a:	70e2      	strb	r2, [r4, #3]
10007c2c:	464a      	mov	r2, r9
10007c2e:	8322      	strh	r2, [r4, #24]
10007c30:	76e5      	strb	r5, [r4, #27]
10007c32:	4a2c      	ldr	r2, [pc, #176]	; (10007ce4 <_hw_endpoint_init+0x100>)
10007c34:	405a      	eors	r2, r3
10007c36:	069b      	lsls	r3, r3, #26
10007c38:	d14c      	bne.n	10007cd4 <_hw_endpoint_init+0xf0>
10007c3a:	06ad      	lsls	r5, r5, #26
10007c3c:	4315      	orrs	r5, r2
10007c3e:	23a0      	movs	r3, #160	; 0xa0
10007c40:	061b      	lsls	r3, r3, #24
10007c42:	431d      	orrs	r5, r3
10007c44:	2900      	cmp	r1, #0
10007c46:	d002      	beq.n	10007c4e <_hw_endpoint_init+0x6a>
10007c48:	3901      	subs	r1, #1
10007c4a:	0409      	lsls	r1, r1, #16
10007c4c:	430d      	orrs	r5, r1
10007c4e:	4663      	mov	r3, ip
10007c50:	601d      	str	r5, [r3, #0]
10007c52:	2301      	movs	r3, #1
10007c54:	7023      	strb	r3, [r4, #0]
10007c56:	4b24      	ldr	r3, [pc, #144]	; (10007ce8 <_hw_endpoint_init+0x104>)
10007c58:	429c      	cmp	r4, r3
10007c5a:	d01f      	beq.n	10007c9c <_hw_endpoint_init+0xb8>
10007c5c:	4653      	mov	r3, sl
10007c5e:	041d      	lsls	r5, r3, #16
10007c60:	433d      	orrs	r5, r7
10007c62:	2800      	cmp	r0, #0
10007c64:	d102      	bne.n	10007c6c <_hw_endpoint_init+0x88>
10007c66:	2380      	movs	r3, #128	; 0x80
10007c68:	049b      	lsls	r3, r3, #18
10007c6a:	431d      	orrs	r5, r3
10007c6c:	2000      	movs	r0, #0
10007c6e:	f7ff ff95 	bl	10007b9c <hcd_port_speed_get>
10007c72:	0006      	movs	r6, r0
10007c74:	0038      	movs	r0, r7
10007c76:	f000 fbc9 	bl	1000840c <tuh_speed_get>
10007c7a:	4286      	cmp	r6, r0
10007c7c:	d002      	beq.n	10007c84 <_hw_endpoint_init+0xa0>
10007c7e:	2380      	movs	r3, #128	; 0x80
10007c80:	04db      	lsls	r3, r3, #19
10007c82:	431d      	orrs	r5, r3
10007c84:	7fa3      	ldrb	r3, [r4, #30]
10007c86:	009b      	lsls	r3, r3, #2
10007c88:	4a18      	ldr	r2, [pc, #96]	; (10007cec <_hw_endpoint_init+0x108>)
10007c8a:	4694      	mov	ip, r2
10007c8c:	4463      	add	r3, ip
10007c8e:	605d      	str	r5, [r3, #4]
10007c90:	7fa2      	ldrb	r2, [r4, #30]
10007c92:	3201      	adds	r2, #1
10007c94:	2301      	movs	r3, #1
10007c96:	4093      	lsls	r3, r2
10007c98:	4a15      	ldr	r2, [pc, #84]	; (10007cf0 <_hw_endpoint_init+0x10c>)
10007c9a:	6553      	str	r3, [r2, #84]	; 0x54
10007c9c:	bce0      	pop	{r5, r6, r7}
10007c9e:	46ba      	mov	sl, r7
10007ca0:	46b1      	mov	r9, r6
10007ca2:	46a8      	mov	r8, r5
10007ca4:	bdf0      	pop	{r4, r5, r6, r7, pc}
10007ca6:	219b      	movs	r1, #155	; 0x9b
10007ca8:	4b12      	ldr	r3, [pc, #72]	; (10007cf4 <_hw_endpoint_init+0x110>)
10007caa:	4a13      	ldr	r2, [pc, #76]	; (10007cf8 <_hw_endpoint_init+0x114>)
10007cac:	0049      	lsls	r1, r1, #1
10007cae:	4813      	ldr	r0, [pc, #76]	; (10007cfc <_hw_endpoint_init+0x118>)
10007cb0:	f7ff fb5a 	bl	10007368 <__assert_func>
10007cb4:	2138      	movs	r1, #56	; 0x38
10007cb6:	4b12      	ldr	r3, [pc, #72]	; (10007d00 <_hw_endpoint_init+0x11c>)
10007cb8:	4a0f      	ldr	r2, [pc, #60]	; (10007cf8 <_hw_endpoint_init+0x114>)
10007cba:	31ff      	adds	r1, #255	; 0xff
10007cbc:	480f      	ldr	r0, [pc, #60]	; (10007cfc <_hw_endpoint_init+0x118>)
10007cbe:	f7ff fb53 	bl	10007368 <__assert_func>
10007cc2:	219c      	movs	r1, #156	; 0x9c
10007cc4:	4b0f      	ldr	r3, [pc, #60]	; (10007d04 <_hw_endpoint_init+0x120>)
10007cc6:	4a0c      	ldr	r2, [pc, #48]	; (10007cf8 <_hw_endpoint_init+0x114>)
10007cc8:	0049      	lsls	r1, r1, #1
10007cca:	480c      	ldr	r0, [pc, #48]	; (10007cfc <_hw_endpoint_init+0x118>)
10007ccc:	f7ff fb4c 	bl	10007368 <__assert_func>
10007cd0:	2200      	movs	r2, #0
10007cd2:	e7aa      	b.n	10007c2a <_hw_endpoint_init+0x46>
10007cd4:	21a6      	movs	r1, #166	; 0xa6
10007cd6:	4b0c      	ldr	r3, [pc, #48]	; (10007d08 <_hw_endpoint_init+0x124>)
10007cd8:	4a07      	ldr	r2, [pc, #28]	; (10007cf8 <_hw_endpoint_init+0x114>)
10007cda:	0049      	lsls	r1, r1, #1
10007cdc:	4807      	ldr	r0, [pc, #28]	; (10007cfc <_hw_endpoint_init+0x118>)
10007cde:	f7ff fb43 	bl	10007368 <__assert_func>
10007ce2:	46c0      	nop			; (mov r8, r8)
10007ce4:	50100000 	.word	0x50100000
10007ce8:	20001f1c 	.word	0x20001f1c
10007cec:	50110000 	.word	0x50110000
10007cf0:	50112000 	.word	0x50112000
10007cf4:	1000d32c 	.word	0x1000d32c
10007cf8:	1000d404 	.word	0x1000d404
10007cfc:	1000d274 	.word	0x1000d274
10007d00:	1000d344 	.word	0x1000d344
10007d04:	1000d358 	.word	0x1000d358
10007d08:	1000d368 	.word	0x1000d368

10007d0c <hcd_device_close>:
10007d0c:	b5f8      	push	{r3, r4, r5, r6, r7, lr}
10007d0e:	1e0d      	subs	r5, r1, #0
10007d10:	d026      	beq.n	10007d60 <hcd_device_close+0x54>
10007d12:	2401      	movs	r4, #1
10007d14:	e000      	b.n	10007d18 <hcd_device_close+0xc>
10007d16:	3401      	adds	r4, #1
10007d18:	2c0f      	cmp	r4, #15
10007d1a:	d821      	bhi.n	10007d60 <hcd_device_close+0x54>
10007d1c:	0160      	lsls	r0, r4, #5
10007d1e:	4b11      	ldr	r3, [pc, #68]	; (10007d64 <hcd_device_close+0x58>)
10007d20:	18c0      	adds	r0, r0, r3
10007d22:	7f43      	ldrb	r3, [r0, #29]
10007d24:	42ab      	cmp	r3, r5
10007d26:	d1f6      	bne.n	10007d16 <hcd_device_close+0xa>
10007d28:	0163      	lsls	r3, r4, #5
10007d2a:	4a0e      	ldr	r2, [pc, #56]	; (10007d64 <hcd_device_close+0x58>)
10007d2c:	5c9b      	ldrb	r3, [r3, r2]
10007d2e:	2b00      	cmp	r3, #0
10007d30:	d0f1      	beq.n	10007d16 <hcd_device_close+0xa>
10007d32:	0016      	movs	r6, r2
10007d34:	0167      	lsls	r7, r4, #5
10007d36:	7f82      	ldrb	r2, [r0, #30]
10007d38:	3201      	adds	r2, #1
10007d3a:	2301      	movs	r3, #1
10007d3c:	4093      	lsls	r3, r2
10007d3e:	4a0a      	ldr	r2, [pc, #40]	; (10007d68 <hcd_device_close+0x5c>)
10007d40:	6553      	str	r3, [r2, #84]	; 0x54
10007d42:	7f83      	ldrb	r3, [r0, #30]
10007d44:	009b      	lsls	r3, r3, #2
10007d46:	4a09      	ldr	r2, [pc, #36]	; (10007d6c <hcd_device_close+0x60>)
10007d48:	4694      	mov	ip, r2
10007d4a:	4463      	add	r3, ip
10007d4c:	2200      	movs	r2, #0
10007d4e:	605a      	str	r2, [r3, #4]
10007d50:	55ba      	strb	r2, [r7, r6]
10007d52:	6843      	ldr	r3, [r0, #4]
10007d54:	601a      	str	r2, [r3, #0]
10007d56:	6883      	ldr	r3, [r0, #8]
10007d58:	601a      	str	r2, [r3, #0]
10007d5a:	f003 fec9 	bl	1000baf0 <__hw_endpoint_reset_transfer_veneer>
10007d5e:	e7da      	b.n	10007d16 <hcd_device_close+0xa>
10007d60:	bdf8      	pop	{r3, r4, r5, r6, r7, pc}
10007d62:	46c0      	nop			; (mov r8, r8)
10007d64:	20001f1c 	.word	0x20001f1c
10007d68:	50113000 	.word	0x50113000
10007d6c:	50110000 	.word	0x50110000

10007d70 <hcd_int_enable>:
10007d70:	b510      	push	{r4, lr}
10007d72:	2800      	cmp	r0, #0
10007d74:	d104      	bne.n	10007d80 <hcd_int_enable+0x10>
10007d76:	2101      	movs	r1, #1
10007d78:	2005      	movs	r0, #5
10007d7a:	f7fc f8bd 	bl	10003ef8 <irq_set_enabled>
10007d7e:	bd10      	pop	{r4, pc}
10007d80:	21f2      	movs	r1, #242	; 0xf2
10007d82:	4b03      	ldr	r3, [pc, #12]	; (10007d90 <hcd_int_enable+0x20>)
10007d84:	4a03      	ldr	r2, [pc, #12]	; (10007d94 <hcd_int_enable+0x24>)
10007d86:	31ff      	adds	r1, #255	; 0xff
10007d88:	4803      	ldr	r0, [pc, #12]	; (10007d98 <hcd_int_enable+0x28>)
10007d8a:	f7ff faed 	bl	10007368 <__assert_func>
10007d8e:	46c0      	nop			; (mov r8, r8)
10007d90:	1000d310 	.word	0x1000d310
10007d94:	1000d440 	.word	0x1000d440
10007d98:	1000d274 	.word	0x1000d274

10007d9c <hcd_edpt_open>:
10007d9c:	b570      	push	{r4, r5, r6, lr}
10007d9e:	b082      	sub	sp, #8
10007da0:	000e      	movs	r6, r1
10007da2:	0015      	movs	r5, r2
10007da4:	78d0      	ldrb	r0, [r2, #3]
10007da6:	0780      	lsls	r0, r0, #30
10007da8:	0f80      	lsrs	r0, r0, #30
10007daa:	f7ff fe57 	bl	10007a5c <_hw_endpoint_allocate>
10007dae:	2800      	cmp	r0, #0
10007db0:	d012      	beq.n	10007dd8 <hcd_edpt_open+0x3c>
10007db2:	792a      	ldrb	r2, [r5, #4]
10007db4:	796b      	ldrb	r3, [r5, #5]
10007db6:	021b      	lsls	r3, r3, #8
10007db8:	4313      	orrs	r3, r2
10007dba:	055b      	lsls	r3, r3, #21
10007dbc:	0d5b      	lsrs	r3, r3, #21
10007dbe:	78e9      	ldrb	r1, [r5, #3]
10007dc0:	0789      	lsls	r1, r1, #30
10007dc2:	0f89      	lsrs	r1, r1, #30
10007dc4:	78aa      	ldrb	r2, [r5, #2]
10007dc6:	79ac      	ldrb	r4, [r5, #6]
10007dc8:	9401      	str	r4, [sp, #4]
10007dca:	9100      	str	r1, [sp, #0]
10007dcc:	0031      	movs	r1, r6
10007dce:	f7ff ff09 	bl	10007be4 <_hw_endpoint_init>
10007dd2:	2001      	movs	r0, #1
10007dd4:	b002      	add	sp, #8
10007dd6:	bd70      	pop	{r4, r5, r6, pc}
10007dd8:	4a03      	ldr	r2, [pc, #12]	; (10007de8 <hcd_edpt_open+0x4c>)
10007dda:	4904      	ldr	r1, [pc, #16]	; (10007dec <hcd_edpt_open+0x50>)
10007ddc:	4804      	ldr	r0, [pc, #16]	; (10007df0 <hcd_edpt_open+0x54>)
10007dde:	f7ff fcab 	bl	10007738 <__wrap_printf>
10007de2:	2000      	movs	r0, #0
10007de4:	e7f6      	b.n	10007dd4 <hcd_edpt_open+0x38>
10007de6:	46c0      	nop			; (mov r8, r8)
10007de8:	00000209 	.word	0x00000209
10007dec:	1000d430 	.word	0x1000d430
10007df0:	1000c068 	.word	0x1000c068

10007df4 <hcd_edpt_xfer>:
10007df4:	b5f0      	push	{r4, r5, r6, r7, lr}
10007df6:	46d6      	mov	lr, sl
10007df8:	464f      	mov	r7, r9
10007dfa:	4646      	mov	r6, r8
10007dfc:	b5c0      	push	{r6, r7, lr}
10007dfe:	b082      	sub	sp, #8
10007e00:	000e      	movs	r6, r1
10007e02:	0015      	movs	r5, r2
10007e04:	469a      	mov	sl, r3
10007e06:	ab0a      	add	r3, sp, #40	; 0x28
10007e08:	881b      	ldrh	r3, [r3, #0]
10007e0a:	4699      	mov	r9, r3
10007e0c:	277f      	movs	r7, #127	; 0x7f
10007e0e:	4017      	ands	r7, r2
10007e10:	09d3      	lsrs	r3, r2, #7
10007e12:	4698      	mov	r8, r3
10007e14:	0011      	movs	r1, r2
10007e16:	0030      	movs	r0, r6
10007e18:	f7ff fdf2 	bl	10007a00 <get_dev_ep>
10007e1c:	1e04      	subs	r4, r0, #0
10007e1e:	d01f      	beq.n	10007e60 <hcd_edpt_xfer+0x6c>
10007e20:	7e83      	ldrb	r3, [r0, #26]
10007e22:	2b00      	cmp	r3, #0
10007e24:	d123      	bne.n	10007e6e <hcd_edpt_xfer+0x7a>
10007e26:	7883      	ldrb	r3, [r0, #2]
10007e28:	42ab      	cmp	r3, r5
10007e2a:	d00a      	beq.n	10007e42 <hcd_edpt_xfer+0x4e>
10007e2c:	2f00      	cmp	r7, #0
10007e2e:	d125      	bne.n	10007e7c <hcd_edpt_xfer+0x88>
10007e30:	8b03      	ldrh	r3, [r0, #24]
10007e32:	2200      	movs	r2, #0
10007e34:	9201      	str	r2, [sp, #4]
10007e36:	7ec2      	ldrb	r2, [r0, #27]
10007e38:	9200      	str	r2, [sp, #0]
10007e3a:	002a      	movs	r2, r5
10007e3c:	0031      	movs	r1, r6
10007e3e:	f7ff fed1 	bl	10007be4 <_hw_endpoint_init>
10007e42:	4b25      	ldr	r3, [pc, #148]	; (10007ed8 <hcd_edpt_xfer+0xe4>)
10007e44:	429c      	cmp	r4, r3
10007e46:	d01f      	beq.n	10007e88 <hcd_edpt_xfer+0x94>
10007e48:	464a      	mov	r2, r9
10007e4a:	4651      	mov	r1, sl
10007e4c:	0020      	movs	r0, r4
10007e4e:	f000 f8ef 	bl	10008030 <hw_endpoint_xfer_start>
10007e52:	2001      	movs	r0, #1
10007e54:	b002      	add	sp, #8
10007e56:	bce0      	pop	{r5, r6, r7}
10007e58:	46ba      	mov	sl, r7
10007e5a:	46b1      	mov	r9, r6
10007e5c:	46a8      	mov	r8, r5
10007e5e:	bdf0      	pop	{r4, r5, r6, r7, pc}
10007e60:	4a1e      	ldr	r2, [pc, #120]	; (10007edc <hcd_edpt_xfer+0xe8>)
10007e62:	491f      	ldr	r1, [pc, #124]	; (10007ee0 <hcd_edpt_xfer+0xec>)
10007e64:	481f      	ldr	r0, [pc, #124]	; (10007ee4 <hcd_edpt_xfer+0xf0>)
10007e66:	f7ff fc67 	bl	10007738 <__wrap_printf>
10007e6a:	2000      	movs	r0, #0
10007e6c:	e7f2      	b.n	10007e54 <hcd_edpt_xfer+0x60>
10007e6e:	2189      	movs	r1, #137	; 0x89
10007e70:	4b1d      	ldr	r3, [pc, #116]	; (10007ee8 <hcd_edpt_xfer+0xf4>)
10007e72:	4a1b      	ldr	r2, [pc, #108]	; (10007ee0 <hcd_edpt_xfer+0xec>)
10007e74:	0089      	lsls	r1, r1, #2
10007e76:	481d      	ldr	r0, [pc, #116]	; (10007eec <hcd_edpt_xfer+0xf8>)
10007e78:	f7ff fa76 	bl	10007368 <__assert_func>
10007e7c:	4b1c      	ldr	r3, [pc, #112]	; (10007ef0 <hcd_edpt_xfer+0xfc>)
10007e7e:	4a18      	ldr	r2, [pc, #96]	; (10007ee0 <hcd_edpt_xfer+0xec>)
10007e80:	491c      	ldr	r1, [pc, #112]	; (10007ef4 <hcd_edpt_xfer+0x100>)
10007e82:	481a      	ldr	r0, [pc, #104]	; (10007eec <hcd_edpt_xfer+0xf8>)
10007e84:	f7ff fa70 	bl	10007368 <__assert_func>
10007e88:	464a      	mov	r2, r9
10007e8a:	4651      	mov	r1, sl
10007e8c:	0020      	movs	r0, r4
10007e8e:	f000 f8cf 	bl	10008030 <hw_endpoint_xfer_start>
10007e92:	043b      	lsls	r3, r7, #16
10007e94:	4333      	orrs	r3, r6
10007e96:	4a18      	ldr	r2, [pc, #96]	; (10007ef8 <hcd_edpt_xfer+0x104>)
10007e98:	6013      	str	r3, [r2, #0]
10007e9a:	4643      	mov	r3, r8
10007e9c:	2b00      	cmp	r3, #0
10007e9e:	d016      	beq.n	10007ece <hcd_edpt_xfer+0xda>
10007ea0:	4c16      	ldr	r4, [pc, #88]	; (10007efc <hcd_edpt_xfer+0x108>)
10007ea2:	2000      	movs	r0, #0
10007ea4:	f7ff fe7a 	bl	10007b9c <hcd_port_speed_get>
10007ea8:	0005      	movs	r5, r0
10007eaa:	0030      	movs	r0, r6
10007eac:	f000 faae 	bl	1000840c <tuh_speed_get>
10007eb0:	4285      	cmp	r5, r0
10007eb2:	d00e      	beq.n	10007ed2 <hcd_edpt_xfer+0xde>
10007eb4:	2340      	movs	r3, #64	; 0x40
10007eb6:	4323      	orrs	r3, r4
10007eb8:	2201      	movs	r2, #1
10007eba:	0019      	movs	r1, r3
10007ebc:	4391      	bics	r1, r2
10007ebe:	4a0e      	ldr	r2, [pc, #56]	; (10007ef8 <hcd_edpt_xfer+0x104>)
10007ec0:	64d1      	str	r1, [r2, #76]	; 0x4c
10007ec2:	210c      	movs	r1, #12
10007ec4:	3903      	subs	r1, #3
10007ec6:	d2fd      	bcs.n	10007ec4 <hcd_edpt_xfer+0xd0>
10007ec8:	64d3      	str	r3, [r2, #76]	; 0x4c
10007eca:	2001      	movs	r0, #1
10007ecc:	e7c2      	b.n	10007e54 <hcd_edpt_xfer+0x60>
10007ece:	4c0c      	ldr	r4, [pc, #48]	; (10007f00 <hcd_edpt_xfer+0x10c>)
10007ed0:	e7e7      	b.n	10007ea2 <hcd_edpt_xfer+0xae>
10007ed2:	2300      	movs	r3, #0
10007ed4:	e7ef      	b.n	10007eb6 <hcd_edpt_xfer+0xc2>
10007ed6:	46c0      	nop			; (mov r8, r8)
10007ed8:	20001f1c 	.word	0x20001f1c
10007edc:	00000221 	.word	0x00000221
10007ee0:	1000d3bc 	.word	0x1000d3bc
10007ee4:	1000c068 	.word	0x1000c068
10007ee8:	1000d384 	.word	0x1000d384
10007eec:	1000d274 	.word	0x1000d274
10007ef0:	1000d390 	.word	0x1000d390
10007ef4:	00000229 	.word	0x00000229
10007ef8:	50110000 	.word	0x50110000
10007efc:	20008609 	.word	0x20008609
10007f00:	20008605 	.word	0x20008605

10007f04 <hcd_edpt_abort_xfer>:
10007f04:	2000      	movs	r0, #0
10007f06:	4770      	bx	lr

10007f08 <hcd_setup_send>:
10007f08:	b570      	push	{r4, r5, r6, lr}
10007f0a:	b082      	sub	sp, #8
10007f0c:	000d      	movs	r5, r1
10007f0e:	2300      	movs	r3, #0
10007f10:	e004      	b.n	10007f1c <hcd_setup_send+0x14>
10007f12:	5cd4      	ldrb	r4, [r2, r3]
10007f14:	4824      	ldr	r0, [pc, #144]	; (10007fa8 <hcd_setup_send+0xa0>)
10007f16:	54c4      	strb	r4, [r0, r3]
10007f18:	3301      	adds	r3, #1
10007f1a:	b2db      	uxtb	r3, r3
10007f1c:	2b07      	cmp	r3, #7
10007f1e:	d9f8      	bls.n	10007f12 <hcd_setup_send+0xa>
10007f20:	2000      	movs	r0, #0
10007f22:	f7ff fd9b 	bl	10007a5c <_hw_endpoint_allocate>
10007f26:	1e04      	subs	r4, r0, #0
10007f28:	d028      	beq.n	10007f7c <hcd_setup_send+0x74>
10007f2a:	7e83      	ldrb	r3, [r0, #26]
10007f2c:	2b00      	cmp	r3, #0
10007f2e:	d12c      	bne.n	10007f8a <hcd_setup_send+0x82>
10007f30:	8b03      	ldrh	r3, [r0, #24]
10007f32:	2200      	movs	r2, #0
10007f34:	9201      	str	r2, [sp, #4]
10007f36:	9200      	str	r2, [sp, #0]
10007f38:	0029      	movs	r1, r5
10007f3a:	f7ff fe53 	bl	10007be4 <_hw_endpoint_init>
10007f3e:	7826      	ldrb	r6, [r4, #0]
10007f40:	2e00      	cmp	r6, #0
10007f42:	d028      	beq.n	10007f96 <hcd_setup_send+0x8e>
10007f44:	2308      	movs	r3, #8
10007f46:	82a3      	strh	r3, [r4, #20]
10007f48:	3b07      	subs	r3, #7
10007f4a:	76a3      	strb	r3, [r4, #26]
10007f4c:	4b17      	ldr	r3, [pc, #92]	; (10007fac <hcd_setup_send+0xa4>)
10007f4e:	601d      	str	r5, [r3, #0]
10007f50:	2000      	movs	r0, #0
10007f52:	f7ff fe23 	bl	10007b9c <hcd_port_speed_get>
10007f56:	0004      	movs	r4, r0
10007f58:	0028      	movs	r0, r5
10007f5a:	f000 fa57 	bl	1000840c <tuh_speed_get>
10007f5e:	4284      	cmp	r4, r0
10007f60:	d01f      	beq.n	10007fa2 <hcd_setup_send+0x9a>
10007f62:	4a13      	ldr	r2, [pc, #76]	; (10007fb0 <hcd_setup_send+0xa8>)
10007f64:	2301      	movs	r3, #1
10007f66:	0011      	movs	r1, r2
10007f68:	4399      	bics	r1, r3
10007f6a:	4b10      	ldr	r3, [pc, #64]	; (10007fac <hcd_setup_send+0xa4>)
10007f6c:	64d9      	str	r1, [r3, #76]	; 0x4c
10007f6e:	210c      	movs	r1, #12
10007f70:	3903      	subs	r1, #3
10007f72:	d2fd      	bcs.n	10007f70 <hcd_setup_send+0x68>
10007f74:	64da      	str	r2, [r3, #76]	; 0x4c
10007f76:	0030      	movs	r0, r6
10007f78:	b002      	add	sp, #8
10007f7a:	bd70      	pop	{r4, r5, r6, pc}
10007f7c:	4a0d      	ldr	r2, [pc, #52]	; (10007fb4 <hcd_setup_send+0xac>)
10007f7e:	490e      	ldr	r1, [pc, #56]	; (10007fb8 <hcd_setup_send+0xb0>)
10007f80:	480e      	ldr	r0, [pc, #56]	; (10007fbc <hcd_setup_send+0xb4>)
10007f82:	f7ff fbd9 	bl	10007738 <__wrap_printf>
10007f86:	2600      	movs	r6, #0
10007f88:	e7f5      	b.n	10007f76 <hcd_setup_send+0x6e>
10007f8a:	4b0d      	ldr	r3, [pc, #52]	; (10007fc0 <hcd_setup_send+0xb8>)
10007f8c:	4a0a      	ldr	r2, [pc, #40]	; (10007fb8 <hcd_setup_send+0xb0>)
10007f8e:	490d      	ldr	r1, [pc, #52]	; (10007fc4 <hcd_setup_send+0xbc>)
10007f90:	480d      	ldr	r0, [pc, #52]	; (10007fc8 <hcd_setup_send+0xc0>)
10007f92:	f7ff f9e9 	bl	10007368 <__assert_func>
10007f96:	4b0d      	ldr	r3, [pc, #52]	; (10007fcc <hcd_setup_send+0xc4>)
10007f98:	4a07      	ldr	r2, [pc, #28]	; (10007fb8 <hcd_setup_send+0xb0>)
10007f9a:	490d      	ldr	r1, [pc, #52]	; (10007fd0 <hcd_setup_send+0xc8>)
10007f9c:	480a      	ldr	r0, [pc, #40]	; (10007fc8 <hcd_setup_send+0xc0>)
10007f9e:	f7ff f9e3 	bl	10007368 <__assert_func>
10007fa2:	4a0c      	ldr	r2, [pc, #48]	; (10007fd4 <hcd_setup_send+0xcc>)
10007fa4:	e7de      	b.n	10007f64 <hcd_setup_send+0x5c>
10007fa6:	46c0      	nop			; (mov r8, r8)
10007fa8:	50100000 	.word	0x50100000
10007fac:	50110000 	.word	0x50110000
10007fb0:	20008643 	.word	0x20008643
10007fb4:	0000025f 	.word	0x0000025f
10007fb8:	1000d3ac 	.word	0x1000d3ac
10007fbc:	1000c068 	.word	0x1000c068
10007fc0:	1000d384 	.word	0x1000d384
10007fc4:	00000262 	.word	0x00000262
10007fc8:	1000d274 	.word	0x1000d274
10007fcc:	1000d39c 	.word	0x1000d39c
10007fd0:	00000266 	.word	0x00000266
10007fd4:	20008603 	.word	0x20008603

10007fd8 <unaligned_memcpy>:
10007fd8:	e004      	b.n	10007fe4 <unaligned_memcpy+0xc>
10007fda:	780a      	ldrb	r2, [r1, #0]
10007fdc:	7002      	strb	r2, [r0, #0]
10007fde:	3101      	adds	r1, #1
10007fe0:	3001      	adds	r0, #1
10007fe2:	001a      	movs	r2, r3
10007fe4:	1e53      	subs	r3, r2, #1
10007fe6:	2a00      	cmp	r2, #0
10007fe8:	d1f7      	bne.n	10007fda <unaligned_memcpy+0x2>
10007fea:	4770      	bx	lr

10007fec <rp2040_usb_init>:
10007fec:	b510      	push	{r4, lr}
10007fee:	2380      	movs	r3, #128	; 0x80
10007ff0:	045b      	lsls	r3, r3, #17
10007ff2:	4a0a      	ldr	r2, [pc, #40]	; (1000801c <rp2040_usb_init+0x30>)
10007ff4:	6013      	str	r3, [r2, #0]
10007ff6:	4a0a      	ldr	r2, [pc, #40]	; (10008020 <rp2040_usb_init+0x34>)
10007ff8:	6013      	str	r3, [r2, #0]
10007ffa:	4b0a      	ldr	r3, [pc, #40]	; (10008024 <rp2040_usb_init+0x38>)
10007ffc:	681a      	ldr	r2, [r3, #0]
10007ffe:	2380      	movs	r3, #128	; 0x80
10008000:	045b      	lsls	r3, r3, #17
10008002:	4393      	bics	r3, r2
10008004:	d1f9      	bne.n	10007ffa <rp2040_usb_init+0xe>
10008006:	2280      	movs	r2, #128	; 0x80
10008008:	0152      	lsls	r2, r2, #5
1000800a:	2100      	movs	r1, #0
1000800c:	4806      	ldr	r0, [pc, #24]	; (10008028 <rp2040_usb_init+0x3c>)
1000800e:	f7fe f8ab 	bl	10006168 <__wrap_memset>
10008012:	4b06      	ldr	r3, [pc, #24]	; (1000802c <rp2040_usb_init+0x40>)
10008014:	2209      	movs	r2, #9
10008016:	675a      	str	r2, [r3, #116]	; 0x74
10008018:	bd10      	pop	{r4, pc}
1000801a:	46c0      	nop			; (mov r8, r8)
1000801c:	4000e000 	.word	0x4000e000
10008020:	4000f000 	.word	0x4000f000
10008024:	4000c008 	.word	0x4000c008
10008028:	50100000 	.word	0x50100000
1000802c:	50110000 	.word	0x50110000

10008030 <hw_endpoint_xfer_start>:
10008030:	b570      	push	{r4, r5, r6, lr}
10008032:	0004      	movs	r4, r0
10008034:	000d      	movs	r5, r1
10008036:	0016      	movs	r6, r2
10008038:	7e83      	ldrb	r3, [r0, #26]
1000803a:	2b00      	cmp	r3, #0
1000803c:	d117      	bne.n	1000806e <hw_endpoint_xfer_start+0x3e>
1000803e:	82a6      	strh	r6, [r4, #20]
10008040:	2300      	movs	r3, #0
10008042:	82e3      	strh	r3, [r4, #22]
10008044:	3301      	adds	r3, #1
10008046:	76a3      	strb	r3, [r4, #26]
10008048:	6125      	str	r5, [r4, #16]
1000804a:	0020      	movs	r0, r4
1000804c:	f003 fd18 	bl	1000ba80 <__e15_is_bulkin_ep_veneer>
10008050:	2800      	cmp	r0, #0
10008052:	d004      	beq.n	1000805e <hw_endpoint_xfer_start+0x2e>
10008054:	4a0c      	ldr	r2, [pc, #48]	; (10008088 <hw_endpoint_xfer_start+0x58>)
10008056:	2390      	movs	r3, #144	; 0x90
10008058:	2180      	movs	r1, #128	; 0x80
1000805a:	0289      	lsls	r1, r1, #10
1000805c:	50d1      	str	r1, [r2, r3]
1000805e:	0020      	movs	r0, r4
10008060:	f003 fd16 	bl	1000ba90 <__e15_is_critical_frame_period_veneer>
10008064:	2800      	cmp	r0, #0
10008066:	d00a      	beq.n	1000807e <hw_endpoint_xfer_start+0x4e>
10008068:	2301      	movs	r3, #1
1000806a:	7723      	strb	r3, [r4, #28]
1000806c:	bd70      	pop	{r4, r5, r6, pc}
1000806e:	7881      	ldrb	r1, [r0, #2]
10008070:	4806      	ldr	r0, [pc, #24]	; (1000808c <hw_endpoint_xfer_start+0x5c>)
10008072:	f7ff fb61 	bl	10007738 <__wrap_printf>
10008076:	0020      	movs	r0, r4
10008078:	f003 fd3a 	bl	1000baf0 <__hw_endpoint_reset_transfer_veneer>
1000807c:	e7df      	b.n	1000803e <hw_endpoint_xfer_start+0xe>
1000807e:	0020      	movs	r0, r4
10008080:	f003 fd2e 	bl	1000bae0 <__hw_endpoint_start_next_buffer_veneer>
10008084:	e7f2      	b.n	1000806c <hw_endpoint_xfer_start+0x3c>
10008086:	46c0      	nop			; (mov r8, r8)
10008088:	50112000 	.word	0x50112000
1000808c:	1000d56c 	.word	0x1000d56c

10008090 <_control_blocking_complete_cb>:
10008090:	6943      	ldr	r3, [r0, #20]
10008092:	78c2      	ldrb	r2, [r0, #3]
10008094:	701a      	strb	r2, [r3, #0]
10008096:	4770      	bx	lr

10008098 <get_new_address>:
10008098:	2800      	cmp	r0, #0
1000809a:	d002      	beq.n	100080a2 <get_new_address+0xa>
1000809c:	2105      	movs	r1, #5
1000809e:	2004      	movs	r0, #4
100080a0:	e004      	b.n	100080ac <get_new_address+0x14>
100080a2:	2104      	movs	r1, #4
100080a4:	2000      	movs	r0, #0
100080a6:	e001      	b.n	100080ac <get_new_address+0x14>
100080a8:	3001      	adds	r0, #1
100080aa:	b2c0      	uxtb	r0, r0
100080ac:	4281      	cmp	r1, r0
100080ae:	d909      	bls.n	100080c4 <get_new_address+0x2c>
100080b0:	2256      	movs	r2, #86	; 0x56
100080b2:	4342      	muls	r2, r0
100080b4:	4b04      	ldr	r3, [pc, #16]	; (100080c8 <get_new_address+0x30>)
100080b6:	189b      	adds	r3, r3, r2
100080b8:	791b      	ldrb	r3, [r3, #4]
100080ba:	07db      	lsls	r3, r3, #31
100080bc:	d4f4      	bmi.n	100080a8 <get_new_address+0x10>
100080be:	3001      	adds	r0, #1
100080c0:	b2c0      	uxtb	r0, r0
100080c2:	e000      	b.n	100080c6 <get_new_address+0x2e>
100080c4:	2000      	movs	r0, #0
100080c6:	4770      	bx	lr
100080c8:	2000194c 	.word	0x2000194c

100080cc <clear_device>:
100080cc:	b510      	push	{r4, lr}
100080ce:	0004      	movs	r4, r0
100080d0:	2256      	movs	r2, #86	; 0x56
100080d2:	2100      	movs	r1, #0
100080d4:	f7fe f848 	bl	10006168 <__wrap_memset>
100080d8:	0020      	movs	r0, r4
100080da:	300d      	adds	r0, #13
100080dc:	2208      	movs	r2, #8
100080de:	21ff      	movs	r1, #255	; 0xff
100080e0:	f7fe f842 	bl	10006168 <__wrap_memset>
100080e4:	0020      	movs	r0, r4
100080e6:	3015      	adds	r0, #21
100080e8:	2220      	movs	r2, #32
100080ea:	21ff      	movs	r1, #255	; 0xff
100080ec:	f7fe f83c 	bl	10006168 <__wrap_memset>
100080f0:	bd10      	pop	{r4, pc}
	...

100080f4 <_control_xfer_complete>:
100080f4:	b5f0      	push	{r4, r5, r6, r7, lr}
100080f6:	b089      	sub	sp, #36	; 0x24
100080f8:	0007      	movs	r7, r0
100080fa:	000e      	movs	r6, r1
100080fc:	ad06      	add	r5, sp, #24
100080fe:	4c14      	ldr	r4, [pc, #80]	; (10008150 <_control_xfer_complete+0x5c>)
10008100:	002b      	movs	r3, r5
10008102:	0022      	movs	r2, r4
10008104:	ca03      	ldmia	r2!, {r0, r1}
10008106:	c303      	stmia	r3!, {r0, r1}
10008108:	2218      	movs	r2, #24
1000810a:	2100      	movs	r1, #0
1000810c:	4668      	mov	r0, sp
1000810e:	f7fe f82b 	bl	10006168 <__wrap_memset>
10008112:	466b      	mov	r3, sp
10008114:	701f      	strb	r7, [r3, #0]
10008116:	70de      	strb	r6, [r3, #3]
10008118:	8ae3      	ldrh	r3, [r4, #22]
1000811a:	9301      	str	r3, [sp, #4]
1000811c:	9502      	str	r5, [sp, #8]
1000811e:	68a3      	ldr	r3, [r4, #8]
10008120:	9303      	str	r3, [sp, #12]
10008122:	68e3      	ldr	r3, [r4, #12]
10008124:	9304      	str	r3, [sp, #16]
10008126:	6923      	ldr	r3, [r4, #16]
10008128:	9305      	str	r3, [sp, #20]
1000812a:	4d0a      	ldr	r5, [pc, #40]	; (10008154 <_control_xfer_complete+0x60>)
1000812c:	2101      	movs	r1, #1
1000812e:	4249      	negs	r1, r1
10008130:	6828      	ldr	r0, [r5, #0]
10008132:	f003 fcbd 	bl	1000bab0 <__mutex_enter_timeout_ms_veneer>
10008136:	2300      	movs	r3, #0
10008138:	7563      	strb	r3, [r4, #21]
1000813a:	6828      	ldr	r0, [r5, #0]
1000813c:	f003 fc90 	bl	1000ba60 <__mutex_exit_veneer>
10008140:	9b04      	ldr	r3, [sp, #16]
10008142:	2b00      	cmp	r3, #0
10008144:	d001      	beq.n	1000814a <_control_xfer_complete+0x56>
10008146:	4668      	mov	r0, sp
10008148:	4798      	blx	r3
1000814a:	b009      	add	sp, #36	; 0x24
1000814c:	bdf0      	pop	{r4, r5, r6, r7, pc}
1000814e:	46c0      	nop			; (mov r8, r8)
10008150:	2000165c 	.word	0x2000165c
10008154:	20001afc 	.word	0x20001afc

10008158 <enum_full_complete>:
10008158:	b510      	push	{r4, lr}
1000815a:	4b06      	ldr	r3, [pc, #24]	; (10008174 <enum_full_complete+0x1c>)
1000815c:	78da      	ldrb	r2, [r3, #3]
1000815e:	2110      	movs	r1, #16
10008160:	438a      	bics	r2, r1
10008162:	70da      	strb	r2, [r3, #3]
10008164:	7858      	ldrb	r0, [r3, #1]
10008166:	2800      	cmp	r0, #0
10008168:	d100      	bne.n	1000816c <enum_full_complete+0x14>
1000816a:	bd10      	pop	{r4, pc}
1000816c:	f001 fb24 	bl	100097b8 <hub_edpt_status_xfer>
10008170:	e7fb      	b.n	1000816a <enum_full_complete+0x12>
10008172:	46c0      	nop			; (mov r8, r8)
10008174:	20001674 	.word	0x20001674

10008178 <_parse_configuration_descriptor>:
10008178:	b5f8      	push	{r3, r4, r5, r6, r7, lr}
1000817a:	46de      	mov	lr, fp
1000817c:	4657      	mov	r7, sl
1000817e:	464e      	mov	r6, r9
10008180:	4645      	mov	r5, r8
10008182:	b5e0      	push	{r5, r6, r7, lr}
10008184:	4680      	mov	r8, r0
10008186:	000d      	movs	r5, r1
10008188:	0003      	movs	r3, r0
1000818a:	3b01      	subs	r3, #1
1000818c:	b2db      	uxtb	r3, r3
1000818e:	2b04      	cmp	r3, #4
10008190:	d80e      	bhi.n	100081b0 <_parse_configuration_descriptor+0x38>
10008192:	0003      	movs	r3, r0
10008194:	3b01      	subs	r3, #1
10008196:	2656      	movs	r6, #86	; 0x56
10008198:	435e      	muls	r6, r3
1000819a:	4b41      	ldr	r3, [pc, #260]	; (100082a0 <_parse_configuration_descriptor+0x128>)
1000819c:	18f6      	adds	r6, r6, r3
1000819e:	78aa      	ldrb	r2, [r5, #2]
100081a0:	78eb      	ldrb	r3, [r5, #3]
100081a2:	021b      	lsls	r3, r3, #8
100081a4:	4313      	orrs	r3, r2
100081a6:	469a      	mov	sl, r3
100081a8:	44aa      	add	sl, r5
100081aa:	7829      	ldrb	r1, [r5, #0]
100081ac:	186d      	adds	r5, r5, r1
100081ae:	e05f      	b.n	10008270 <_parse_configuration_descriptor+0xf8>
100081b0:	2600      	movs	r6, #0
100081b2:	e7f4      	b.n	1000819e <_parse_configuration_descriptor+0x26>
100081b4:	78eb      	ldrb	r3, [r5, #3]
100081b6:	4699      	mov	r9, r3
100081b8:	782b      	ldrb	r3, [r5, #0]
100081ba:	18ed      	adds	r5, r5, r3
100081bc:	e05f      	b.n	1000827e <_parse_configuration_descriptor+0x106>
100081be:	4a39      	ldr	r2, [pc, #228]	; (100082a4 <_parse_configuration_descriptor+0x12c>)
100081c0:	4939      	ldr	r1, [pc, #228]	; (100082a8 <_parse_configuration_descriptor+0x130>)
100081c2:	483a      	ldr	r0, [pc, #232]	; (100082ac <_parse_configuration_descriptor+0x134>)
100081c4:	f7ff fab8 	bl	10007738 <__wrap_printf>
100081c8:	2000      	movs	r0, #0
100081ca:	e034      	b.n	10008236 <_parse_configuration_descriptor+0xbe>
100081cc:	4a38      	ldr	r2, [pc, #224]	; (100082b0 <_parse_configuration_descriptor+0x138>)
100081ce:	4936      	ldr	r1, [pc, #216]	; (100082a8 <_parse_configuration_descriptor+0x130>)
100081d0:	4836      	ldr	r0, [pc, #216]	; (100082ac <_parse_configuration_descriptor+0x134>)
100081d2:	f7ff fab1 	bl	10007738 <__wrap_printf>
100081d6:	2000      	movs	r0, #0
100081d8:	e02d      	b.n	10008236 <_parse_configuration_descriptor+0xbe>
100081da:	1c53      	adds	r3, r2, #1
100081dc:	42a3      	cmp	r3, r4
100081de:	db22      	blt.n	10008226 <_parse_configuration_descriptor+0xae>
100081e0:	1aa2      	subs	r2, r4, r2
100081e2:	00d3      	lsls	r3, r2, #3
100081e4:	1a9b      	subs	r3, r3, r2
100081e6:	009b      	lsls	r3, r3, #2
100081e8:	4a32      	ldr	r2, [pc, #200]	; (100082b4 <_parse_configuration_descriptor+0x13c>)
100081ea:	18d2      	adds	r2, r2, r3
100081ec:	2a00      	cmp	r2, #0
100081ee:	d008      	beq.n	10008202 <_parse_configuration_descriptor+0x8a>
100081f0:	68d3      	ldr	r3, [r2, #12]
100081f2:	469b      	mov	fp, r3
100081f4:	7830      	ldrb	r0, [r6, #0]
100081f6:	003b      	movs	r3, r7
100081f8:	002a      	movs	r2, r5
100081fa:	4641      	mov	r1, r8
100081fc:	47d8      	blx	fp
100081fe:	2800      	cmp	r0, #0
10008200:	d11f      	bne.n	10008242 <_parse_configuration_descriptor+0xca>
10008202:	3401      	adds	r4, #1
10008204:	b2e4      	uxtb	r4, r4
10008206:	4b2c      	ldr	r3, [pc, #176]	; (100082b8 <_parse_configuration_descriptor+0x140>)
10008208:	781b      	ldrb	r3, [r3, #0]
1000820a:	3301      	adds	r3, #1
1000820c:	42a3      	cmp	r3, r4
1000820e:	db2e      	blt.n	1000826e <_parse_configuration_descriptor+0xf6>
10008210:	4b29      	ldr	r3, [pc, #164]	; (100082b8 <_parse_configuration_descriptor+0x140>)
10008212:	781a      	ldrb	r2, [r3, #0]
10008214:	4294      	cmp	r4, r2
10008216:	d2e0      	bcs.n	100081da <_parse_configuration_descriptor+0x62>
10008218:	4b28      	ldr	r3, [pc, #160]	; (100082bc <_parse_configuration_descriptor+0x144>)
1000821a:	681a      	ldr	r2, [r3, #0]
1000821c:	00e3      	lsls	r3, r4, #3
1000821e:	1b1b      	subs	r3, r3, r4
10008220:	009b      	lsls	r3, r3, #2
10008222:	18d2      	adds	r2, r2, r3
10008224:	e7e2      	b.n	100081ec <_parse_configuration_descriptor+0x74>
10008226:	2200      	movs	r2, #0
10008228:	e7e0      	b.n	100081ec <_parse_configuration_descriptor+0x74>
1000822a:	4a25      	ldr	r2, [pc, #148]	; (100082c0 <_parse_configuration_descriptor+0x148>)
1000822c:	491e      	ldr	r1, [pc, #120]	; (100082a8 <_parse_configuration_descriptor+0x130>)
1000822e:	481f      	ldr	r0, [pc, #124]	; (100082ac <_parse_configuration_descriptor+0x134>)
10008230:	f7ff fa82 	bl	10007738 <__wrap_printf>
10008234:	2000      	movs	r0, #0
10008236:	bcf0      	pop	{r4, r5, r6, r7}
10008238:	46bb      	mov	fp, r7
1000823a:	46b2      	mov	sl, r6
1000823c:	46a9      	mov	r9, r5
1000823e:	46a0      	mov	r8, r4
10008240:	bdf8      	pop	{r3, r4, r5, r6, r7, pc}
10008242:	2200      	movs	r2, #0
10008244:	4591      	cmp	r9, r2
10008246:	d90b      	bls.n	10008260 <_parse_configuration_descriptor+0xe8>
10008248:	78ab      	ldrb	r3, [r5, #2]
1000824a:	189b      	adds	r3, r3, r2
1000824c:	b2db      	uxtb	r3, r3
1000824e:	18f1      	adds	r1, r6, r3
10008250:	7b49      	ldrb	r1, [r1, #13]
10008252:	29ff      	cmp	r1, #255	; 0xff
10008254:	d1e9      	bne.n	1000822a <_parse_configuration_descriptor+0xb2>
10008256:	18f3      	adds	r3, r6, r3
10008258:	735c      	strb	r4, [r3, #13]
1000825a:	3201      	adds	r2, #1
1000825c:	b2d2      	uxtb	r2, r2
1000825e:	e7f1      	b.n	10008244 <_parse_configuration_descriptor+0xcc>
10008260:	0023      	movs	r3, r4
10008262:	003a      	movs	r2, r7
10008264:	0029      	movs	r1, r5
10008266:	0030      	movs	r0, r6
10008268:	3015      	adds	r0, #21
1000826a:	f002 f8ad 	bl	1000a3c8 <tu_edpt_bind_driver>
1000826e:	19ed      	adds	r5, r5, r7
10008270:	4555      	cmp	r5, sl
10008272:	d213      	bcs.n	1000829c <_parse_configuration_descriptor+0x124>
10008274:	786b      	ldrb	r3, [r5, #1]
10008276:	2b0b      	cmp	r3, #11
10008278:	d09c      	beq.n	100081b4 <_parse_configuration_descriptor+0x3c>
1000827a:	2301      	movs	r3, #1
1000827c:	4699      	mov	r9, r3
1000827e:	786b      	ldrb	r3, [r5, #1]
10008280:	2b04      	cmp	r3, #4
10008282:	d19c      	bne.n	100081be <_parse_configuration_descriptor+0x46>
10008284:	4653      	mov	r3, sl
10008286:	1b5a      	subs	r2, r3, r5
10008288:	b292      	uxth	r2, r2
1000828a:	4649      	mov	r1, r9
1000828c:	0028      	movs	r0, r5
1000828e:	f002 f8ae 	bl	1000a3ee <tu_desc_get_interface_total_len>
10008292:	0007      	movs	r7, r0
10008294:	2808      	cmp	r0, #8
10008296:	d999      	bls.n	100081cc <_parse_configuration_descriptor+0x54>
10008298:	2400      	movs	r4, #0
1000829a:	e7b4      	b.n	10008206 <_parse_configuration_descriptor+0x8e>
1000829c:	2001      	movs	r0, #1
1000829e:	e7ca      	b.n	10008236 <_parse_configuration_descriptor+0xbe>
100082a0:	2000194c 	.word	0x2000194c
100082a4:	0000066e 	.word	0x0000066e
100082a8:	1000d6a0 	.word	0x1000d6a0
100082ac:	1000c068 	.word	0x1000c068
100082b0:	00000687 	.word	0x00000687
100082b4:	1000d6fc 	.word	0x1000d6fc
100082b8:	20002c6b 	.word	0x20002c6b
100082bc:	20001654 	.word	0x20001654
100082c0:	00000695 	.word	0x00000695

100082c4 <process_removing_device>:
100082c4:	b5f0      	push	{r4, r5, r6, r7, lr}
100082c6:	46d6      	mov	lr, sl
100082c8:	464f      	mov	r7, r9
100082ca:	4646      	mov	r6, r8
100082cc:	b5c0      	push	{r6, r7, lr}
100082ce:	0006      	movs	r6, r0
100082d0:	4688      	mov	r8, r1
100082d2:	4691      	mov	r9, r2
100082d4:	2300      	movs	r3, #0
100082d6:	469a      	mov	sl, r3
100082d8:	e046      	b.n	10008368 <process_removing_device+0xa4>
100082da:	3904      	subs	r1, #4
100082dc:	2301      	movs	r3, #1
100082de:	408b      	lsls	r3, r1
100082e0:	4652      	mov	r2, sl
100082e2:	431a      	orrs	r2, r3
100082e4:	4692      	mov	sl, r2
100082e6:	e069      	b.n	100083bc <process_removing_device+0xf8>
100082e8:	1c5a      	adds	r2, r3, #1
100082ea:	42ba      	cmp	r2, r7
100082ec:	db1c      	blt.n	10008328 <process_removing_device+0x64>
100082ee:	1afb      	subs	r3, r7, r3
100082f0:	00da      	lsls	r2, r3, #3
100082f2:	1ad2      	subs	r2, r2, r3
100082f4:	0092      	lsls	r2, r2, #2
100082f6:	4b3d      	ldr	r3, [pc, #244]	; (100083ec <process_removing_device+0x128>)
100082f8:	189b      	adds	r3, r3, r2
100082fa:	2b00      	cmp	r3, #0
100082fc:	d002      	beq.n	10008304 <process_removing_device+0x40>
100082fe:	699b      	ldr	r3, [r3, #24]
10008300:	0020      	movs	r0, r4
10008302:	4798      	blx	r3
10008304:	3701      	adds	r7, #1
10008306:	b2ff      	uxtb	r7, r7
10008308:	4b39      	ldr	r3, [pc, #228]	; (100083f0 <process_removing_device+0x12c>)
1000830a:	781b      	ldrb	r3, [r3, #0]
1000830c:	3301      	adds	r3, #1
1000830e:	42bb      	cmp	r3, r7
10008310:	db0c      	blt.n	1000832c <process_removing_device+0x68>
10008312:	4b37      	ldr	r3, [pc, #220]	; (100083f0 <process_removing_device+0x12c>)
10008314:	781b      	ldrb	r3, [r3, #0]
10008316:	429f      	cmp	r7, r3
10008318:	d2e6      	bcs.n	100082e8 <process_removing_device+0x24>
1000831a:	4b36      	ldr	r3, [pc, #216]	; (100083f4 <process_removing_device+0x130>)
1000831c:	681b      	ldr	r3, [r3, #0]
1000831e:	00fa      	lsls	r2, r7, #3
10008320:	1bd2      	subs	r2, r2, r7
10008322:	0092      	lsls	r2, r2, #2
10008324:	189b      	adds	r3, r3, r2
10008326:	e7e8      	b.n	100082fa <process_removing_device+0x36>
10008328:	2300      	movs	r3, #0
1000832a:	e7e6      	b.n	100082fa <process_removing_device+0x36>
1000832c:	0021      	movs	r1, r4
1000832e:	0030      	movs	r0, r6
10008330:	f7ff fcec 	bl	10007d0c <hcd_device_close>
10008334:	0028      	movs	r0, r5
10008336:	f7ff fec9 	bl	100080cc <clear_device>
1000833a:	4b2f      	ldr	r3, [pc, #188]	; (100083f8 <process_removing_device+0x134>)
1000833c:	7d1b      	ldrb	r3, [r3, #20]
1000833e:	42a3      	cmp	r3, r4
10008340:	d113      	bne.n	1000836a <process_removing_device+0xa6>
10008342:	4d2e      	ldr	r5, [pc, #184]	; (100083fc <process_removing_device+0x138>)
10008344:	2101      	movs	r1, #1
10008346:	4249      	negs	r1, r1
10008348:	6828      	ldr	r0, [r5, #0]
1000834a:	f003 fbb1 	bl	1000bab0 <__mutex_enter_timeout_ms_veneer>
1000834e:	4b2a      	ldr	r3, [pc, #168]	; (100083f8 <process_removing_device+0x134>)
10008350:	2200      	movs	r2, #0
10008352:	755a      	strb	r2, [r3, #21]
10008354:	6828      	ldr	r0, [r5, #0]
10008356:	f003 fb83 	bl	1000ba60 <__mutex_exit_veneer>
1000835a:	e006      	b.n	1000836a <process_removing_device+0xa6>
1000835c:	4653      	mov	r3, sl
1000835e:	2b00      	cmp	r3, #0
10008360:	d03f      	beq.n	100083e2 <process_removing_device+0x11e>
10008362:	2300      	movs	r3, #0
10008364:	2b00      	cmp	r3, #0
10008366:	d02b      	beq.n	100083c0 <process_removing_device+0xfc>
10008368:	2400      	movs	r4, #0
1000836a:	2c04      	cmp	r4, #4
1000836c:	d8f6      	bhi.n	1000835c <process_removing_device+0x98>
1000836e:	0021      	movs	r1, r4
10008370:	2356      	movs	r3, #86	; 0x56
10008372:	001d      	movs	r5, r3
10008374:	4365      	muls	r5, r4
10008376:	4a22      	ldr	r2, [pc, #136]	; (10008400 <process_removing_device+0x13c>)
10008378:	18ad      	adds	r5, r5, r2
1000837a:	3401      	adds	r4, #1
1000837c:	b2e4      	uxtb	r4, r4
1000837e:	434b      	muls	r3, r1
10008380:	5c9b      	ldrb	r3, [r3, r2]
10008382:	42b3      	cmp	r3, r6
10008384:	d1f1      	bne.n	1000836a <process_removing_device+0xa6>
10008386:	792b      	ldrb	r3, [r5, #4]
10008388:	07db      	lsls	r3, r3, #31
1000838a:	d5ee      	bpl.n	1000836a <process_removing_device+0xa6>
1000838c:	4643      	mov	r3, r8
1000838e:	2b00      	cmp	r3, #0
10008390:	d002      	beq.n	10008398 <process_removing_device+0xd4>
10008392:	786b      	ldrb	r3, [r5, #1]
10008394:	4543      	cmp	r3, r8
10008396:	d1e8      	bne.n	1000836a <process_removing_device+0xa6>
10008398:	464b      	mov	r3, r9
1000839a:	2b00      	cmp	r3, #0
1000839c:	d006      	beq.n	100083ac <process_removing_device+0xe8>
1000839e:	2256      	movs	r2, #86	; 0x56
100083a0:	434a      	muls	r2, r1
100083a2:	4b17      	ldr	r3, [pc, #92]	; (10008400 <process_removing_device+0x13c>)
100083a4:	189b      	adds	r3, r3, r2
100083a6:	789b      	ldrb	r3, [r3, #2]
100083a8:	454b      	cmp	r3, r9
100083aa:	d1de      	bne.n	1000836a <process_removing_device+0xa6>
100083ac:	2c04      	cmp	r4, #4
100083ae:	d894      	bhi.n	100082da <process_removing_device+0x16>
100083b0:	4b14      	ldr	r3, [pc, #80]	; (10008404 <process_removing_device+0x140>)
100083b2:	2b00      	cmp	r3, #0
100083b4:	d002      	beq.n	100083bc <process_removing_device+0xf8>
100083b6:	0020      	movs	r0, r4
100083b8:	f7f7 ffb3 	bl	10000322 <tuh_umount_cb>
100083bc:	2700      	movs	r7, #0
100083be:	e7a3      	b.n	10008308 <process_removing_device+0x44>
100083c0:	4652      	mov	r2, sl
100083c2:	40da      	lsrs	r2, r3
100083c4:	07d2      	lsls	r2, r2, #31
100083c6:	d402      	bmi.n	100083ce <process_removing_device+0x10a>
100083c8:	3301      	adds	r3, #1
100083ca:	b2db      	uxtb	r3, r3
100083cc:	e7ca      	b.n	10008364 <process_removing_device+0xa0>
100083ce:	2201      	movs	r2, #1
100083d0:	409a      	lsls	r2, r3
100083d2:	4651      	mov	r1, sl
100083d4:	4391      	bics	r1, r2
100083d6:	468a      	mov	sl, r1
100083d8:	1d59      	adds	r1, r3, #5
100083da:	b2ca      	uxtb	r2, r1
100083dc:	4690      	mov	r8, r2
100083de:	4699      	mov	r9, r3
100083e0:	e7c2      	b.n	10008368 <process_removing_device+0xa4>
100083e2:	bce0      	pop	{r5, r6, r7}
100083e4:	46ba      	mov	sl, r7
100083e6:	46b1      	mov	r9, r6
100083e8:	46a8      	mov	r8, r5
100083ea:	bdf0      	pop	{r4, r5, r6, r7, pc}
100083ec:	1000d6fc 	.word	0x1000d6fc
100083f0:	20002c6b 	.word	0x20002c6b
100083f4:	20001654 	.word	0x20001654
100083f8:	2000165c 	.word	0x2000165c
100083fc:	20001afc 	.word	0x20001afc
10008400:	2000194c 	.word	0x2000194c
10008404:	10000323 	.word	0x10000323

10008408 <tuh_event_hook_cb>:
10008408:	4770      	bx	lr
	...

1000840c <tuh_speed_get>:
1000840c:	1e43      	subs	r3, r0, #1
1000840e:	b2db      	uxtb	r3, r3
10008410:	2b04      	cmp	r3, #4
10008412:	d808      	bhi.n	10008426 <tuh_speed_get+0x1a>
10008414:	3801      	subs	r0, #1
10008416:	2356      	movs	r3, #86	; 0x56
10008418:	4358      	muls	r0, r3
1000841a:	4b05      	ldr	r3, [pc, #20]	; (10008430 <tuh_speed_get+0x24>)
1000841c:	18c0      	adds	r0, r0, r3
1000841e:	2800      	cmp	r0, #0
10008420:	d001      	beq.n	10008426 <tuh_speed_get+0x1a>
10008422:	78c0      	ldrb	r0, [r0, #3]
10008424:	4770      	bx	lr
10008426:	4b03      	ldr	r3, [pc, #12]	; (10008434 <tuh_speed_get+0x28>)
10008428:	78d8      	ldrb	r0, [r3, #3]
1000842a:	0700      	lsls	r0, r0, #28
1000842c:	0f00      	lsrs	r0, r0, #28
1000842e:	e7f9      	b.n	10008424 <tuh_speed_get+0x18>
10008430:	2000194c 	.word	0x2000194c
10008434:	20001674 	.word	0x20001674

10008438 <tuh_rhport_is_active>:
10008438:	4b03      	ldr	r3, [pc, #12]	; (10008448 <tuh_rhport_is_active+0x10>)
1000843a:	781b      	ldrb	r3, [r3, #0]
1000843c:	1a18      	subs	r0, r3, r0
1000843e:	4242      	negs	r2, r0
10008440:	4150      	adcs	r0, r2
10008442:	b2c0      	uxtb	r0, r0
10008444:	4770      	bx	lr
10008446:	46c0      	nop			; (mov r8, r8)
10008448:	20000a08 	.word	0x20000a08

1000844c <tuh_inited>:
1000844c:	4b03      	ldr	r3, [pc, #12]	; (1000845c <tuh_inited+0x10>)
1000844e:	7818      	ldrb	r0, [r3, #0]
10008450:	38ff      	subs	r0, #255	; 0xff
10008452:	1e43      	subs	r3, r0, #1
10008454:	4198      	sbcs	r0, r3
10008456:	b2c0      	uxtb	r0, r0
10008458:	4770      	bx	lr
1000845a:	46c0      	nop			; (mov r8, r8)
1000845c:	20000a08 	.word	0x20000a08

10008460 <tuh_init>:
10008460:	b570      	push	{r4, r5, r6, lr}
10008462:	0005      	movs	r5, r0
10008464:	f7ff ffe8 	bl	10008438 <tuh_rhport_is_active>
10008468:	1e04      	subs	r4, r0, #0
1000846a:	d10d      	bne.n	10008488 <tuh_init+0x28>
1000846c:	f7ff ffee 	bl	1000844c <tuh_inited>
10008470:	2800      	cmp	r0, #0
10008472:	d00b      	beq.n	1000848c <tuh_init+0x2c>
10008474:	4b33      	ldr	r3, [pc, #204]	; (10008544 <tuh_init+0xe4>)
10008476:	701d      	strb	r5, [r3, #0]
10008478:	0028      	movs	r0, r5
1000847a:	f7ff fb27 	bl	10007acc <hcd_init>
1000847e:	1e04      	subs	r4, r0, #0
10008480:	d059      	beq.n	10008536 <tuh_init+0xd6>
10008482:	0028      	movs	r0, r5
10008484:	f7ff fc74 	bl	10007d70 <hcd_int_enable>
10008488:	0020      	movs	r0, r4
1000848a:	bd70      	pop	{r4, r5, r6, pc}
1000848c:	4c2e      	ldr	r4, [pc, #184]	; (10008548 <tuh_init+0xe8>)
1000848e:	0020      	movs	r0, r4
10008490:	3014      	adds	r0, #20
10008492:	f7fc f82f 	bl	100044f4 <critical_section_init>
10008496:	0020      	movs	r0, r4
10008498:	f002 f86f 	bl	1000a57a <tu_fifo_clear>
1000849c:	4b2b      	ldr	r3, [pc, #172]	; (1000854c <tuh_init+0xec>)
1000849e:	601c      	str	r4, [r3, #0]
100084a0:	4c2b      	ldr	r4, [pc, #172]	; (10008550 <tuh_init+0xf0>)
100084a2:	0020      	movs	r0, r4
100084a4:	f7fb ffda 	bl	1000445c <mutex_init>
100084a8:	4b2a      	ldr	r3, [pc, #168]	; (10008554 <tuh_init+0xf4>)
100084aa:	601c      	str	r4, [r3, #0]
100084ac:	4b2a      	ldr	r3, [pc, #168]	; (10008558 <tuh_init+0xf8>)
100084ae:	2b00      	cmp	r3, #0
100084b0:	d004      	beq.n	100084bc <tuh_init+0x5c>
100084b2:	482a      	ldr	r0, [pc, #168]	; (1000855c <tuh_init+0xfc>)
100084b4:	e000      	b.n	100084b8 <tuh_init+0x58>
100084b6:	bf00      	nop
100084b8:	4b29      	ldr	r3, [pc, #164]	; (10008560 <tuh_init+0x100>)
100084ba:	6018      	str	r0, [r3, #0]
100084bc:	4b29      	ldr	r3, [pc, #164]	; (10008564 <tuh_init+0x104>)
100084be:	2200      	movs	r2, #0
100084c0:	601a      	str	r2, [r3, #0]
100084c2:	32d7      	adds	r2, #215	; 0xd7
100084c4:	0052      	lsls	r2, r2, #1
100084c6:	2100      	movs	r1, #0
100084c8:	4827      	ldr	r0, [pc, #156]	; (10008568 <tuh_init+0x108>)
100084ca:	f7fd fe4d 	bl	10006168 <__wrap_memset>
100084ce:	2218      	movs	r2, #24
100084d0:	2100      	movs	r1, #0
100084d2:	4826      	ldr	r0, [pc, #152]	; (1000856c <tuh_init+0x10c>)
100084d4:	f7fd fe48 	bl	10006168 <__wrap_memset>
100084d8:	2400      	movs	r4, #0
100084da:	e007      	b.n	100084ec <tuh_init+0x8c>
100084dc:	2056      	movs	r0, #86	; 0x56
100084de:	4360      	muls	r0, r4
100084e0:	4b21      	ldr	r3, [pc, #132]	; (10008568 <tuh_init+0x108>)
100084e2:	18c0      	adds	r0, r0, r3
100084e4:	f7ff fdf2 	bl	100080cc <clear_device>
100084e8:	3401      	adds	r4, #1
100084ea:	b2e4      	uxtb	r4, r4
100084ec:	2c04      	cmp	r4, #4
100084ee:	d9f5      	bls.n	100084dc <tuh_init+0x7c>
100084f0:	2400      	movs	r4, #0
100084f2:	e00e      	b.n	10008512 <tuh_init+0xb2>
100084f4:	1c5a      	adds	r2, r3, #1
100084f6:	42a2      	cmp	r2, r4
100084f8:	db1b      	blt.n	10008532 <tuh_init+0xd2>
100084fa:	1ae3      	subs	r3, r4, r3
100084fc:	00da      	lsls	r2, r3, #3
100084fe:	1ad2      	subs	r2, r2, r3
10008500:	0092      	lsls	r2, r2, #2
10008502:	4b1b      	ldr	r3, [pc, #108]	; (10008570 <tuh_init+0x110>)
10008504:	189b      	adds	r3, r3, r2
10008506:	2b00      	cmp	r3, #0
10008508:	d001      	beq.n	1000850e <tuh_init+0xae>
1000850a:	685b      	ldr	r3, [r3, #4]
1000850c:	4798      	blx	r3
1000850e:	3401      	adds	r4, #1
10008510:	b2e4      	uxtb	r4, r4
10008512:	4b12      	ldr	r3, [pc, #72]	; (1000855c <tuh_init+0xfc>)
10008514:	781b      	ldrb	r3, [r3, #0]
10008516:	3301      	adds	r3, #1
10008518:	42a3      	cmp	r3, r4
1000851a:	dbab      	blt.n	10008474 <tuh_init+0x14>
1000851c:	4b0f      	ldr	r3, [pc, #60]	; (1000855c <tuh_init+0xfc>)
1000851e:	781b      	ldrb	r3, [r3, #0]
10008520:	429c      	cmp	r4, r3
10008522:	d2e7      	bcs.n	100084f4 <tuh_init+0x94>
10008524:	4b0e      	ldr	r3, [pc, #56]	; (10008560 <tuh_init+0x100>)
10008526:	681b      	ldr	r3, [r3, #0]
10008528:	00e2      	lsls	r2, r4, #3
1000852a:	1b12      	subs	r2, r2, r4
1000852c:	0092      	lsls	r2, r2, #2
1000852e:	189b      	adds	r3, r3, r2
10008530:	e7e9      	b.n	10008506 <tuh_init+0xa6>
10008532:	2300      	movs	r3, #0
10008534:	e7e7      	b.n	10008506 <tuh_init+0xa6>
10008536:	22cb      	movs	r2, #203	; 0xcb
10008538:	0052      	lsls	r2, r2, #1
1000853a:	490e      	ldr	r1, [pc, #56]	; (10008574 <tuh_init+0x114>)
1000853c:	480e      	ldr	r0, [pc, #56]	; (10008578 <tuh_init+0x118>)
1000853e:	f7ff f8fb 	bl	10007738 <__wrap_printf>
10008542:	e7a1      	b.n	10008488 <tuh_init+0x28>
10008544:	20000a08 	.word	0x20000a08
10008548:	20000a0c 	.word	0x20000a0c
1000854c:	20001b08 	.word	0x20001b08
10008550:	20001b00 	.word	0x20001b00
10008554:	20001afc 	.word	0x20001afc
10008558:	00000000 	.word	0x00000000
1000855c:	20002c6b 	.word	0x20002c6b
10008560:	20001654 	.word	0x20001654
10008564:	20001674 	.word	0x20001674
10008568:	2000194c 	.word	0x2000194c
1000856c:	2000165c 	.word	0x2000165c
10008570:	1000d6fc 	.word	0x1000d6fc
10008574:	1000d658 	.word	0x1000d658
10008578:	1000c068 	.word	0x1000c068

1000857c <tuh_task_event_ready>:
1000857c:	b510      	push	{r4, lr}
1000857e:	f7ff ff65 	bl	1000844c <tuh_inited>
10008582:	2800      	cmp	r0, #0
10008584:	d100      	bne.n	10008588 <tuh_task_event_ready+0xc>
10008586:	bd10      	pop	{r4, pc}
10008588:	4b03      	ldr	r3, [pc, #12]	; (10008598 <tuh_task_event_ready+0x1c>)
1000858a:	6818      	ldr	r0, [r3, #0]
1000858c:	f001 ff86 	bl	1000a49c <tu_fifo_empty>
10008590:	2301      	movs	r3, #1
10008592:	4058      	eors	r0, r3
10008594:	b2c0      	uxtb	r0, r0
10008596:	e7f6      	b.n	10008586 <tuh_task_event_ready+0xa>
10008598:	20001b08 	.word	0x20001b08

1000859c <tuh_edpt_abort_xfer>:
1000859c:	b5f0      	push	{r4, r5, r6, r7, lr}
1000859e:	46c6      	mov	lr, r8
100085a0:	b500      	push	{lr}
100085a2:	0006      	movs	r6, r0
100085a4:	1e43      	subs	r3, r0, #1
100085a6:	b2db      	uxtb	r3, r3
100085a8:	2b04      	cmp	r3, #4
100085aa:	d84d      	bhi.n	10008648 <tuh_edpt_abort_xfer+0xac>
100085ac:	3801      	subs	r0, #1
100085ae:	2456      	movs	r4, #86	; 0x56
100085b0:	4344      	muls	r4, r0
100085b2:	482a      	ldr	r0, [pc, #168]	; (1000865c <tuh_edpt_abort_xfer+0xc0>)
100085b4:	1824      	adds	r4, r4, r0
100085b6:	2c00      	cmp	r4, #0
100085b8:	d04b      	beq.n	10008652 <tuh_edpt_abort_xfer+0xb6>
100085ba:	237f      	movs	r3, #127	; 0x7f
100085bc:	001f      	movs	r7, r3
100085be:	400f      	ands	r7, r1
100085c0:	09ca      	lsrs	r2, r1, #7
100085c2:	4690      	mov	r8, r2
100085c4:	420b      	tst	r3, r1
100085c6:	d11d      	bne.n	10008604 <tuh_edpt_abort_xfer+0x68>
100085c8:	4b25      	ldr	r3, [pc, #148]	; (10008660 <tuh_edpt_abort_xfer+0xc4>)
100085ca:	7d1b      	ldrb	r3, [r3, #20]
100085cc:	42b3      	cmp	r3, r6
100085ce:	d142      	bne.n	10008656 <tuh_edpt_abort_xfer+0xba>
100085d0:	4b23      	ldr	r3, [pc, #140]	; (10008660 <tuh_edpt_abort_xfer+0xc4>)
100085d2:	7d5b      	ldrb	r3, [r3, #21]
100085d4:	2b00      	cmp	r3, #0
100085d6:	d101      	bne.n	100085dc <tuh_edpt_abort_xfer+0x40>
100085d8:	2500      	movs	r5, #0
100085da:	e036      	b.n	1000864a <tuh_edpt_abort_xfer+0xae>
100085dc:	7820      	ldrb	r0, [r4, #0]
100085de:	000a      	movs	r2, r1
100085e0:	0031      	movs	r1, r6
100085e2:	f7ff fc8f 	bl	10007f04 <hcd_edpt_abort_xfer>
100085e6:	1e05      	subs	r5, r0, #0
100085e8:	d02f      	beq.n	1000864a <tuh_edpt_abort_xfer+0xae>
100085ea:	4c1e      	ldr	r4, [pc, #120]	; (10008664 <tuh_edpt_abort_xfer+0xc8>)
100085ec:	2101      	movs	r1, #1
100085ee:	4249      	negs	r1, r1
100085f0:	6820      	ldr	r0, [r4, #0]
100085f2:	f003 fa5d 	bl	1000bab0 <__mutex_enter_timeout_ms_veneer>
100085f6:	4b1a      	ldr	r3, [pc, #104]	; (10008660 <tuh_edpt_abort_xfer+0xc4>)
100085f8:	2200      	movs	r2, #0
100085fa:	755a      	strb	r2, [r3, #21]
100085fc:	6820      	ldr	r0, [r4, #0]
100085fe:	f003 fa2f 	bl	1000ba60 <__mutex_exit_veneer>
10008602:	e022      	b.n	1000864a <tuh_edpt_abort_xfer+0xae>
10008604:	007b      	lsls	r3, r7, #1
10008606:	18e3      	adds	r3, r4, r3
10008608:	4443      	add	r3, r8
1000860a:	3330      	adds	r3, #48	; 0x30
1000860c:	795b      	ldrb	r3, [r3, #5]
1000860e:	07db      	lsls	r3, r3, #31
10008610:	0fdd      	lsrs	r5, r3, #31
10008612:	2b00      	cmp	r3, #0
10008614:	d019      	beq.n	1000864a <tuh_edpt_abort_xfer+0xae>
10008616:	7820      	ldrb	r0, [r4, #0]
10008618:	000a      	movs	r2, r1
1000861a:	0031      	movs	r1, r6
1000861c:	f7ff fc72 	bl	10007f04 <hcd_edpt_abort_xfer>
10008620:	1e05      	subs	r5, r0, #0
10008622:	d012      	beq.n	1000864a <tuh_edpt_abort_xfer+0xae>
10008624:	007f      	lsls	r7, r7, #1
10008626:	19e3      	adds	r3, r4, r7
10008628:	4443      	add	r3, r8
1000862a:	3330      	adds	r3, #48	; 0x30
1000862c:	795a      	ldrb	r2, [r3, #5]
1000862e:	2101      	movs	r1, #1
10008630:	438a      	bics	r2, r1
10008632:	715a      	strb	r2, [r3, #5]
10008634:	4b0b      	ldr	r3, [pc, #44]	; (10008664 <tuh_edpt_abort_xfer+0xc8>)
10008636:	6819      	ldr	r1, [r3, #0]
10008638:	4447      	add	r7, r8
1000863a:	0038      	movs	r0, r7
1000863c:	3030      	adds	r0, #48	; 0x30
1000863e:	1820      	adds	r0, r4, r0
10008640:	3005      	adds	r0, #5
10008642:	f001 fe4d 	bl	1000a2e0 <tu_edpt_release>
10008646:	e000      	b.n	1000864a <tuh_edpt_abort_xfer+0xae>
10008648:	2500      	movs	r5, #0
1000864a:	0028      	movs	r0, r5
1000864c:	bc80      	pop	{r7}
1000864e:	46b8      	mov	r8, r7
10008650:	bdf0      	pop	{r4, r5, r6, r7, pc}
10008652:	2500      	movs	r5, #0
10008654:	e7f9      	b.n	1000864a <tuh_edpt_abort_xfer+0xae>
10008656:	2500      	movs	r5, #0
10008658:	e7f7      	b.n	1000864a <tuh_edpt_abort_xfer+0xae>
1000865a:	46c0      	nop			; (mov r8, r8)
1000865c:	2000194c 	.word	0x2000194c
10008660:	2000165c 	.word	0x2000165c
10008664:	20001afc 	.word	0x20001afc

10008668 <usbh_get_rhport>:
10008668:	1e43      	subs	r3, r0, #1
1000866a:	b2db      	uxtb	r3, r3
1000866c:	2b04      	cmp	r3, #4
1000866e:	d808      	bhi.n	10008682 <usbh_get_rhport+0x1a>
10008670:	3801      	subs	r0, #1
10008672:	2356      	movs	r3, #86	; 0x56
10008674:	4358      	muls	r0, r3
10008676:	4b04      	ldr	r3, [pc, #16]	; (10008688 <usbh_get_rhport+0x20>)
10008678:	18c0      	adds	r0, r0, r3
1000867a:	2800      	cmp	r0, #0
1000867c:	d001      	beq.n	10008682 <usbh_get_rhport+0x1a>
1000867e:	7800      	ldrb	r0, [r0, #0]
10008680:	4770      	bx	lr
10008682:	4b02      	ldr	r3, [pc, #8]	; (1000868c <usbh_get_rhport+0x24>)
10008684:	7818      	ldrb	r0, [r3, #0]
10008686:	e7fb      	b.n	10008680 <usbh_get_rhport+0x18>
10008688:	2000194c 	.word	0x2000194c
1000868c:	20001674 	.word	0x20001674

10008690 <usbh_edpt_control_open>:
10008690:	b530      	push	{r4, r5, lr}
10008692:	b083      	sub	sp, #12
10008694:	0004      	movs	r4, r0
10008696:	000d      	movs	r5, r1
10008698:	2207      	movs	r2, #7
1000869a:	2100      	movs	r1, #0
1000869c:	4668      	mov	r0, sp
1000869e:	f7fd fd63 	bl	10006168 <__wrap_memset>
100086a2:	2307      	movs	r3, #7
100086a4:	466a      	mov	r2, sp
100086a6:	7013      	strb	r3, [r2, #0]
100086a8:	3b02      	subs	r3, #2
100086aa:	7053      	strb	r3, [r2, #1]
100086ac:	8095      	strh	r5, [r2, #4]
100086ae:	0020      	movs	r0, r4
100086b0:	f7ff ffda 	bl	10008668 <usbh_get_rhport>
100086b4:	466a      	mov	r2, sp
100086b6:	0021      	movs	r1, r4
100086b8:	f7ff fb70 	bl	10007d9c <hcd_edpt_open>
100086bc:	b003      	add	sp, #12
100086be:	bd30      	pop	{r4, r5, pc}

100086c0 <usbh_control_xfer_cb>:
100086c0:	b5f0      	push	{r4, r5, r6, r7, lr}
100086c2:	b085      	sub	sp, #20
100086c4:	0005      	movs	r5, r0
100086c6:	0017      	movs	r7, r2
100086c8:	001c      	movs	r4, r3
100086ca:	f7ff ffcd 	bl	10008668 <usbh_get_rhport>
100086ce:	0006      	movs	r6, r0
100086d0:	2f00      	cmp	r7, #0
100086d2:	d10c      	bne.n	100086ee <usbh_control_xfer_cb+0x2e>
100086d4:	4b42      	ldr	r3, [pc, #264]	; (100087e0 <usbh_control_xfer_cb+0x120>)
100086d6:	7d5a      	ldrb	r2, [r3, #21]
100086d8:	b2d3      	uxtb	r3, r2
100086da:	2a02      	cmp	r2, #2
100086dc:	d011      	beq.n	10008702 <usbh_control_xfer_cb+0x42>
100086de:	2b03      	cmp	r3, #3
100086e0:	d057      	beq.n	10008792 <usbh_control_xfer_cb+0xd2>
100086e2:	2b01      	cmp	r3, #1
100086e4:	d009      	beq.n	100086fa <usbh_control_xfer_cb+0x3a>
100086e6:	2400      	movs	r4, #0
100086e8:	0020      	movs	r0, r4
100086ea:	b005      	add	sp, #20
100086ec:	bdf0      	pop	{r4, r5, r6, r7, pc}
100086ee:	0039      	movs	r1, r7
100086f0:	0028      	movs	r0, r5
100086f2:	f7ff fcff 	bl	100080f4 <_control_xfer_complete>
100086f6:	2401      	movs	r4, #1
100086f8:	e7f6      	b.n	100086e8 <usbh_control_xfer_cb+0x28>
100086fa:	4b39      	ldr	r3, [pc, #228]	; (100087e0 <usbh_control_xfer_cb+0x120>)
100086fc:	88db      	ldrh	r3, [r3, #6]
100086fe:	2b00      	cmp	r3, #0
10008700:	d121      	bne.n	10008746 <usbh_control_xfer_cb+0x86>
10008702:	b2a4      	uxth	r4, r4
10008704:	4f36      	ldr	r7, [pc, #216]	; (100087e0 <usbh_control_xfer_cb+0x120>)
10008706:	82fc      	strh	r4, [r7, #22]
10008708:	4c36      	ldr	r4, [pc, #216]	; (100087e4 <usbh_control_xfer_cb+0x124>)
1000870a:	2101      	movs	r1, #1
1000870c:	4249      	negs	r1, r1
1000870e:	6820      	ldr	r0, [r4, #0]
10008710:	f003 f9ce 	bl	1000bab0 <__mutex_enter_timeout_ms_veneer>
10008714:	2303      	movs	r3, #3
10008716:	757b      	strb	r3, [r7, #21]
10008718:	6820      	ldr	r0, [r4, #0]
1000871a:	f003 f9a1 	bl	1000ba60 <__mutex_exit_veneer>
1000871e:	783b      	ldrb	r3, [r7, #0]
10008720:	09db      	lsrs	r3, r3, #7
10008722:	d134      	bne.n	1000878e <usbh_control_xfer_cb+0xce>
10008724:	2280      	movs	r2, #128	; 0x80
10008726:	4252      	negs	r2, r2
10008728:	b2d2      	uxtb	r2, r2
1000872a:	2300      	movs	r3, #0
1000872c:	9300      	str	r3, [sp, #0]
1000872e:	0029      	movs	r1, r5
10008730:	0030      	movs	r0, r6
10008732:	f7ff fb5f 	bl	10007df4 <hcd_edpt_xfer>
10008736:	1e04      	subs	r4, r0, #0
10008738:	d1d6      	bne.n	100086e8 <usbh_control_xfer_cb+0x28>
1000873a:	4a2b      	ldr	r2, [pc, #172]	; (100087e8 <usbh_control_xfer_cb+0x128>)
1000873c:	492b      	ldr	r1, [pc, #172]	; (100087ec <usbh_control_xfer_cb+0x12c>)
1000873e:	482c      	ldr	r0, [pc, #176]	; (100087f0 <usbh_control_xfer_cb+0x130>)
10008740:	f7fe fffa 	bl	10007738 <__wrap_printf>
10008744:	e7d0      	b.n	100086e8 <usbh_control_xfer_cb+0x28>
10008746:	4f27      	ldr	r7, [pc, #156]	; (100087e4 <usbh_control_xfer_cb+0x124>)
10008748:	2101      	movs	r1, #1
1000874a:	4249      	negs	r1, r1
1000874c:	6838      	ldr	r0, [r7, #0]
1000874e:	f003 f9af 	bl	1000bab0 <__mutex_enter_timeout_ms_veneer>
10008752:	4c23      	ldr	r4, [pc, #140]	; (100087e0 <usbh_control_xfer_cb+0x120>)
10008754:	2302      	movs	r3, #2
10008756:	7563      	strb	r3, [r4, #21]
10008758:	6838      	ldr	r0, [r7, #0]
1000875a:	f003 f981 	bl	1000ba60 <__mutex_exit_veneer>
1000875e:	7823      	ldrb	r3, [r4, #0]
10008760:	09db      	lsrs	r3, r3, #7
10008762:	d012      	beq.n	1000878a <usbh_control_xfer_cb+0xca>
10008764:	2280      	movs	r2, #128	; 0x80
10008766:	4252      	negs	r2, r2
10008768:	b2d2      	uxtb	r2, r2
1000876a:	491d      	ldr	r1, [pc, #116]	; (100087e0 <usbh_control_xfer_cb+0x120>)
1000876c:	688b      	ldr	r3, [r1, #8]
1000876e:	88c9      	ldrh	r1, [r1, #6]
10008770:	9100      	str	r1, [sp, #0]
10008772:	0029      	movs	r1, r5
10008774:	0030      	movs	r0, r6
10008776:	f7ff fb3d 	bl	10007df4 <hcd_edpt_xfer>
1000877a:	1e04      	subs	r4, r0, #0
1000877c:	d1b4      	bne.n	100086e8 <usbh_control_xfer_cb+0x28>
1000877e:	4a1d      	ldr	r2, [pc, #116]	; (100087f4 <usbh_control_xfer_cb+0x134>)
10008780:	491a      	ldr	r1, [pc, #104]	; (100087ec <usbh_control_xfer_cb+0x12c>)
10008782:	481b      	ldr	r0, [pc, #108]	; (100087f0 <usbh_control_xfer_cb+0x130>)
10008784:	f7fe ffd8 	bl	10007738 <__wrap_printf>
10008788:	e7ae      	b.n	100086e8 <usbh_control_xfer_cb+0x28>
1000878a:	2200      	movs	r2, #0
1000878c:	e7ec      	b.n	10008768 <usbh_control_xfer_cb+0xa8>
1000878e:	2200      	movs	r2, #0
10008790:	e7ca      	b.n	10008728 <usbh_control_xfer_cb+0x68>
10008792:	4b13      	ldr	r3, [pc, #76]	; (100087e0 <usbh_control_xfer_cb+0x120>)
10008794:	785b      	ldrb	r3, [r3, #1]
10008796:	2b09      	cmp	r3, #9
10008798:	d005      	beq.n	100087a6 <usbh_control_xfer_cb+0xe6>
1000879a:	0039      	movs	r1, r7
1000879c:	0028      	movs	r0, r5
1000879e:	f7ff fca9 	bl	100080f4 <_control_xfer_complete>
100087a2:	2401      	movs	r4, #1
100087a4:	e7a0      	b.n	100086e8 <usbh_control_xfer_cb+0x28>
100087a6:	4b0e      	ldr	r3, [pc, #56]	; (100087e0 <usbh_control_xfer_cb+0x120>)
100087a8:	781b      	ldrb	r3, [r3, #0]
100087aa:	9303      	str	r3, [sp, #12]
100087ac:	2b00      	cmp	r3, #0
100087ae:	d1f4      	bne.n	1000879a <usbh_control_xfer_cb+0xda>
100087b0:	2601      	movs	r6, #1
100087b2:	e010      	b.n	100087d6 <usbh_control_xfer_cb+0x116>
100087b4:	2100      	movs	r1, #0
100087b6:	4331      	orrs	r1, r6
100087b8:	b2c9      	uxtb	r1, r1
100087ba:	0028      	movs	r0, r5
100087bc:	f7ff feee 	bl	1000859c <tuh_edpt_abort_xfer>
100087c0:	3401      	adds	r4, #1
100087c2:	b2e4      	uxtb	r4, r4
100087c4:	2c01      	cmp	r4, #1
100087c6:	d804      	bhi.n	100087d2 <usbh_control_xfer_cb+0x112>
100087c8:	2c00      	cmp	r4, #0
100087ca:	d0f3      	beq.n	100087b4 <usbh_control_xfer_cb+0xf4>
100087cc:	2180      	movs	r1, #128	; 0x80
100087ce:	4249      	negs	r1, r1
100087d0:	e7f1      	b.n	100087b6 <usbh_control_xfer_cb+0xf6>
100087d2:	3601      	adds	r6, #1
100087d4:	b2f6      	uxtb	r6, r6
100087d6:	2e0f      	cmp	r6, #15
100087d8:	d8df      	bhi.n	1000879a <usbh_control_xfer_cb+0xda>
100087da:	9c03      	ldr	r4, [sp, #12]
100087dc:	e7f2      	b.n	100087c4 <usbh_control_xfer_cb+0x104>
100087de:	46c0      	nop			; (mov r8, r8)
100087e0:	2000165c 	.word	0x2000165c
100087e4:	20001afc 	.word	0x20001afc
100087e8:	000002dd 	.word	0x000002dd
100087ec:	1000d688 	.word	0x1000d688
100087f0:	1000c068 	.word	0x1000c068
100087f4:	000002ce 	.word	0x000002ce

100087f8 <usbh_edpt_claim>:
100087f8:	b510      	push	{r4, lr}
100087fa:	1e43      	subs	r3, r0, #1
100087fc:	b2db      	uxtb	r3, r3
100087fe:	2b04      	cmp	r3, #4
10008800:	d809      	bhi.n	10008816 <usbh_edpt_claim+0x1e>
10008802:	1e43      	subs	r3, r0, #1
10008804:	2056      	movs	r0, #86	; 0x56
10008806:	4358      	muls	r0, r3
10008808:	4b0d      	ldr	r3, [pc, #52]	; (10008840 <usbh_edpt_claim+0x48>)
1000880a:	18c0      	adds	r0, r0, r3
1000880c:	2800      	cmp	r0, #0
1000880e:	d002      	beq.n	10008816 <usbh_edpt_claim+0x1e>
10008810:	7903      	ldrb	r3, [r0, #4]
10008812:	07db      	lsls	r3, r3, #31
10008814:	d407      	bmi.n	10008826 <usbh_edpt_claim+0x2e>
10008816:	22d3      	movs	r2, #211	; 0xd3
10008818:	0092      	lsls	r2, r2, #2
1000881a:	490a      	ldr	r1, [pc, #40]	; (10008844 <usbh_edpt_claim+0x4c>)
1000881c:	480a      	ldr	r0, [pc, #40]	; (10008848 <usbh_edpt_claim+0x50>)
1000881e:	f7fe ff8b 	bl	10007738 <__wrap_printf>
10008822:	2000      	movs	r0, #0
10008824:	bd10      	pop	{r4, pc}
10008826:	227f      	movs	r2, #127	; 0x7f
10008828:	400a      	ands	r2, r1
1000882a:	09cc      	lsrs	r4, r1, #7
1000882c:	4b07      	ldr	r3, [pc, #28]	; (1000884c <usbh_edpt_claim+0x54>)
1000882e:	6819      	ldr	r1, [r3, #0]
10008830:	0053      	lsls	r3, r2, #1
10008832:	191b      	adds	r3, r3, r4
10008834:	3330      	adds	r3, #48	; 0x30
10008836:	18c0      	adds	r0, r0, r3
10008838:	3005      	adds	r0, #5
1000883a:	f001 fd29 	bl	1000a290 <tu_edpt_claim>
1000883e:	e7f1      	b.n	10008824 <usbh_edpt_claim+0x2c>
10008840:	2000194c 	.word	0x2000194c
10008844:	1000d664 	.word	0x1000d664
10008848:	1000c068 	.word	0x1000c068
1000884c:	20001afc 	.word	0x20001afc

10008850 <usbh_edpt_release>:
10008850:	b510      	push	{r4, lr}
10008852:	1e42      	subs	r2, r0, #1
10008854:	b2d2      	uxtb	r2, r2
10008856:	2a04      	cmp	r2, #4
10008858:	d819      	bhi.n	1000888e <usbh_edpt_release+0x3e>
1000885a:	3801      	subs	r0, #1
1000885c:	2356      	movs	r3, #86	; 0x56
1000885e:	4343      	muls	r3, r0
10008860:	480d      	ldr	r0, [pc, #52]	; (10008898 <usbh_edpt_release+0x48>)
10008862:	181b      	adds	r3, r3, r0
10008864:	2b00      	cmp	r3, #0
10008866:	d014      	beq.n	10008892 <usbh_edpt_release+0x42>
10008868:	791a      	ldrb	r2, [r3, #4]
1000886a:	07d2      	lsls	r2, r2, #31
1000886c:	0fd0      	lsrs	r0, r2, #31
1000886e:	2a00      	cmp	r2, #0
10008870:	d100      	bne.n	10008874 <usbh_edpt_release+0x24>
10008872:	bd10      	pop	{r4, pc}
10008874:	207f      	movs	r0, #127	; 0x7f
10008876:	4008      	ands	r0, r1
10008878:	09cc      	lsrs	r4, r1, #7
1000887a:	4908      	ldr	r1, [pc, #32]	; (1000889c <usbh_edpt_release+0x4c>)
1000887c:	6809      	ldr	r1, [r1, #0]
1000887e:	0040      	lsls	r0, r0, #1
10008880:	1900      	adds	r0, r0, r4
10008882:	3030      	adds	r0, #48	; 0x30
10008884:	1818      	adds	r0, r3, r0
10008886:	3005      	adds	r0, #5
10008888:	f001 fd2a 	bl	1000a2e0 <tu_edpt_release>
1000888c:	e7f1      	b.n	10008872 <usbh_edpt_release+0x22>
1000888e:	2000      	movs	r0, #0
10008890:	e7ef      	b.n	10008872 <usbh_edpt_release+0x22>
10008892:	2000      	movs	r0, #0
10008894:	e7ed      	b.n	10008872 <usbh_edpt_release+0x22>
10008896:	46c0      	nop			; (mov r8, r8)
10008898:	2000194c 	.word	0x2000194c
1000889c:	20001afc 	.word	0x20001afc

100088a0 <usbh_edpt_xfer_with_callback>:
100088a0:	b5f0      	push	{r4, r5, r6, r7, lr}
100088a2:	46ce      	mov	lr, r9
100088a4:	4647      	mov	r7, r8
100088a6:	b580      	push	{r7, lr}
100088a8:	b085      	sub	sp, #20
100088aa:	9303      	str	r3, [sp, #12]
100088ac:	1e44      	subs	r4, r0, #1
100088ae:	b2e4      	uxtb	r4, r4
100088b0:	2c04      	cmp	r4, #4
100088b2:	d846      	bhi.n	10008942 <usbh_edpt_xfer_with_callback+0xa2>
100088b4:	1e45      	subs	r5, r0, #1
100088b6:	2456      	movs	r4, #86	; 0x56
100088b8:	436c      	muls	r4, r5
100088ba:	4d24      	ldr	r5, [pc, #144]	; (1000894c <usbh_edpt_xfer_with_callback+0xac>)
100088bc:	1964      	adds	r4, r4, r5
100088be:	2c00      	cmp	r4, #0
100088c0:	d041      	beq.n	10008946 <usbh_edpt_xfer_with_callback+0xa6>
100088c2:	267f      	movs	r6, #127	; 0x7f
100088c4:	400e      	ands	r6, r1
100088c6:	09cf      	lsrs	r7, r1, #7
100088c8:	0075      	lsls	r5, r6, #1
100088ca:	1965      	adds	r5, r4, r5
100088cc:	19ed      	adds	r5, r5, r7
100088ce:	3530      	adds	r5, #48	; 0x30
100088d0:	796d      	ldrb	r5, [r5, #5]
100088d2:	07eb      	lsls	r3, r5, #31
100088d4:	d421      	bmi.n	1000891a <usbh_edpt_xfer_with_callback+0x7a>
100088d6:	0075      	lsls	r5, r6, #1
100088d8:	1965      	adds	r5, r4, r5
100088da:	19ed      	adds	r5, r5, r7
100088dc:	2330      	movs	r3, #48	; 0x30
100088de:	4699      	mov	r9, r3
100088e0:	44a9      	add	r9, r5
100088e2:	464b      	mov	r3, r9
100088e4:	795d      	ldrb	r5, [r3, #5]
100088e6:	46ac      	mov	ip, r5
100088e8:	2501      	movs	r5, #1
100088ea:	46a8      	mov	r8, r5
100088ec:	4665      	mov	r5, ip
100088ee:	4643      	mov	r3, r8
100088f0:	431d      	orrs	r5, r3
100088f2:	002b      	movs	r3, r5
100088f4:	464d      	mov	r5, r9
100088f6:	716b      	strb	r3, [r5, #5]
100088f8:	7825      	ldrb	r5, [r4, #0]
100088fa:	9b03      	ldr	r3, [sp, #12]
100088fc:	9300      	str	r3, [sp, #0]
100088fe:	0013      	movs	r3, r2
10008900:	000a      	movs	r2, r1
10008902:	0001      	movs	r1, r0
10008904:	0028      	movs	r0, r5
10008906:	f7ff fa75 	bl	10007df4 <hcd_edpt_xfer>
1000890a:	1e05      	subs	r5, r0, #0
1000890c:	d00c      	beq.n	10008928 <usbh_edpt_xfer_with_callback+0x88>
1000890e:	0028      	movs	r0, r5
10008910:	b005      	add	sp, #20
10008912:	bcc0      	pop	{r6, r7}
10008914:	46b9      	mov	r9, r7
10008916:	46b0      	mov	r8, r6
10008918:	bdf0      	pop	{r4, r5, r6, r7, pc}
1000891a:	4a0d      	ldr	r2, [pc, #52]	; (10008950 <usbh_edpt_xfer_with_callback+0xb0>)
1000891c:	490d      	ldr	r1, [pc, #52]	; (10008954 <usbh_edpt_xfer_with_callback+0xb4>)
1000891e:	480e      	ldr	r0, [pc, #56]	; (10008958 <usbh_edpt_xfer_with_callback+0xb8>)
10008920:	f7fe ff0a 	bl	10007738 <__wrap_printf>
10008924:	2500      	movs	r5, #0
10008926:	e7f2      	b.n	1000890e <usbh_edpt_xfer_with_callback+0x6e>
10008928:	464f      	mov	r7, r9
1000892a:	797b      	ldrb	r3, [r7, #5]
1000892c:	2201      	movs	r2, #1
1000892e:	4393      	bics	r3, r2
10008930:	717b      	strb	r3, [r7, #5]
10008932:	797b      	ldrb	r3, [r7, #5]
10008934:	3203      	adds	r2, #3
10008936:	4393      	bics	r3, r2
10008938:	717b      	strb	r3, [r7, #5]
1000893a:	4808      	ldr	r0, [pc, #32]	; (1000895c <usbh_edpt_xfer_with_callback+0xbc>)
1000893c:	f7fe fecc 	bl	100076d8 <__wrap_puts>
10008940:	e7e5      	b.n	1000890e <usbh_edpt_xfer_with_callback+0x6e>
10008942:	2500      	movs	r5, #0
10008944:	e7e3      	b.n	1000890e <usbh_edpt_xfer_with_callback+0x6e>
10008946:	2500      	movs	r5, #0
10008948:	e7e1      	b.n	1000890e <usbh_edpt_xfer_with_callback+0x6e>
1000894a:	46c0      	nop			; (mov r8, r8)
1000894c:	2000194c 	.word	0x2000194c
10008950:	00000377 	.word	0x00000377
10008954:	1000d61c 	.word	0x1000d61c
10008958:	1000c068 	.word	0x1000c068
1000895c:	1000d5b4 	.word	0x1000d5b4

10008960 <tuh_edpt_open>:
10008960:	b570      	push	{r4, r5, r6, lr}
10008962:	0005      	movs	r5, r0
10008964:	000e      	movs	r6, r1
10008966:	f7ff fd51 	bl	1000840c <tuh_speed_get>
1000896a:	0001      	movs	r1, r0
1000896c:	0030      	movs	r0, r6
1000896e:	f001 fcd5 	bl	1000a31c <tu_edpt_validate>
10008972:	1e04      	subs	r4, r0, #0
10008974:	d009      	beq.n	1000898a <tuh_edpt_open+0x2a>
10008976:	0028      	movs	r0, r5
10008978:	f7ff fe76 	bl	10008668 <usbh_get_rhport>
1000897c:	0032      	movs	r2, r6
1000897e:	0029      	movs	r1, r5
10008980:	f7ff fa0c 	bl	10007d9c <hcd_edpt_open>
10008984:	0004      	movs	r4, r0
10008986:	0020      	movs	r0, r4
10008988:	bd70      	pop	{r4, r5, r6, pc}
1000898a:	4a03      	ldr	r2, [pc, #12]	; (10008998 <tuh_edpt_open+0x38>)
1000898c:	4903      	ldr	r1, [pc, #12]	; (1000899c <tuh_edpt_open+0x3c>)
1000898e:	4804      	ldr	r0, [pc, #16]	; (100089a0 <tuh_edpt_open+0x40>)
10008990:	f7fe fed2 	bl	10007738 <__wrap_printf>
10008994:	e7f7      	b.n	10008986 <tuh_edpt_open+0x26>
10008996:	46c0      	nop			; (mov r8, r8)
10008998:	0000039e 	.word	0x0000039e
1000899c:	1000d60c 	.word	0x1000d60c
100089a0:	1000c068 	.word	0x1000c068

100089a4 <usbh_driver_set_config_complete>:
100089a4:	b570      	push	{r4, r5, r6, lr}
100089a6:	0005      	movs	r5, r0
100089a8:	000c      	movs	r4, r1
100089aa:	1e43      	subs	r3, r0, #1
100089ac:	b2db      	uxtb	r3, r3
100089ae:	2b04      	cmp	r3, #4
100089b0:	d807      	bhi.n	100089c2 <usbh_driver_set_config_complete+0x1e>
100089b2:	1e43      	subs	r3, r0, #1
100089b4:	2056      	movs	r0, #86	; 0x56
100089b6:	4358      	muls	r0, r3
100089b8:	4b1b      	ldr	r3, [pc, #108]	; (10008a28 <usbh_driver_set_config_complete+0x84>)
100089ba:	18c0      	adds	r0, r0, r3
100089bc:	3401      	adds	r4, #1
100089be:	b2e4      	uxtb	r4, r4
100089c0:	e00e      	b.n	100089e0 <usbh_driver_set_config_complete+0x3c>
100089c2:	2000      	movs	r0, #0
100089c4:	e7fa      	b.n	100089bc <usbh_driver_set_config_complete+0x18>
100089c6:	1c51      	adds	r1, r2, #1
100089c8:	4299      	cmp	r1, r3
100089ca:	db18      	blt.n	100089fe <usbh_driver_set_config_complete+0x5a>
100089cc:	1a9b      	subs	r3, r3, r2
100089ce:	00da      	lsls	r2, r3, #3
100089d0:	1ad2      	subs	r2, r2, r3
100089d2:	0092      	lsls	r2, r2, #2
100089d4:	4b15      	ldr	r3, [pc, #84]	; (10008a2c <usbh_driver_set_config_complete+0x88>)
100089d6:	189b      	adds	r3, r3, r2
100089d8:	2b00      	cmp	r3, #0
100089da:	d112      	bne.n	10008a02 <usbh_driver_set_config_complete+0x5e>
100089dc:	3401      	adds	r4, #1
100089de:	b2e4      	uxtb	r4, r4
100089e0:	2c07      	cmp	r4, #7
100089e2:	d812      	bhi.n	10008a0a <usbh_driver_set_config_complete+0x66>
100089e4:	1903      	adds	r3, r0, r4
100089e6:	7b5b      	ldrb	r3, [r3, #13]
100089e8:	4a11      	ldr	r2, [pc, #68]	; (10008a30 <usbh_driver_set_config_complete+0x8c>)
100089ea:	7812      	ldrb	r2, [r2, #0]
100089ec:	4293      	cmp	r3, r2
100089ee:	d2ea      	bcs.n	100089c6 <usbh_driver_set_config_complete+0x22>
100089f0:	4a10      	ldr	r2, [pc, #64]	; (10008a34 <usbh_driver_set_config_complete+0x90>)
100089f2:	6812      	ldr	r2, [r2, #0]
100089f4:	00d9      	lsls	r1, r3, #3
100089f6:	1acb      	subs	r3, r1, r3
100089f8:	009b      	lsls	r3, r3, #2
100089fa:	18d3      	adds	r3, r2, r3
100089fc:	e7ec      	b.n	100089d8 <usbh_driver_set_config_complete+0x34>
100089fe:	2300      	movs	r3, #0
10008a00:	e7ea      	b.n	100089d8 <usbh_driver_set_config_complete+0x34>
10008a02:	691b      	ldr	r3, [r3, #16]
10008a04:	0021      	movs	r1, r4
10008a06:	0028      	movs	r0, r5
10008a08:	4798      	blx	r3
10008a0a:	2c08      	cmp	r4, #8
10008a0c:	d000      	beq.n	10008a10 <usbh_driver_set_config_complete+0x6c>
10008a0e:	bd70      	pop	{r4, r5, r6, pc}
10008a10:	f7ff fba2 	bl	10008158 <enum_full_complete>
10008a14:	2d04      	cmp	r5, #4
10008a16:	d8fa      	bhi.n	10008a0e <usbh_driver_set_config_complete+0x6a>
10008a18:	4b07      	ldr	r3, [pc, #28]	; (10008a38 <usbh_driver_set_config_complete+0x94>)
10008a1a:	2b00      	cmp	r3, #0
10008a1c:	d0f7      	beq.n	10008a0e <usbh_driver_set_config_complete+0x6a>
10008a1e:	0028      	movs	r0, r5
10008a20:	f7f7 fc7e 	bl	10000320 <tuh_mount_cb>
10008a24:	e7f3      	b.n	10008a0e <usbh_driver_set_config_complete+0x6a>
10008a26:	46c0      	nop			; (mov r8, r8)
10008a28:	2000194c 	.word	0x2000194c
10008a2c:	1000d6fc 	.word	0x1000d6fc
10008a30:	20002c6b 	.word	0x20002c6b
10008a34:	20001654 	.word	0x20001654
10008a38:	10000321 	.word	0x10000321

10008a3c <process_enumeration>:
10008a3c:	b530      	push	{r4, r5, lr}
10008a3e:	b085      	sub	sp, #20
10008a40:	0004      	movs	r4, r0
10008a42:	78c3      	ldrb	r3, [r0, #3]
10008a44:	2b00      	cmp	r3, #0
10008a46:	d10b      	bne.n	10008a60 <process_enumeration+0x24>
10008a48:	4bb2      	ldr	r3, [pc, #712]	; (10008d14 <process_enumeration+0x2d8>)
10008a4a:	2200      	movs	r2, #0
10008a4c:	701a      	strb	r2, [r3, #0]
10008a4e:	7805      	ldrb	r5, [r0, #0]
10008a50:	6943      	ldr	r3, [r0, #20]
10008a52:	2b0c      	cmp	r3, #12
10008a54:	d900      	bls.n	10008a58 <process_enumeration+0x1c>
10008a56:	e159      	b.n	10008d0c <process_enumeration+0x2d0>
10008a58:	009b      	lsls	r3, r3, #2
10008a5a:	4aaf      	ldr	r2, [pc, #700]	; (10008d18 <process_enumeration+0x2dc>)
10008a5c:	58d3      	ldr	r3, [r2, r3]
10008a5e:	469f      	mov	pc, r3
10008a60:	4bae      	ldr	r3, [pc, #696]	; (10008d1c <process_enumeration+0x2e0>)
10008a62:	78db      	ldrb	r3, [r3, #3]
10008a64:	06db      	lsls	r3, r3, #27
10008a66:	d505      	bpl.n	10008a74 <process_enumeration+0x38>
10008a68:	4baa      	ldr	r3, [pc, #680]	; (10008d14 <process_enumeration+0x2d8>)
10008a6a:	781b      	ldrb	r3, [r3, #0]
10008a6c:	2b02      	cmp	r3, #2
10008a6e:	d908      	bls.n	10008a82 <process_enumeration+0x46>
10008a70:	2000      	movs	r0, #0
10008a72:	e000      	b.n	10008a76 <process_enumeration+0x3a>
10008a74:	2000      	movs	r0, #0
10008a76:	2800      	cmp	r0, #0
10008a78:	d105      	bne.n	10008a86 <process_enumeration+0x4a>
10008a7a:	2800      	cmp	r0, #0
10008a7c:	d012      	beq.n	10008aa4 <process_enumeration+0x68>
10008a7e:	b005      	add	sp, #20
10008a80:	bd30      	pop	{r4, r5, pc}
10008a82:	2001      	movs	r0, #1
10008a84:	e7f7      	b.n	10008a76 <process_enumeration+0x3a>
10008a86:	4da3      	ldr	r5, [pc, #652]	; (10008d14 <process_enumeration+0x2d8>)
10008a88:	782b      	ldrb	r3, [r5, #0]
10008a8a:	3301      	adds	r3, #1
10008a8c:	702b      	strb	r3, [r5, #0]
10008a8e:	2064      	movs	r0, #100	; 0x64
10008a90:	f7fc f850 	bl	10004b34 <sleep_ms>
10008a94:	7829      	ldrb	r1, [r5, #0]
10008a96:	48a2      	ldr	r0, [pc, #648]	; (10008d20 <process_enumeration+0x2e4>)
10008a98:	f7fe fe4e 	bl	10007738 <__wrap_printf>
10008a9c:	0020      	movs	r0, r4
10008a9e:	f000 fabd 	bl	1000901c <tuh_control_xfer>
10008aa2:	e7ea      	b.n	10008a7a <process_enumeration+0x3e>
10008aa4:	f7ff fb58 	bl	10008158 <enum_full_complete>
10008aa8:	e7e9      	b.n	10008a7e <process_enumeration+0x42>
10008aaa:	4b9e      	ldr	r3, [pc, #632]	; (10008d24 <process_enumeration+0x2e8>)
10008aac:	681b      	ldr	r3, [r3, #0]
10008aae:	9303      	str	r3, [sp, #12]
10008ab0:	ab03      	add	r3, sp, #12
10008ab2:	781b      	ldrb	r3, [r3, #0]
10008ab4:	07db      	lsls	r3, r3, #31
10008ab6:	d519      	bpl.n	10008aec <process_enumeration+0xb0>
10008ab8:	ab03      	add	r3, sp, #12
10008aba:	785b      	ldrb	r3, [r3, #1]
10008abc:	075a      	lsls	r2, r3, #29
10008abe:	d418      	bmi.n	10008af2 <process_enumeration+0xb6>
10008ac0:	085b      	lsrs	r3, r3, #1
10008ac2:	2101      	movs	r1, #1
10008ac4:	4019      	ands	r1, r3
10008ac6:	4a95      	ldr	r2, [pc, #596]	; (10008d1c <process_enumeration+0x2e0>)
10008ac8:	78d3      	ldrb	r3, [r2, #3]
10008aca:	200f      	movs	r0, #15
10008acc:	4383      	bics	r3, r0
10008ace:	430b      	orrs	r3, r1
10008ad0:	70d3      	strb	r3, [r2, #3]
10008ad2:	ab03      	add	r3, sp, #12
10008ad4:	789b      	ldrb	r3, [r3, #2]
10008ad6:	06db      	lsls	r3, r3, #27
10008ad8:	d5d1      	bpl.n	10008a7e <process_enumeration+0x42>
10008ada:	7850      	ldrb	r0, [r2, #1]
10008adc:	7891      	ldrb	r1, [r2, #2]
10008ade:	2303      	movs	r3, #3
10008ae0:	9300      	str	r3, [sp, #0]
10008ae2:	4b91      	ldr	r3, [pc, #580]	; (10008d28 <process_enumeration+0x2ec>)
10008ae4:	2214      	movs	r2, #20
10008ae6:	f000 fc5f 	bl	100093a8 <hub_port_clear_feature>
10008aea:	e7c8      	b.n	10008a7e <process_enumeration+0x42>
10008aec:	f7ff fb34 	bl	10008158 <enum_full_complete>
10008af0:	e7c5      	b.n	10008a7e <process_enumeration+0x42>
10008af2:	2102      	movs	r1, #2
10008af4:	e7e7      	b.n	10008ac6 <process_enumeration+0x8a>
10008af6:	2032      	movs	r0, #50	; 0x32
10008af8:	f7fc f81c 	bl	10004b34 <sleep_ms>
10008afc:	4b87      	ldr	r3, [pc, #540]	; (10008d1c <process_enumeration+0x2e0>)
10008afe:	7899      	ldrb	r1, [r3, #2]
10008b00:	7858      	ldrb	r0, [r3, #1]
10008b02:	2306      	movs	r3, #6
10008b04:	9300      	str	r3, [sp, #0]
10008b06:	4b88      	ldr	r3, [pc, #544]	; (10008d28 <process_enumeration+0x2ec>)
10008b08:	4a86      	ldr	r2, [pc, #536]	; (10008d24 <process_enumeration+0x2e8>)
10008b0a:	f000 fdb7 	bl	1000967c <hub_port_get_status>
10008b0e:	2800      	cmp	r0, #0
10008b10:	d1b5      	bne.n	10008a7e <process_enumeration+0x42>
10008b12:	4a86      	ldr	r2, [pc, #536]	; (10008d2c <process_enumeration+0x2f0>)
10008b14:	4986      	ldr	r1, [pc, #536]	; (10008d30 <process_enumeration+0x2f4>)
10008b16:	4887      	ldr	r0, [pc, #540]	; (10008d34 <process_enumeration+0x2f8>)
10008b18:	f7fe fe0e 	bl	10007738 <__wrap_printf>
10008b1c:	e7af      	b.n	10008a7e <process_enumeration+0x42>
10008b1e:	4b81      	ldr	r3, [pc, #516]	; (10008d24 <process_enumeration+0x2e8>)
10008b20:	681b      	ldr	r3, [r3, #0]
10008b22:	9303      	str	r3, [sp, #12]
10008b24:	ab03      	add	r3, sp, #12
10008b26:	789b      	ldrb	r3, [r3, #2]
10008b28:	06db      	lsls	r3, r3, #27
10008b2a:	d5a8      	bpl.n	10008a7e <process_enumeration+0x42>
10008b2c:	4b7b      	ldr	r3, [pc, #492]	; (10008d1c <process_enumeration+0x2e0>)
10008b2e:	7858      	ldrb	r0, [r3, #1]
10008b30:	7899      	ldrb	r1, [r3, #2]
10008b32:	2307      	movs	r3, #7
10008b34:	9300      	str	r3, [sp, #0]
10008b36:	4b7c      	ldr	r3, [pc, #496]	; (10008d28 <process_enumeration+0x2ec>)
10008b38:	2214      	movs	r2, #20
10008b3a:	f000 fc35 	bl	100093a8 <hub_port_clear_feature>
10008b3e:	2800      	cmp	r0, #0
10008b40:	d19d      	bne.n	10008a7e <process_enumeration+0x42>
10008b42:	22ac      	movs	r2, #172	; 0xac
10008b44:	00d2      	lsls	r2, r2, #3
10008b46:	497a      	ldr	r1, [pc, #488]	; (10008d30 <process_enumeration+0x2f4>)
10008b48:	487a      	ldr	r0, [pc, #488]	; (10008d34 <process_enumeration+0x2f8>)
10008b4a:	f7fe fdf5 	bl	10007738 <__wrap_printf>
10008b4e:	e796      	b.n	10008a7e <process_enumeration+0x42>
10008b50:	2108      	movs	r1, #8
10008b52:	2000      	movs	r0, #0
10008b54:	f7ff fd9c 	bl	10008690 <usbh_edpt_control_open>
10008b58:	2800      	cmp	r0, #0
10008b5a:	d010      	beq.n	10008b7e <process_enumeration+0x142>
10008b5c:	2307      	movs	r3, #7
10008b5e:	9300      	str	r3, [sp, #0]
10008b60:	4b71      	ldr	r3, [pc, #452]	; (10008d28 <process_enumeration+0x2ec>)
10008b62:	2208      	movs	r2, #8
10008b64:	496f      	ldr	r1, [pc, #444]	; (10008d24 <process_enumeration+0x2e8>)
10008b66:	2000      	movs	r0, #0
10008b68:	f000 fbb0 	bl	100092cc <tuh_descriptor_get_device>
10008b6c:	2800      	cmp	r0, #0
10008b6e:	d000      	beq.n	10008b72 <process_enumeration+0x136>
10008b70:	e785      	b.n	10008a7e <process_enumeration+0x42>
10008b72:	4a71      	ldr	r2, [pc, #452]	; (10008d38 <process_enumeration+0x2fc>)
10008b74:	496e      	ldr	r1, [pc, #440]	; (10008d30 <process_enumeration+0x2f4>)
10008b76:	486f      	ldr	r0, [pc, #444]	; (10008d34 <process_enumeration+0x2f8>)
10008b78:	f7fe fdde 	bl	10007738 <__wrap_printf>
10008b7c:	e77f      	b.n	10008a7e <process_enumeration+0x42>
10008b7e:	4a6f      	ldr	r2, [pc, #444]	; (10008d3c <process_enumeration+0x300>)
10008b80:	496b      	ldr	r1, [pc, #428]	; (10008d30 <process_enumeration+0x2f4>)
10008b82:	486c      	ldr	r0, [pc, #432]	; (10008d34 <process_enumeration+0x2f8>)
10008b84:	f7fe fdd8 	bl	10007738 <__wrap_printf>
10008b88:	e779      	b.n	10008a7e <process_enumeration+0x42>
10008b8a:	f000 faf1 	bl	10009170 <enum_request_set_addr>
10008b8e:	e776      	b.n	10008a7e <process_enumeration+0x42>
10008b90:	2002      	movs	r0, #2
10008b92:	f7fb ffcf 	bl	10004b34 <sleep_ms>
10008b96:	68a3      	ldr	r3, [r4, #8]
10008b98:	789d      	ldrb	r5, [r3, #2]
10008b9a:	1e6b      	subs	r3, r5, #1
10008b9c:	b2db      	uxtb	r3, r3
10008b9e:	2b04      	cmp	r3, #4
10008ba0:	d826      	bhi.n	10008bf0 <process_enumeration+0x1b4>
10008ba2:	1e6b      	subs	r3, r5, #1
10008ba4:	2456      	movs	r4, #86	; 0x56
10008ba6:	435c      	muls	r4, r3
10008ba8:	4b65      	ldr	r3, [pc, #404]	; (10008d40 <process_enumeration+0x304>)
10008baa:	18e4      	adds	r4, r4, r3
10008bac:	2c00      	cmp	r4, #0
10008bae:	d01f      	beq.n	10008bf0 <process_enumeration+0x1b4>
10008bb0:	7923      	ldrb	r3, [r4, #4]
10008bb2:	2202      	movs	r2, #2
10008bb4:	4313      	orrs	r3, r2
10008bb6:	7123      	strb	r3, [r4, #4]
10008bb8:	4b58      	ldr	r3, [pc, #352]	; (10008d1c <process_enumeration+0x2e0>)
10008bba:	7818      	ldrb	r0, [r3, #0]
10008bbc:	2100      	movs	r1, #0
10008bbe:	f7ff f8a5 	bl	10007d0c <hcd_device_close>
10008bc2:	7961      	ldrb	r1, [r4, #5]
10008bc4:	0028      	movs	r0, r5
10008bc6:	f7ff fd63 	bl	10008690 <usbh_edpt_control_open>
10008bca:	2800      	cmp	r0, #0
10008bcc:	d016      	beq.n	10008bfc <process_enumeration+0x1c0>
10008bce:	2309      	movs	r3, #9
10008bd0:	9300      	str	r3, [sp, #0]
10008bd2:	4b55      	ldr	r3, [pc, #340]	; (10008d28 <process_enumeration+0x2ec>)
10008bd4:	2212      	movs	r2, #18
10008bd6:	4953      	ldr	r1, [pc, #332]	; (10008d24 <process_enumeration+0x2e8>)
10008bd8:	0028      	movs	r0, r5
10008bda:	f000 fb77 	bl	100092cc <tuh_descriptor_get_device>
10008bde:	2800      	cmp	r0, #0
10008be0:	d000      	beq.n	10008be4 <process_enumeration+0x1a8>
10008be2:	e74c      	b.n	10008a7e <process_enumeration+0x42>
10008be4:	4a57      	ldr	r2, [pc, #348]	; (10008d44 <process_enumeration+0x308>)
10008be6:	4952      	ldr	r1, [pc, #328]	; (10008d30 <process_enumeration+0x2f4>)
10008be8:	4852      	ldr	r0, [pc, #328]	; (10008d34 <process_enumeration+0x2f8>)
10008bea:	f7fe fda5 	bl	10007738 <__wrap_printf>
10008bee:	e746      	b.n	10008a7e <process_enumeration+0x42>
10008bf0:	4a55      	ldr	r2, [pc, #340]	; (10008d48 <process_enumeration+0x30c>)
10008bf2:	494f      	ldr	r1, [pc, #316]	; (10008d30 <process_enumeration+0x2f4>)
10008bf4:	484f      	ldr	r0, [pc, #316]	; (10008d34 <process_enumeration+0x2f8>)
10008bf6:	f7fe fd9f 	bl	10007738 <__wrap_printf>
10008bfa:	e740      	b.n	10008a7e <process_enumeration+0x42>
10008bfc:	4a53      	ldr	r2, [pc, #332]	; (10008d4c <process_enumeration+0x310>)
10008bfe:	494c      	ldr	r1, [pc, #304]	; (10008d30 <process_enumeration+0x2f4>)
10008c00:	484c      	ldr	r0, [pc, #304]	; (10008d34 <process_enumeration+0x2f8>)
10008c02:	f7fe fd99 	bl	10007738 <__wrap_printf>
10008c06:	e73a      	b.n	10008a7e <process_enumeration+0x42>
10008c08:	1e6b      	subs	r3, r5, #1
10008c0a:	b2db      	uxtb	r3, r3
10008c0c:	2b04      	cmp	r3, #4
10008c0e:	d823      	bhi.n	10008c58 <process_enumeration+0x21c>
10008c10:	1e6a      	subs	r2, r5, #1
10008c12:	2356      	movs	r3, #86	; 0x56
10008c14:	4353      	muls	r3, r2
10008c16:	4a4a      	ldr	r2, [pc, #296]	; (10008d40 <process_enumeration+0x304>)
10008c18:	189b      	adds	r3, r3, r2
10008c1a:	2b00      	cmp	r3, #0
10008c1c:	d01c      	beq.n	10008c58 <process_enumeration+0x21c>
10008c1e:	4a41      	ldr	r2, [pc, #260]	; (10008d24 <process_enumeration+0x2e8>)
10008c20:	8911      	ldrh	r1, [r2, #8]
10008c22:	80d9      	strh	r1, [r3, #6]
10008c24:	8951      	ldrh	r1, [r2, #10]
10008c26:	8119      	strh	r1, [r3, #8]
10008c28:	7b91      	ldrb	r1, [r2, #14]
10008c2a:	7299      	strb	r1, [r3, #10]
10008c2c:	7bd1      	ldrb	r1, [r2, #15]
10008c2e:	72d9      	strb	r1, [r3, #11]
10008c30:	7c11      	ldrb	r1, [r2, #16]
10008c32:	7319      	strb	r1, [r3, #12]
10008c34:	230a      	movs	r3, #10
10008c36:	9301      	str	r3, [sp, #4]
10008c38:	4b3b      	ldr	r3, [pc, #236]	; (10008d28 <process_enumeration+0x2ec>)
10008c3a:	9300      	str	r3, [sp, #0]
10008c3c:	2309      	movs	r3, #9
10008c3e:	2100      	movs	r1, #0
10008c40:	0028      	movs	r0, r5
10008c42:	f000 fb55 	bl	100092f0 <tuh_descriptor_get_configuration>
10008c46:	2800      	cmp	r0, #0
10008c48:	d000      	beq.n	10008c4c <process_enumeration+0x210>
10008c4a:	e718      	b.n	10008a7e <process_enumeration+0x42>
10008c4c:	4a40      	ldr	r2, [pc, #256]	; (10008d50 <process_enumeration+0x314>)
10008c4e:	4938      	ldr	r1, [pc, #224]	; (10008d30 <process_enumeration+0x2f4>)
10008c50:	4838      	ldr	r0, [pc, #224]	; (10008d34 <process_enumeration+0x2f8>)
10008c52:	f7fe fd71 	bl	10007738 <__wrap_printf>
10008c56:	e712      	b.n	10008a7e <process_enumeration+0x42>
10008c58:	4a3e      	ldr	r2, [pc, #248]	; (10008d54 <process_enumeration+0x318>)
10008c5a:	4935      	ldr	r1, [pc, #212]	; (10008d30 <process_enumeration+0x2f4>)
10008c5c:	4835      	ldr	r0, [pc, #212]	; (10008d34 <process_enumeration+0x2f8>)
10008c5e:	f7fe fd6b 	bl	10007738 <__wrap_printf>
10008c62:	e70c      	b.n	10008a7e <process_enumeration+0x42>
10008c64:	4b2f      	ldr	r3, [pc, #188]	; (10008d24 <process_enumeration+0x2e8>)
10008c66:	885b      	ldrh	r3, [r3, #2]
10008c68:	2280      	movs	r2, #128	; 0x80
10008c6a:	0052      	lsls	r2, r2, #1
10008c6c:	4293      	cmp	r3, r2
10008c6e:	d812      	bhi.n	10008c96 <process_enumeration+0x25a>
10008c70:	220b      	movs	r2, #11
10008c72:	9201      	str	r2, [sp, #4]
10008c74:	4a2c      	ldr	r2, [pc, #176]	; (10008d28 <process_enumeration+0x2ec>)
10008c76:	9200      	str	r2, [sp, #0]
10008c78:	4a2a      	ldr	r2, [pc, #168]	; (10008d24 <process_enumeration+0x2e8>)
10008c7a:	2100      	movs	r1, #0
10008c7c:	0028      	movs	r0, r5
10008c7e:	f000 fb37 	bl	100092f0 <tuh_descriptor_get_configuration>
10008c82:	2800      	cmp	r0, #0
10008c84:	d000      	beq.n	10008c88 <process_enumeration+0x24c>
10008c86:	e6fa      	b.n	10008a7e <process_enumeration+0x42>
10008c88:	22b9      	movs	r2, #185	; 0xb9
10008c8a:	00d2      	lsls	r2, r2, #3
10008c8c:	4928      	ldr	r1, [pc, #160]	; (10008d30 <process_enumeration+0x2f4>)
10008c8e:	4829      	ldr	r0, [pc, #164]	; (10008d34 <process_enumeration+0x2f8>)
10008c90:	f7fe fd52 	bl	10007738 <__wrap_printf>
10008c94:	e6f3      	b.n	10008a7e <process_enumeration+0x42>
10008c96:	4a30      	ldr	r2, [pc, #192]	; (10008d58 <process_enumeration+0x31c>)
10008c98:	4925      	ldr	r1, [pc, #148]	; (10008d30 <process_enumeration+0x2f4>)
10008c9a:	4826      	ldr	r0, [pc, #152]	; (10008d34 <process_enumeration+0x2f8>)
10008c9c:	f7fe fd4c 	bl	10007738 <__wrap_printf>
10008ca0:	e6ed      	b.n	10008a7e <process_enumeration+0x42>
10008ca2:	230c      	movs	r3, #12
10008ca4:	4a20      	ldr	r2, [pc, #128]	; (10008d28 <process_enumeration+0x2ec>)
10008ca6:	2101      	movs	r1, #1
10008ca8:	0028      	movs	r0, r5
10008caa:	f000 fb2f 	bl	1000930c <tuh_configuration_set>
10008cae:	2800      	cmp	r0, #0
10008cb0:	d000      	beq.n	10008cb4 <process_enumeration+0x278>
10008cb2:	e6e4      	b.n	10008a7e <process_enumeration+0x42>
10008cb4:	4a29      	ldr	r2, [pc, #164]	; (10008d5c <process_enumeration+0x320>)
10008cb6:	491e      	ldr	r1, [pc, #120]	; (10008d30 <process_enumeration+0x2f4>)
10008cb8:	481e      	ldr	r0, [pc, #120]	; (10008d34 <process_enumeration+0x2f8>)
10008cba:	f7fe fd3d 	bl	10007738 <__wrap_printf>
10008cbe:	e6de      	b.n	10008a7e <process_enumeration+0x42>
10008cc0:	1e6b      	subs	r3, r5, #1
10008cc2:	b2db      	uxtb	r3, r3
10008cc4:	2b04      	cmp	r3, #4
10008cc6:	d815      	bhi.n	10008cf4 <process_enumeration+0x2b8>
10008cc8:	1e6a      	subs	r2, r5, #1
10008cca:	2356      	movs	r3, #86	; 0x56
10008ccc:	4353      	muls	r3, r2
10008cce:	4a1c      	ldr	r2, [pc, #112]	; (10008d40 <process_enumeration+0x304>)
10008cd0:	189b      	adds	r3, r3, r2
10008cd2:	2b00      	cmp	r3, #0
10008cd4:	d00e      	beq.n	10008cf4 <process_enumeration+0x2b8>
10008cd6:	791a      	ldrb	r2, [r3, #4]
10008cd8:	2104      	movs	r1, #4
10008cda:	430a      	orrs	r2, r1
10008cdc:	711a      	strb	r2, [r3, #4]
10008cde:	4911      	ldr	r1, [pc, #68]	; (10008d24 <process_enumeration+0x2e8>)
10008ce0:	0028      	movs	r0, r5
10008ce2:	f7ff fa49 	bl	10008178 <_parse_configuration_descriptor>
10008ce6:	2800      	cmp	r0, #0
10008ce8:	d00a      	beq.n	10008d00 <process_enumeration+0x2c4>
10008cea:	21ff      	movs	r1, #255	; 0xff
10008cec:	0028      	movs	r0, r5
10008cee:	f7ff fe59 	bl	100089a4 <usbh_driver_set_config_complete>
10008cf2:	e6c4      	b.n	10008a7e <process_enumeration+0x42>
10008cf4:	4a1a      	ldr	r2, [pc, #104]	; (10008d60 <process_enumeration+0x324>)
10008cf6:	490e      	ldr	r1, [pc, #56]	; (10008d30 <process_enumeration+0x2f4>)
10008cf8:	480e      	ldr	r0, [pc, #56]	; (10008d34 <process_enumeration+0x2f8>)
10008cfa:	f7fe fd1d 	bl	10007738 <__wrap_printf>
10008cfe:	e6be      	b.n	10008a7e <process_enumeration+0x42>
10008d00:	4a18      	ldr	r2, [pc, #96]	; (10008d64 <process_enumeration+0x328>)
10008d02:	490b      	ldr	r1, [pc, #44]	; (10008d30 <process_enumeration+0x2f4>)
10008d04:	480b      	ldr	r0, [pc, #44]	; (10008d34 <process_enumeration+0x2f8>)
10008d06:	f7fe fd17 	bl	10007738 <__wrap_printf>
10008d0a:	e6b8      	b.n	10008a7e <process_enumeration+0x42>
10008d0c:	f7ff fa24 	bl	10008158 <enum_full_complete>
10008d10:	e6b5      	b.n	10008a7e <process_enumeration+0x42>
10008d12:	46c0      	nop			; (mov r8, r8)
10008d14:	20002c6d 	.word	0x20002c6d
10008d18:	1000d5d8 	.word	0x1000d5d8
10008d1c:	20001674 	.word	0x20001674
10008d20:	1000d5bc 	.word	0x1000d5bc
10008d24:	2000184c 	.word	0x2000184c
10008d28:	10008a3d 	.word	0x10008a3d
10008d2c:	00000556 	.word	0x00000556
10008d30:	1000d6d8 	.word	0x1000d6d8
10008d34:	1000c068 	.word	0x1000c068
10008d38:	0000056e 	.word	0x0000056e
10008d3c:	0000056a 	.word	0x0000056a
10008d40:	2000194c 	.word	0x2000194c
10008d44:	000005a1 	.word	0x000005a1
10008d48:	00000596 	.word	0x00000596
10008d4c:	0000059d 	.word	0x0000059d
10008d50:	000005b6 	.word	0x000005b6
10008d54:	000005a9 	.word	0x000005a9
10008d58:	000005c3 	.word	0x000005c3
10008d5c:	000005ce 	.word	0x000005ce
10008d60:	000005d4 	.word	0x000005d4
10008d64:	000005da 	.word	0x000005da

10008d68 <enum_new_device>:
10008d68:	b530      	push	{r4, r5, lr}
10008d6a:	b089      	sub	sp, #36	; 0x24
10008d6c:	0003      	movs	r3, r0
10008d6e:	7800      	ldrb	r0, [r0, #0]
10008d70:	4a25      	ldr	r2, [pc, #148]	; (10008e08 <enum_new_device+0xa0>)
10008d72:	7010      	strb	r0, [r2, #0]
10008d74:	7919      	ldrb	r1, [r3, #4]
10008d76:	7051      	strb	r1, [r2, #1]
10008d78:	795b      	ldrb	r3, [r3, #5]
10008d7a:	7093      	strb	r3, [r2, #2]
10008d7c:	2900      	cmp	r1, #0
10008d7e:	d12a      	bne.n	10008dd6 <enum_new_device+0x6e>
10008d80:	f7fe fedc 	bl	10007b3c <hcd_port_reset>
10008d84:	2032      	movs	r0, #50	; 0x32
10008d86:	f7fb fed5 	bl	10004b34 <sleep_ms>
10008d8a:	4c1f      	ldr	r4, [pc, #124]	; (10008e08 <enum_new_device+0xa0>)
10008d8c:	7820      	ldrb	r0, [r4, #0]
10008d8e:	f7fe fee7 	bl	10007b60 <hcd_port_reset_end>
10008d92:	20e1      	movs	r0, #225	; 0xe1
10008d94:	0040      	lsls	r0, r0, #1
10008d96:	f7fb fecd 	bl	10004b34 <sleep_ms>
10008d9a:	7820      	ldrb	r0, [r4, #0]
10008d9c:	f7fe fee2 	bl	10007b64 <hcd_port_connect_status>
10008da0:	1e04      	subs	r4, r0, #0
10008da2:	d014      	beq.n	10008dce <enum_new_device+0x66>
10008da4:	4d18      	ldr	r5, [pc, #96]	; (10008e08 <enum_new_device+0xa0>)
10008da6:	7828      	ldrb	r0, [r5, #0]
10008da8:	f7fe fef8 	bl	10007b9c <hcd_port_speed_get>
10008dac:	230f      	movs	r3, #15
10008dae:	4003      	ands	r3, r0
10008db0:	78e8      	ldrb	r0, [r5, #3]
10008db2:	220f      	movs	r2, #15
10008db4:	4390      	bics	r0, r2
10008db6:	4318      	orrs	r0, r3
10008db8:	70e8      	strb	r0, [r5, #3]
10008dba:	2300      	movs	r3, #0
10008dbc:	466a      	mov	r2, sp
10008dbe:	7213      	strb	r3, [r2, #8]
10008dc0:	72d3      	strb	r3, [r2, #11]
10008dc2:	3303      	adds	r3, #3
10008dc4:	9307      	str	r3, [sp, #28]
10008dc6:	a802      	add	r0, sp, #8
10008dc8:	f7ff fe38 	bl	10008a3c <process_enumeration>
10008dcc:	e012      	b.n	10008df4 <enum_new_device+0x8c>
10008dce:	f7ff f9c3 	bl	10008158 <enum_full_complete>
10008dd2:	3401      	adds	r4, #1
10008dd4:	e00e      	b.n	10008df4 <enum_new_device+0x8c>
10008dd6:	20e1      	movs	r0, #225	; 0xe1
10008dd8:	0040      	lsls	r0, r0, #1
10008dda:	f7fb feab 	bl	10004b34 <sleep_ms>
10008dde:	4b0a      	ldr	r3, [pc, #40]	; (10008e08 <enum_new_device+0xa0>)
10008de0:	7899      	ldrb	r1, [r3, #2]
10008de2:	7858      	ldrb	r0, [r3, #1]
10008de4:	2302      	movs	r3, #2
10008de6:	9300      	str	r3, [sp, #0]
10008de8:	4b08      	ldr	r3, [pc, #32]	; (10008e0c <enum_new_device+0xa4>)
10008dea:	4a09      	ldr	r2, [pc, #36]	; (10008e10 <enum_new_device+0xa8>)
10008dec:	f000 fc46 	bl	1000967c <hub_port_get_status>
10008df0:	1e04      	subs	r4, r0, #0
10008df2:	d002      	beq.n	10008dfa <enum_new_device+0x92>
10008df4:	0020      	movs	r0, r4
10008df6:	b009      	add	sp, #36	; 0x24
10008df8:	bd30      	pop	{r4, r5, pc}
10008dfa:	4a06      	ldr	r2, [pc, #24]	; (10008e14 <enum_new_device+0xac>)
10008dfc:	4906      	ldr	r1, [pc, #24]	; (10008e18 <enum_new_device+0xb0>)
10008dfe:	4807      	ldr	r0, [pc, #28]	; (10008e1c <enum_new_device+0xb4>)
10008e00:	f7fe fc9a 	bl	10007738 <__wrap_printf>
10008e04:	e7f6      	b.n	10008df4 <enum_new_device+0x8c>
10008e06:	46c0      	nop			; (mov r8, r8)
10008e08:	20001674 	.word	0x20001674
10008e0c:	10008a3d 	.word	0x10008a3d
10008e10:	2000184c 	.word	0x2000184c
10008e14:	00000613 	.word	0x00000613
10008e18:	1000d6ec 	.word	0x1000d6ec
10008e1c:	1000c068 	.word	0x1000c068

10008e20 <tuh_task_ext>:
10008e20:	b5f0      	push	{r4, r5, r6, r7, lr}
10008e22:	46c6      	mov	lr, r8
10008e24:	b500      	push	{lr}
10008e26:	b084      	sub	sp, #16
10008e28:	4688      	mov	r8, r1
10008e2a:	f7ff fb0f 	bl	1000844c <tuh_inited>
10008e2e:	2800      	cmp	r0, #0
10008e30:	d10a      	bne.n	10008e48 <tuh_task_ext+0x28>
10008e32:	b004      	add	sp, #16
10008e34:	bc80      	pop	{r7}
10008e36:	46b8      	mov	r8, r7
10008e38:	bdf0      	pop	{r4, r5, r6, r7, pc}
10008e3a:	2b03      	cmp	r3, #3
10008e3c:	d104      	bne.n	10008e48 <tuh_task_ext+0x28>
10008e3e:	9b02      	ldr	r3, [sp, #8]
10008e40:	2b00      	cmp	r3, #0
10008e42:	d001      	beq.n	10008e48 <tuh_task_ext+0x28>
10008e44:	9803      	ldr	r0, [sp, #12]
10008e46:	4798      	blx	r3
10008e48:	4b69      	ldr	r3, [pc, #420]	; (10008ff0 <tuh_task_ext+0x1d0>)
10008e4a:	681c      	ldr	r4, [r3, #0]
10008e4c:	0022      	movs	r2, r4
10008e4e:	3214      	adds	r2, #20
10008e50:	6960      	ldr	r0, [r4, #20]
10008e52:	f3ef 8110 	mrs	r1, PRIMASK
10008e56:	b672      	cpsid	i
10008e58:	6803      	ldr	r3, [r0, #0]
10008e5a:	2b00      	cmp	r3, #0
10008e5c:	d0fc      	beq.n	10008e58 <tuh_task_ext+0x38>
10008e5e:	f3bf 8f5f 	dmb	sy
10008e62:	6051      	str	r1, [r2, #4]
10008e64:	a901      	add	r1, sp, #4
10008e66:	0020      	movs	r0, r4
10008e68:	f001 fb34 	bl	1000a4d4 <tu_fifo_read>
10008e6c:	6962      	ldr	r2, [r4, #20]
10008e6e:	69a3      	ldr	r3, [r4, #24]
10008e70:	f3bf 8f5f 	dmb	sy
10008e74:	2100      	movs	r1, #0
10008e76:	6011      	str	r1, [r2, #0]
10008e78:	f383 8810 	msr	PRIMASK, r3
10008e7c:	2800      	cmp	r0, #0
10008e7e:	d0d8      	beq.n	10008e32 <tuh_task_ext+0x12>
10008e80:	ab01      	add	r3, sp, #4
10008e82:	785b      	ldrb	r3, [r3, #1]
10008e84:	2b02      	cmp	r3, #2
10008e86:	d050      	beq.n	10008f2a <tuh_task_ext+0x10a>
10008e88:	d8d7      	bhi.n	10008e3a <tuh_task_ext+0x1a>
10008e8a:	2b00      	cmp	r3, #0
10008e8c:	d010      	beq.n	10008eb0 <tuh_task_ext+0x90>
10008e8e:	2b01      	cmp	r3, #1
10008e90:	d1da      	bne.n	10008e48 <tuh_task_ext+0x28>
10008e92:	ac01      	add	r4, sp, #4
10008e94:	7962      	ldrb	r2, [r4, #5]
10008e96:	7921      	ldrb	r1, [r4, #4]
10008e98:	7820      	ldrb	r0, [r4, #0]
10008e9a:	f7ff fa13 	bl	100082c4 <process_removing_device>
10008e9e:	7920      	ldrb	r0, [r4, #4]
10008ea0:	2800      	cmp	r0, #0
10008ea2:	d0d1      	beq.n	10008e48 <tuh_task_ext+0x28>
10008ea4:	7963      	ldrb	r3, [r4, #5]
10008ea6:	2b00      	cmp	r3, #0
10008ea8:	d0ce      	beq.n	10008e48 <tuh_task_ext+0x28>
10008eaa:	f000 fc85 	bl	100097b8 <hub_edpt_status_xfer>
10008eae:	e7cb      	b.n	10008e48 <tuh_task_ext+0x28>
10008eb0:	4b50      	ldr	r3, [pc, #320]	; (10008ff4 <tuh_task_ext+0x1d4>)
10008eb2:	78db      	ldrb	r3, [r3, #3]
10008eb4:	06db      	lsls	r3, r3, #27
10008eb6:	d52f      	bpl.n	10008f18 <tuh_task_ext+0xf8>
10008eb8:	4c4d      	ldr	r4, [pc, #308]	; (10008ff0 <tuh_task_ext+0x1d0>)
10008eba:	6820      	ldr	r0, [r4, #0]
10008ebc:	f001 faee 	bl	1000a49c <tu_fifo_empty>
10008ec0:	0006      	movs	r6, r0
10008ec2:	6824      	ldr	r4, [r4, #0]
10008ec4:	0021      	movs	r1, r4
10008ec6:	3114      	adds	r1, #20
10008ec8:	6962      	ldr	r2, [r4, #20]
10008eca:	f3ef 8010 	mrs	r0, PRIMASK
10008ece:	b672      	cpsid	i
10008ed0:	6813      	ldr	r3, [r2, #0]
10008ed2:	2b00      	cmp	r3, #0
10008ed4:	d0fc      	beq.n	10008ed0 <tuh_task_ext+0xb0>
10008ed6:	f3bf 8f5f 	dmb	sy
10008eda:	6048      	str	r0, [r1, #4]
10008edc:	a901      	add	r1, sp, #4
10008ede:	0020      	movs	r0, r4
10008ee0:	f001 fb19 	bl	1000a516 <tu_fifo_write>
10008ee4:	6962      	ldr	r2, [r4, #20]
10008ee6:	69a3      	ldr	r3, [r4, #24]
10008ee8:	f3bf 8f5f 	dmb	sy
10008eec:	2100      	movs	r1, #0
10008eee:	6011      	str	r1, [r2, #0]
10008ef0:	f383 8810 	msr	PRIMASK, r3
10008ef4:	2800      	cmp	r0, #0
10008ef6:	d008      	beq.n	10008f0a <tuh_task_ext+0xea>
10008ef8:	ab01      	add	r3, sp, #4
10008efa:	7859      	ldrb	r1, [r3, #1]
10008efc:	7818      	ldrb	r0, [r3, #0]
10008efe:	4642      	mov	r2, r8
10008f00:	f7ff fa82 	bl	10008408 <tuh_event_hook_cb>
10008f04:	2e00      	cmp	r6, #0
10008f06:	d09f      	beq.n	10008e48 <tuh_task_ext+0x28>
10008f08:	e793      	b.n	10008e32 <tuh_task_ext+0x12>
10008f0a:	2224      	movs	r2, #36	; 0x24
10008f0c:	32ff      	adds	r2, #255	; 0xff
10008f0e:	493a      	ldr	r1, [pc, #232]	; (10008ff8 <tuh_task_ext+0x1d8>)
10008f10:	483a      	ldr	r0, [pc, #232]	; (10008ffc <tuh_task_ext+0x1dc>)
10008f12:	f7fe fc11 	bl	10007738 <__wrap_printf>
10008f16:	e7f5      	b.n	10008f04 <tuh_task_ext+0xe4>
10008f18:	4a36      	ldr	r2, [pc, #216]	; (10008ff4 <tuh_task_ext+0x1d4>)
10008f1a:	78d3      	ldrb	r3, [r2, #3]
10008f1c:	2110      	movs	r1, #16
10008f1e:	430b      	orrs	r3, r1
10008f20:	70d3      	strb	r3, [r2, #3]
10008f22:	a801      	add	r0, sp, #4
10008f24:	f7ff ff20 	bl	10008d68 <enum_new_device>
10008f28:	e78e      	b.n	10008e48 <tuh_task_ext+0x28>
10008f2a:	a801      	add	r0, sp, #4
10008f2c:	7901      	ldrb	r1, [r0, #4]
10008f2e:	237f      	movs	r3, #127	; 0x7f
10008f30:	400b      	ands	r3, r1
10008f32:	09ce      	lsrs	r6, r1, #7
10008f34:	7880      	ldrb	r0, [r0, #2]
10008f36:	2800      	cmp	r0, #0
10008f38:	d10d      	bne.n	10008f56 <tuh_task_ext+0x136>
10008f3a:	2b00      	cmp	r3, #0
10008f3c:	d105      	bne.n	10008f4a <tuh_task_ext+0x12a>
10008f3e:	ab01      	add	r3, sp, #4
10008f40:	795a      	ldrb	r2, [r3, #5]
10008f42:	9b03      	ldr	r3, [sp, #12]
10008f44:	f7ff fbbc 	bl	100086c0 <usbh_control_xfer_cb>
10008f48:	e77e      	b.n	10008e48 <tuh_task_ext+0x28>
10008f4a:	4a2d      	ldr	r2, [pc, #180]	; (10009000 <tuh_task_ext+0x1e0>)
10008f4c:	492d      	ldr	r1, [pc, #180]	; (10009004 <tuh_task_ext+0x1e4>)
10008f4e:	482b      	ldr	r0, [pc, #172]	; (10008ffc <tuh_task_ext+0x1dc>)
10008f50:	f7fe fbf2 	bl	10007738 <__wrap_printf>
10008f54:	e76d      	b.n	10008e32 <tuh_task_ext+0x12>
10008f56:	1e42      	subs	r2, r0, #1
10008f58:	b2d2      	uxtb	r2, r2
10008f5a:	2a04      	cmp	r2, #4
10008f5c:	d900      	bls.n	10008f60 <tuh_task_ext+0x140>
10008f5e:	e768      	b.n	10008e32 <tuh_task_ext+0x12>
10008f60:	1e44      	subs	r4, r0, #1
10008f62:	2256      	movs	r2, #86	; 0x56
10008f64:	4362      	muls	r2, r4
10008f66:	4c28      	ldr	r4, [pc, #160]	; (10009008 <tuh_task_ext+0x1e8>)
10008f68:	1912      	adds	r2, r2, r4
10008f6a:	2a00      	cmp	r2, #0
10008f6c:	d100      	bne.n	10008f70 <tuh_task_ext+0x150>
10008f6e:	e760      	b.n	10008e32 <tuh_task_ext+0x12>
10008f70:	7914      	ldrb	r4, [r2, #4]
10008f72:	07e4      	lsls	r4, r4, #31
10008f74:	d400      	bmi.n	10008f78 <tuh_task_ext+0x158>
10008f76:	e75c      	b.n	10008e32 <tuh_task_ext+0x12>
10008f78:	005c      	lsls	r4, r3, #1
10008f7a:	1914      	adds	r4, r2, r4
10008f7c:	19a4      	adds	r4, r4, r6
10008f7e:	3430      	adds	r4, #48	; 0x30
10008f80:	7967      	ldrb	r7, [r4, #5]
10008f82:	2501      	movs	r5, #1
10008f84:	43af      	bics	r7, r5
10008f86:	7167      	strb	r7, [r4, #5]
10008f88:	7967      	ldrb	r7, [r4, #5]
10008f8a:	3503      	adds	r5, #3
10008f8c:	43af      	bics	r7, r5
10008f8e:	7167      	strb	r7, [r4, #5]
10008f90:	2b00      	cmp	r3, #0
10008f92:	d015      	beq.n	10008fc0 <tuh_task_ext+0x1a0>
10008f94:	005b      	lsls	r3, r3, #1
10008f96:	18d3      	adds	r3, r2, r3
10008f98:	199b      	adds	r3, r3, r6
10008f9a:	7d5b      	ldrb	r3, [r3, #21]
10008f9c:	4a1b      	ldr	r2, [pc, #108]	; (1000900c <tuh_task_ext+0x1ec>)
10008f9e:	7812      	ldrb	r2, [r2, #0]
10008fa0:	4293      	cmp	r3, r2
10008fa2:	d213      	bcs.n	10008fcc <tuh_task_ext+0x1ac>
10008fa4:	4a1a      	ldr	r2, [pc, #104]	; (10009010 <tuh_task_ext+0x1f0>)
10008fa6:	6812      	ldr	r2, [r2, #0]
10008fa8:	00dc      	lsls	r4, r3, #3
10008faa:	1ae3      	subs	r3, r4, r3
10008fac:	009b      	lsls	r3, r3, #2
10008fae:	18d3      	adds	r3, r2, r3
10008fb0:	2b00      	cmp	r3, #0
10008fb2:	d017      	beq.n	10008fe4 <tuh_task_ext+0x1c4>
10008fb4:	695c      	ldr	r4, [r3, #20]
10008fb6:	ab01      	add	r3, sp, #4
10008fb8:	795a      	ldrb	r2, [r3, #5]
10008fba:	9b03      	ldr	r3, [sp, #12]
10008fbc:	47a0      	blx	r4
10008fbe:	e743      	b.n	10008e48 <tuh_task_ext+0x28>
10008fc0:	ab01      	add	r3, sp, #4
10008fc2:	795a      	ldrb	r2, [r3, #5]
10008fc4:	9b03      	ldr	r3, [sp, #12]
10008fc6:	f7ff fb7b 	bl	100086c0 <usbh_control_xfer_cb>
10008fca:	e73d      	b.n	10008e48 <tuh_task_ext+0x28>
10008fcc:	1c54      	adds	r4, r2, #1
10008fce:	429c      	cmp	r4, r3
10008fd0:	db06      	blt.n	10008fe0 <tuh_task_ext+0x1c0>
10008fd2:	1a9b      	subs	r3, r3, r2
10008fd4:	00da      	lsls	r2, r3, #3
10008fd6:	1ad2      	subs	r2, r2, r3
10008fd8:	0092      	lsls	r2, r2, #2
10008fda:	4b0e      	ldr	r3, [pc, #56]	; (10009014 <tuh_task_ext+0x1f4>)
10008fdc:	189b      	adds	r3, r3, r2
10008fde:	e7e7      	b.n	10008fb0 <tuh_task_ext+0x190>
10008fe0:	2300      	movs	r3, #0
10008fe2:	e7e5      	b.n	10008fb0 <tuh_task_ext+0x190>
10008fe4:	4a0c      	ldr	r2, [pc, #48]	; (10009018 <tuh_task_ext+0x1f8>)
10008fe6:	4907      	ldr	r1, [pc, #28]	; (10009004 <tuh_task_ext+0x1e4>)
10008fe8:	4804      	ldr	r0, [pc, #16]	; (10008ffc <tuh_task_ext+0x1dc>)
10008fea:	f7fe fba5 	bl	10007738 <__wrap_printf>
10008fee:	e720      	b.n	10008e32 <tuh_task_ext+0x12>
10008ff0:	20001b08 	.word	0x20001b08
10008ff4:	20001674 	.word	0x20001674
10008ff8:	1000d63c 	.word	0x1000d63c
10008ffc:	1000c068 	.word	0x1000c068
10009000:	0000020e 	.word	0x0000020e
10009004:	1000d648 	.word	0x1000d648
10009008:	2000194c 	.word	0x2000194c
1000900c:	20002c6b 	.word	0x20002c6b
10009010:	20001654 	.word	0x20001654
10009014:	1000d6fc 	.word	0x1000d6fc
10009018:	00000236 	.word	0x00000236

1000901c <tuh_control_xfer>:
1000901c:	b5f0      	push	{r4, r5, r6, r7, lr}
1000901e:	b083      	sub	sp, #12
10009020:	0004      	movs	r4, r0
10009022:	7843      	ldrb	r3, [r0, #1]
10009024:	2b00      	cmp	r3, #0
10009026:	d000      	beq.n	1000902a <tuh_control_xfer+0xe>
10009028:	e088      	b.n	1000913c <tuh_control_xfer+0x120>
1000902a:	6883      	ldr	r3, [r0, #8]
1000902c:	2b00      	cmp	r3, #0
1000902e:	d100      	bne.n	10009032 <tuh_control_xfer+0x16>
10009030:	e088      	b.n	10009144 <tuh_control_xfer+0x128>
10009032:	7806      	ldrb	r6, [r0, #0]
10009034:	2e00      	cmp	r6, #0
10009036:	d10b      	bne.n	10009050 <tuh_control_xfer+0x34>
10009038:	4b44      	ldr	r3, [pc, #272]	; (1000914c <tuh_control_xfer+0x130>)
1000903a:	78db      	ldrb	r3, [r3, #3]
1000903c:	06db      	lsls	r3, r3, #27
1000903e:	0fdd      	lsrs	r5, r3, #31
10009040:	2b00      	cmp	r3, #0
10009042:	da7c      	bge.n	1000913e <tuh_control_xfer+0x122>
10009044:	4b42      	ldr	r3, [pc, #264]	; (10009150 <tuh_control_xfer+0x134>)
10009046:	7d5b      	ldrb	r3, [r3, #21]
10009048:	2b00      	cmp	r3, #0
1000904a:	d012      	beq.n	10009072 <tuh_control_xfer+0x56>
1000904c:	2500      	movs	r5, #0
1000904e:	e076      	b.n	1000913e <tuh_control_xfer+0x122>
10009050:	1e73      	subs	r3, r6, #1
10009052:	b2db      	uxtb	r3, r3
10009054:	2b04      	cmp	r3, #4
10009056:	d8f5      	bhi.n	10009044 <tuh_control_xfer+0x28>
10009058:	1e72      	subs	r2, r6, #1
1000905a:	2356      	movs	r3, #86	; 0x56
1000905c:	4353      	muls	r3, r2
1000905e:	4a3d      	ldr	r2, [pc, #244]	; (10009154 <tuh_control_xfer+0x138>)
10009060:	189b      	adds	r3, r3, r2
10009062:	2b00      	cmp	r3, #0
10009064:	d0ee      	beq.n	10009044 <tuh_control_xfer+0x28>
10009066:	791b      	ldrb	r3, [r3, #4]
10009068:	07db      	lsls	r3, r3, #31
1000906a:	0fdd      	lsrs	r5, r3, #31
1000906c:	2b00      	cmp	r3, #0
1000906e:	d1e9      	bne.n	10009044 <tuh_control_xfer+0x28>
10009070:	e065      	b.n	1000913e <tuh_control_xfer+0x122>
10009072:	4b39      	ldr	r3, [pc, #228]	; (10009158 <tuh_control_xfer+0x13c>)
10009074:	6818      	ldr	r0, [r3, #0]
10009076:	2101      	movs	r1, #1
10009078:	4249      	negs	r1, r1
1000907a:	f002 fd19 	bl	1000bab0 <__mutex_enter_timeout_ms_veneer>
1000907e:	4b34      	ldr	r3, [pc, #208]	; (10009150 <tuh_control_xfer+0x134>)
10009080:	7d5b      	ldrb	r3, [r3, #21]
10009082:	b2df      	uxtb	r7, r3
10009084:	2b00      	cmp	r3, #0
10009086:	d110      	bne.n	100090aa <tuh_control_xfer+0x8e>
10009088:	4d31      	ldr	r5, [pc, #196]	; (10009150 <tuh_control_xfer+0x134>)
1000908a:	3301      	adds	r3, #1
1000908c:	756b      	strb	r3, [r5, #21]
1000908e:	752e      	strb	r6, [r5, #20]
10009090:	2300      	movs	r3, #0
10009092:	82eb      	strh	r3, [r5, #22]
10009094:	2208      	movs	r2, #8
10009096:	68a1      	ldr	r1, [r4, #8]
10009098:	0028      	movs	r0, r5
1000909a:	f7fd f86b 	bl	10006174 <__wrap___aeabi_memcpy>
1000909e:	68e3      	ldr	r3, [r4, #12]
100090a0:	60ab      	str	r3, [r5, #8]
100090a2:	6923      	ldr	r3, [r4, #16]
100090a4:	60eb      	str	r3, [r5, #12]
100090a6:	6963      	ldr	r3, [r4, #20]
100090a8:	612b      	str	r3, [r5, #16]
100090aa:	4b2b      	ldr	r3, [pc, #172]	; (10009158 <tuh_control_xfer+0x13c>)
100090ac:	6818      	ldr	r0, [r3, #0]
100090ae:	f002 fcd7 	bl	1000ba60 <__mutex_exit_veneer>
100090b2:	2f00      	cmp	r7, #0
100090b4:	d148      	bne.n	10009148 <tuh_control_xfer+0x12c>
100090b6:	0030      	movs	r0, r6
100090b8:	f7ff fad6 	bl	10008668 <usbh_get_rhport>
100090bc:	6923      	ldr	r3, [r4, #16]
100090be:	2b00      	cmp	r3, #0
100090c0:	d00b      	beq.n	100090da <tuh_control_xfer+0xbe>
100090c2:	4a23      	ldr	r2, [pc, #140]	; (10009150 <tuh_control_xfer+0x134>)
100090c4:	0031      	movs	r1, r6
100090c6:	f7fe ff1f 	bl	10007f08 <hcd_setup_send>
100090ca:	1e05      	subs	r5, r0, #0
100090cc:	d137      	bne.n	1000913e <tuh_control_xfer+0x122>
100090ce:	4a23      	ldr	r2, [pc, #140]	; (1000915c <tuh_control_xfer+0x140>)
100090d0:	4923      	ldr	r1, [pc, #140]	; (10009160 <tuh_control_xfer+0x144>)
100090d2:	4824      	ldr	r0, [pc, #144]	; (10009164 <tuh_control_xfer+0x148>)
100090d4:	f7fe fb30 	bl	10007738 <__wrap_printf>
100090d8:	e031      	b.n	1000913e <tuh_control_xfer+0x122>
100090da:	466b      	mov	r3, sp
100090dc:	2204      	movs	r2, #4
100090de:	71da      	strb	r2, [r3, #7]
100090e0:	3307      	adds	r3, #7
100090e2:	4a1b      	ldr	r2, [pc, #108]	; (10009150 <tuh_control_xfer+0x134>)
100090e4:	6113      	str	r3, [r2, #16]
100090e6:	4b20      	ldr	r3, [pc, #128]	; (10009168 <tuh_control_xfer+0x14c>)
100090e8:	60d3      	str	r3, [r2, #12]
100090ea:	0031      	movs	r1, r6
100090ec:	f7fe ff0c 	bl	10007f08 <hcd_setup_send>
100090f0:	1e05      	subs	r5, r0, #0
100090f2:	d00e      	beq.n	10009112 <tuh_control_xfer+0xf6>
100090f4:	466b      	mov	r3, sp
100090f6:	3307      	adds	r3, #7
100090f8:	781b      	ldrb	r3, [r3, #0]
100090fa:	2b04      	cmp	r3, #4
100090fc:	d10f      	bne.n	1000911e <tuh_control_xfer+0x102>
100090fe:	f7ff fa3d 	bl	1000857c <tuh_task_event_ready>
10009102:	2800      	cmp	r0, #0
10009104:	d0f6      	beq.n	100090f4 <tuh_control_xfer+0xd8>
10009106:	2001      	movs	r0, #1
10009108:	2100      	movs	r1, #0
1000910a:	4240      	negs	r0, r0
1000910c:	f7ff fe88 	bl	10008e20 <tuh_task_ext>
10009110:	e7f0      	b.n	100090f4 <tuh_control_xfer+0xd8>
10009112:	4a16      	ldr	r2, [pc, #88]	; (1000916c <tuh_control_xfer+0x150>)
10009114:	4912      	ldr	r1, [pc, #72]	; (10009160 <tuh_control_xfer+0x144>)
10009116:	4813      	ldr	r0, [pc, #76]	; (10009164 <tuh_control_xfer+0x148>)
10009118:	f7fe fb0e 	bl	10007738 <__wrap_printf>
1000911c:	e00f      	b.n	1000913e <tuh_control_xfer+0x122>
1000911e:	6963      	ldr	r3, [r4, #20]
10009120:	2b00      	cmp	r3, #0
10009122:	d003      	beq.n	1000912c <tuh_control_xfer+0x110>
10009124:	466a      	mov	r2, sp
10009126:	3207      	adds	r2, #7
10009128:	7812      	ldrb	r2, [r2, #0]
1000912a:	701a      	strb	r2, [r3, #0]
1000912c:	466b      	mov	r3, sp
1000912e:	3307      	adds	r3, #7
10009130:	781b      	ldrb	r3, [r3, #0]
10009132:	70e3      	strb	r3, [r4, #3]
10009134:	4b06      	ldr	r3, [pc, #24]	; (10009150 <tuh_control_xfer+0x134>)
10009136:	8adb      	ldrh	r3, [r3, #22]
10009138:	6063      	str	r3, [r4, #4]
1000913a:	e000      	b.n	1000913e <tuh_control_xfer+0x122>
1000913c:	2500      	movs	r5, #0
1000913e:	0028      	movs	r0, r5
10009140:	b003      	add	sp, #12
10009142:	bdf0      	pop	{r4, r5, r6, r7, pc}
10009144:	2500      	movs	r5, #0
10009146:	e7fa      	b.n	1000913e <tuh_control_xfer+0x122>
10009148:	2500      	movs	r5, #0
1000914a:	e7f8      	b.n	1000913e <tuh_control_xfer+0x122>
1000914c:	20001674 	.word	0x20001674
10009150:	2000165c 	.word	0x2000165c
10009154:	2000194c 	.word	0x2000194c
10009158:	20001afc 	.word	0x20001afc
1000915c:	0000027f 	.word	0x0000027f
10009160:	1000d674 	.word	0x1000d674
10009164:	1000c068 	.word	0x1000c068
10009168:	10008091 	.word	0x10008091
1000916c:	00000289 	.word	0x00000289

10009170 <enum_request_set_addr>:
10009170:	b510      	push	{r4, lr}
10009172:	b088      	sub	sp, #32
10009174:	4b2c      	ldr	r3, [pc, #176]	; (10009228 <enum_request_set_addr+0xb8>)
10009176:	7918      	ldrb	r0, [r3, #4]
10009178:	3809      	subs	r0, #9
1000917a:	4243      	negs	r3, r0
1000917c:	4158      	adcs	r0, r3
1000917e:	b2c0      	uxtb	r0, r0
10009180:	f7fe ff8a 	bl	10008098 <get_new_address>
10009184:	2800      	cmp	r0, #0
10009186:	d03f      	beq.n	10009208 <enum_request_set_addr+0x98>
10009188:	1e43      	subs	r3, r0, #1
1000918a:	b2db      	uxtb	r3, r3
1000918c:	2b04      	cmp	r3, #4
1000918e:	d842      	bhi.n	10009216 <enum_request_set_addr+0xa6>
10009190:	1e42      	subs	r2, r0, #1
10009192:	2356      	movs	r3, #86	; 0x56
10009194:	4353      	muls	r3, r2
10009196:	4a25      	ldr	r2, [pc, #148]	; (1000922c <enum_request_set_addr+0xbc>)
10009198:	189b      	adds	r3, r3, r2
1000919a:	4a25      	ldr	r2, [pc, #148]	; (10009230 <enum_request_set_addr+0xc0>)
1000919c:	7811      	ldrb	r1, [r2, #0]
1000919e:	7019      	strb	r1, [r3, #0]
100091a0:	7851      	ldrb	r1, [r2, #1]
100091a2:	7059      	strb	r1, [r3, #1]
100091a4:	7891      	ldrb	r1, [r2, #2]
100091a6:	7099      	strb	r1, [r3, #2]
100091a8:	78d2      	ldrb	r2, [r2, #3]
100091aa:	0712      	lsls	r2, r2, #28
100091ac:	0f12      	lsrs	r2, r2, #28
100091ae:	70da      	strb	r2, [r3, #3]
100091b0:	791a      	ldrb	r2, [r3, #4]
100091b2:	2101      	movs	r1, #1
100091b4:	430a      	orrs	r2, r1
100091b6:	711a      	strb	r2, [r3, #4]
100091b8:	4a1b      	ldr	r2, [pc, #108]	; (10009228 <enum_request_set_addr+0xb8>)
100091ba:	79d2      	ldrb	r2, [r2, #7]
100091bc:	715a      	strb	r2, [r3, #5]
100091be:	ac06      	add	r4, sp, #24
100091c0:	7823      	ldrb	r3, [r4, #0]
100091c2:	221f      	movs	r2, #31
100091c4:	4393      	bics	r3, r2
100091c6:	7023      	strb	r3, [r4, #0]
100091c8:	b2db      	uxtb	r3, r3
100091ca:	3241      	adds	r2, #65	; 0x41
100091cc:	4393      	bics	r3, r2
100091ce:	7023      	strb	r3, [r4, #0]
100091d0:	b2da      	uxtb	r2, r3
100091d2:	237f      	movs	r3, #127	; 0x7f
100091d4:	4013      	ands	r3, r2
100091d6:	7023      	strb	r3, [r4, #0]
100091d8:	2305      	movs	r3, #5
100091da:	7063      	strb	r3, [r4, #1]
100091dc:	8060      	strh	r0, [r4, #2]
100091de:	2300      	movs	r3, #0
100091e0:	80a3      	strh	r3, [r4, #4]
100091e2:	80e3      	strh	r3, [r4, #6]
100091e4:	2218      	movs	r2, #24
100091e6:	2100      	movs	r1, #0
100091e8:	4668      	mov	r0, sp
100091ea:	f7fc ffbd 	bl	10006168 <__wrap_memset>
100091ee:	9402      	str	r4, [sp, #8]
100091f0:	4b10      	ldr	r3, [pc, #64]	; (10009234 <enum_request_set_addr+0xc4>)
100091f2:	9304      	str	r3, [sp, #16]
100091f4:	2308      	movs	r3, #8
100091f6:	9305      	str	r3, [sp, #20]
100091f8:	4668      	mov	r0, sp
100091fa:	f7ff ff0f 	bl	1000901c <tuh_control_xfer>
100091fe:	1e04      	subs	r4, r0, #0
10009200:	d00b      	beq.n	1000921a <enum_request_set_addr+0xaa>
10009202:	0020      	movs	r0, r4
10009204:	b008      	add	sp, #32
10009206:	bd10      	pop	{r4, pc}
10009208:	4a0b      	ldr	r2, [pc, #44]	; (10009238 <enum_request_set_addr+0xc8>)
1000920a:	490c      	ldr	r1, [pc, #48]	; (1000923c <enum_request_set_addr+0xcc>)
1000920c:	480c      	ldr	r0, [pc, #48]	; (10009240 <enum_request_set_addr+0xd0>)
1000920e:	f7fe fa93 	bl	10007738 <__wrap_printf>
10009212:	2400      	movs	r4, #0
10009214:	e7f5      	b.n	10009202 <enum_request_set_addr+0x92>
10009216:	2300      	movs	r3, #0
10009218:	e7bf      	b.n	1000919a <enum_request_set_addr+0x2a>
1000921a:	4a0a      	ldr	r2, [pc, #40]	; (10009244 <enum_request_set_addr+0xd4>)
1000921c:	4907      	ldr	r1, [pc, #28]	; (1000923c <enum_request_set_addr+0xcc>)
1000921e:	4808      	ldr	r0, [pc, #32]	; (10009240 <enum_request_set_addr+0xd0>)
10009220:	f7fe fa8a 	bl	10007738 <__wrap_printf>
10009224:	e7ed      	b.n	10009202 <enum_request_set_addr+0x92>
10009226:	46c0      	nop			; (mov r8, r8)
10009228:	2000184c 	.word	0x2000184c
1000922c:	2000194c 	.word	0x2000194c
10009230:	20001674 	.word	0x20001674
10009234:	10008a3d 	.word	0x10008a3d
10009238:	00000633 	.word	0x00000633
1000923c:	1000d6c0 	.word	0x1000d6c0
10009240:	1000c068 	.word	0x1000c068
10009244:	00000652 	.word	0x00000652

10009248 <_get_descriptor>:
10009248:	b5f0      	push	{r4, r5, r6, r7, lr}
1000924a:	46c6      	mov	lr, r8
1000924c:	b500      	push	{lr}
1000924e:	b088      	sub	sp, #32
10009250:	0005      	movs	r5, r0
10009252:	4698      	mov	r8, r3
10009254:	a80e      	add	r0, sp, #56	; 0x38
10009256:	c840      	ldmia	r0!, {r6}
10009258:	8807      	ldrh	r7, [r0, #0]
1000925a:	ac06      	add	r4, sp, #24
1000925c:	7820      	ldrb	r0, [r4, #0]
1000925e:	231f      	movs	r3, #31
10009260:	4398      	bics	r0, r3
10009262:	7020      	strb	r0, [r4, #0]
10009264:	b2c0      	uxtb	r0, r0
10009266:	3341      	adds	r3, #65	; 0x41
10009268:	4398      	bics	r0, r3
1000926a:	7020      	strb	r0, [r4, #0]
1000926c:	b2c3      	uxtb	r3, r0
1000926e:	2080      	movs	r0, #128	; 0x80
10009270:	4240      	negs	r0, r0
10009272:	4318      	orrs	r0, r3
10009274:	7020      	strb	r0, [r4, #0]
10009276:	2006      	movs	r0, #6
10009278:	7060      	strb	r0, [r4, #1]
1000927a:	0209      	lsls	r1, r1, #8
1000927c:	4311      	orrs	r1, r2
1000927e:	8061      	strh	r1, [r4, #2]
10009280:	4643      	mov	r3, r8
10009282:	80a3      	strh	r3, [r4, #4]
10009284:	80e7      	strh	r7, [r4, #6]
10009286:	2218      	movs	r2, #24
10009288:	2100      	movs	r1, #0
1000928a:	4668      	mov	r0, sp
1000928c:	f7fc ff6c 	bl	10006168 <__wrap_memset>
10009290:	466b      	mov	r3, sp
10009292:	701d      	strb	r5, [r3, #0]
10009294:	9402      	str	r4, [sp, #8]
10009296:	9603      	str	r6, [sp, #12]
10009298:	9b10      	ldr	r3, [sp, #64]	; 0x40
1000929a:	9304      	str	r3, [sp, #16]
1000929c:	9b11      	ldr	r3, [sp, #68]	; 0x44
1000929e:	9305      	str	r3, [sp, #20]
100092a0:	4668      	mov	r0, sp
100092a2:	f7ff febb 	bl	1000901c <tuh_control_xfer>
100092a6:	b008      	add	sp, #32
100092a8:	bc80      	pop	{r7}
100092aa:	46b8      	mov	r8, r7
100092ac:	bdf0      	pop	{r4, r5, r6, r7, pc}

100092ae <tuh_descriptor_get>:
100092ae:	b530      	push	{r4, r5, lr}
100092b0:	b085      	sub	sp, #20
100092b2:	ac08      	add	r4, sp, #32
100092b4:	8824      	ldrh	r4, [r4, #0]
100092b6:	9d0a      	ldr	r5, [sp, #40]	; 0x28
100092b8:	9503      	str	r5, [sp, #12]
100092ba:	9d09      	ldr	r5, [sp, #36]	; 0x24
100092bc:	9502      	str	r5, [sp, #8]
100092be:	9401      	str	r4, [sp, #4]
100092c0:	9300      	str	r3, [sp, #0]
100092c2:	2300      	movs	r3, #0
100092c4:	f7ff ffc0 	bl	10009248 <_get_descriptor>
100092c8:	b005      	add	sp, #20
100092ca:	bd30      	pop	{r4, r5, pc}

100092cc <tuh_descriptor_get_device>:
100092cc:	b510      	push	{r4, lr}
100092ce:	b084      	sub	sp, #16
100092d0:	1c14      	adds	r4, r2, #0
100092d2:	2a12      	cmp	r2, #18
100092d4:	d900      	bls.n	100092d8 <tuh_descriptor_get_device+0xc>
100092d6:	2412      	movs	r4, #18
100092d8:	b2a4      	uxth	r4, r4
100092da:	9a06      	ldr	r2, [sp, #24]
100092dc:	9202      	str	r2, [sp, #8]
100092de:	9301      	str	r3, [sp, #4]
100092e0:	9400      	str	r4, [sp, #0]
100092e2:	000b      	movs	r3, r1
100092e4:	2200      	movs	r2, #0
100092e6:	2101      	movs	r1, #1
100092e8:	f7ff ffe1 	bl	100092ae <tuh_descriptor_get>
100092ec:	b004      	add	sp, #16
100092ee:	bd10      	pop	{r4, pc}

100092f0 <tuh_descriptor_get_configuration>:
100092f0:	b510      	push	{r4, lr}
100092f2:	b084      	sub	sp, #16
100092f4:	9c07      	ldr	r4, [sp, #28]
100092f6:	9402      	str	r4, [sp, #8]
100092f8:	9c06      	ldr	r4, [sp, #24]
100092fa:	9401      	str	r4, [sp, #4]
100092fc:	9300      	str	r3, [sp, #0]
100092fe:	0013      	movs	r3, r2
10009300:	000a      	movs	r2, r1
10009302:	2102      	movs	r1, #2
10009304:	f7ff ffd3 	bl	100092ae <tuh_descriptor_get>
10009308:	b004      	add	sp, #16
1000930a:	bd10      	pop	{r4, pc}

1000930c <tuh_configuration_set>:
1000930c:	b5f0      	push	{r4, r5, r6, r7, lr}
1000930e:	b089      	sub	sp, #36	; 0x24
10009310:	0007      	movs	r7, r0
10009312:	0016      	movs	r6, r2
10009314:	001d      	movs	r5, r3
10009316:	ac06      	add	r4, sp, #24
10009318:	7823      	ldrb	r3, [r4, #0]
1000931a:	221f      	movs	r2, #31
1000931c:	4393      	bics	r3, r2
1000931e:	7023      	strb	r3, [r4, #0]
10009320:	b2db      	uxtb	r3, r3
10009322:	3241      	adds	r2, #65	; 0x41
10009324:	4393      	bics	r3, r2
10009326:	7023      	strb	r3, [r4, #0]
10009328:	b2da      	uxtb	r2, r3
1000932a:	237f      	movs	r3, #127	; 0x7f
1000932c:	4013      	ands	r3, r2
1000932e:	7023      	strb	r3, [r4, #0]
10009330:	2309      	movs	r3, #9
10009332:	7063      	strb	r3, [r4, #1]
10009334:	8061      	strh	r1, [r4, #2]
10009336:	2300      	movs	r3, #0
10009338:	80a3      	strh	r3, [r4, #4]
1000933a:	80e3      	strh	r3, [r4, #6]
1000933c:	2218      	movs	r2, #24
1000933e:	2100      	movs	r1, #0
10009340:	4668      	mov	r0, sp
10009342:	f7fc ff11 	bl	10006168 <__wrap_memset>
10009346:	466b      	mov	r3, sp
10009348:	701f      	strb	r7, [r3, #0]
1000934a:	9402      	str	r4, [sp, #8]
1000934c:	9604      	str	r6, [sp, #16]
1000934e:	9505      	str	r5, [sp, #20]
10009350:	4668      	mov	r0, sp
10009352:	f7ff fe63 	bl	1000901c <tuh_control_xfer>
10009356:	b009      	add	sp, #36	; 0x24
10009358:	bdf0      	pop	{r4, r5, r6, r7, pc}
	...

1000935c <connection_port_reset_complete>:
1000935c:	b570      	push	{r4, r5, r6, lr}
1000935e:	b084      	sub	sp, #16
10009360:	78c3      	ldrb	r3, [r0, #3]
10009362:	2b00      	cmp	r3, #0
10009364:	d114      	bne.n	10009390 <connection_port_reset_complete+0x34>
10009366:	7805      	ldrb	r5, [r0, #0]
10009368:	6883      	ldr	r3, [r0, #8]
1000936a:	791e      	ldrb	r6, [r3, #4]
1000936c:	ac01      	add	r4, sp, #4
1000936e:	220c      	movs	r2, #12
10009370:	2100      	movs	r1, #0
10009372:	0020      	movs	r0, r4
10009374:	f7fc fef8 	bl	10006168 <__wrap_memset>
10009378:	0028      	movs	r0, r5
1000937a:	f7ff f975 	bl	10008668 <usbh_get_rhport>
1000937e:	7020      	strb	r0, [r4, #0]
10009380:	7125      	strb	r5, [r4, #4]
10009382:	7166      	strb	r6, [r4, #5]
10009384:	2100      	movs	r1, #0
10009386:	0020      	movs	r0, r4
10009388:	f002 fba2 	bl	1000bad0 <__hcd_event_handler_veneer>
1000938c:	b004      	add	sp, #16
1000938e:	bd70      	pop	{r4, r5, r6, pc}
10009390:	22e4      	movs	r2, #228	; 0xe4
10009392:	32ff      	adds	r2, #255	; 0xff
10009394:	4902      	ldr	r1, [pc, #8]	; (100093a0 <connection_port_reset_complete+0x44>)
10009396:	4803      	ldr	r0, [pc, #12]	; (100093a4 <connection_port_reset_complete+0x48>)
10009398:	f7fe f9ce 	bl	10007738 <__wrap_printf>
1000939c:	e7f6      	b.n	1000938c <connection_port_reset_complete+0x30>
1000939e:	46c0      	nop			; (mov r8, r8)
100093a0:	1000d774 	.word	0x1000d774
100093a4:	1000c068 	.word	0x1000c068

100093a8 <hub_port_clear_feature>:
100093a8:	b5f0      	push	{r4, r5, r6, r7, lr}
100093aa:	b089      	sub	sp, #36	; 0x24
100093ac:	0007      	movs	r7, r0
100093ae:	001e      	movs	r6, r3
100093b0:	2900      	cmp	r1, #0
100093b2:	d129      	bne.n	10009408 <hub_port_clear_feature+0x60>
100093b4:	2300      	movs	r3, #0
100093b6:	ac06      	add	r4, sp, #24
100093b8:	7825      	ldrb	r5, [r4, #0]
100093ba:	201f      	movs	r0, #31
100093bc:	4385      	bics	r5, r0
100093be:	431d      	orrs	r5, r3
100093c0:	7025      	strb	r5, [r4, #0]
100093c2:	b2ed      	uxtb	r5, r5
100093c4:	2360      	movs	r3, #96	; 0x60
100093c6:	439d      	bics	r5, r3
100093c8:	2320      	movs	r3, #32
100093ca:	431d      	orrs	r5, r3
100093cc:	7025      	strb	r5, [r4, #0]
100093ce:	b2e8      	uxtb	r0, r5
100093d0:	237f      	movs	r3, #127	; 0x7f
100093d2:	4003      	ands	r3, r0
100093d4:	7023      	strb	r3, [r4, #0]
100093d6:	2301      	movs	r3, #1
100093d8:	7063      	strb	r3, [r4, #1]
100093da:	8062      	strh	r2, [r4, #2]
100093dc:	80a1      	strh	r1, [r4, #4]
100093de:	2300      	movs	r3, #0
100093e0:	80e3      	strh	r3, [r4, #6]
100093e2:	2218      	movs	r2, #24
100093e4:	2100      	movs	r1, #0
100093e6:	4668      	mov	r0, sp
100093e8:	f7fc febe 	bl	10006168 <__wrap_memset>
100093ec:	466b      	mov	r3, sp
100093ee:	701f      	strb	r7, [r3, #0]
100093f0:	9402      	str	r4, [sp, #8]
100093f2:	9604      	str	r6, [sp, #16]
100093f4:	9b0e      	ldr	r3, [sp, #56]	; 0x38
100093f6:	9305      	str	r3, [sp, #20]
100093f8:	4668      	mov	r0, sp
100093fa:	f7ff fe0f 	bl	1000901c <tuh_control_xfer>
100093fe:	1e04      	subs	r4, r0, #0
10009400:	d004      	beq.n	1000940c <hub_port_clear_feature+0x64>
10009402:	0020      	movs	r0, r4
10009404:	b009      	add	sp, #36	; 0x24
10009406:	bdf0      	pop	{r4, r5, r6, r7, pc}
10009408:	2303      	movs	r3, #3
1000940a:	e7d4      	b.n	100093b6 <hub_port_clear_feature+0xe>
1000940c:	2272      	movs	r2, #114	; 0x72
1000940e:	4902      	ldr	r1, [pc, #8]	; (10009418 <hub_port_clear_feature+0x70>)
10009410:	4802      	ldr	r0, [pc, #8]	; (1000941c <hub_port_clear_feature+0x74>)
10009412:	f7fe f991 	bl	10007738 <__wrap_printf>
10009416:	e7f4      	b.n	10009402 <hub_port_clear_feature+0x5a>
10009418:	1000d794 	.word	0x1000d794
1000941c:	1000c068 	.word	0x1000c068

10009420 <hub_get_status_complete>:
10009420:	b530      	push	{r4, r5, lr}
10009422:	b083      	sub	sp, #12
10009424:	78c3      	ldrb	r3, [r0, #3]
10009426:	2b00      	cmp	r3, #0
10009428:	d10f      	bne.n	1000944a <hub_get_status_complete+0x2a>
1000942a:	7804      	ldrb	r4, [r0, #0]
1000942c:	1f63      	subs	r3, r4, #5
1000942e:	6882      	ldr	r2, [r0, #8]
10009430:	7915      	ldrb	r5, [r2, #4]
10009432:	2d00      	cmp	r5, #0
10009434:	d110      	bne.n	10009458 <hub_get_status_complete+0x38>
10009436:	011b      	lsls	r3, r3, #4
10009438:	4a16      	ldr	r2, [pc, #88]	; (10009494 <hub_get_status_complete+0x74>)
1000943a:	18d3      	adds	r3, r2, r3
1000943c:	7b9b      	ldrb	r3, [r3, #14]
1000943e:	07da      	lsls	r2, r3, #31
10009440:	d411      	bmi.n	10009466 <hub_get_status_complete+0x46>
10009442:	079b      	lsls	r3, r3, #30
10009444:	d418      	bmi.n	10009478 <hub_get_status_complete+0x58>
10009446:	b003      	add	sp, #12
10009448:	bd30      	pop	{r4, r5, pc}
1000944a:	2280      	movs	r2, #128	; 0x80
1000944c:	32ff      	adds	r2, #255	; 0xff
1000944e:	4912      	ldr	r1, [pc, #72]	; (10009498 <hub_get_status_complete+0x78>)
10009450:	4812      	ldr	r0, [pc, #72]	; (1000949c <hub_get_status_complete+0x7c>)
10009452:	f7fe f971 	bl	10007738 <__wrap_printf>
10009456:	e7f6      	b.n	10009446 <hub_get_status_complete+0x26>
10009458:	22c2      	movs	r2, #194	; 0xc2
1000945a:	0052      	lsls	r2, r2, #1
1000945c:	490e      	ldr	r1, [pc, #56]	; (10009498 <hub_get_status_complete+0x78>)
1000945e:	480f      	ldr	r0, [pc, #60]	; (1000949c <hub_get_status_complete+0x7c>)
10009460:	f7fe f96a 	bl	10007738 <__wrap_printf>
10009464:	e7ef      	b.n	10009446 <hub_get_status_complete+0x26>
10009466:	2300      	movs	r3, #0
10009468:	9300      	str	r3, [sp, #0]
1000946a:	4b0d      	ldr	r3, [pc, #52]	; (100094a0 <hub_get_status_complete+0x80>)
1000946c:	2200      	movs	r2, #0
1000946e:	0029      	movs	r1, r5
10009470:	0020      	movs	r0, r4
10009472:	f7ff ff99 	bl	100093a8 <hub_port_clear_feature>
10009476:	e7e6      	b.n	10009446 <hub_get_status_complete+0x26>
10009478:	0021      	movs	r1, r4
1000947a:	480a      	ldr	r0, [pc, #40]	; (100094a4 <hub_get_status_complete+0x84>)
1000947c:	f7fe f95c 	bl	10007738 <__wrap_printf>
10009480:	2300      	movs	r3, #0
10009482:	9300      	str	r3, [sp, #0]
10009484:	4b06      	ldr	r3, [pc, #24]	; (100094a0 <hub_get_status_complete+0x80>)
10009486:	2201      	movs	r2, #1
10009488:	0029      	movs	r1, r5
1000948a:	0020      	movs	r0, r4
1000948c:	f7ff ff8c 	bl	100093a8 <hub_port_clear_feature>
10009490:	e7d9      	b.n	10009446 <hub_get_status_complete+0x26>
10009492:	46c0      	nop			; (mov r8, r8)
10009494:	20002a04 	.word	0x20002a04
10009498:	1000d75c 	.word	0x1000d75c
1000949c:	1000c068 	.word	0x1000c068
100094a0:	1000987d 	.word	0x1000987d
100094a4:	1000d734 	.word	0x1000d734

100094a8 <hub_port_set_feature>:
100094a8:	b5f0      	push	{r4, r5, r6, r7, lr}
100094aa:	b089      	sub	sp, #36	; 0x24
100094ac:	0007      	movs	r7, r0
100094ae:	001e      	movs	r6, r3
100094b0:	2900      	cmp	r1, #0
100094b2:	d129      	bne.n	10009508 <hub_port_set_feature+0x60>
100094b4:	2300      	movs	r3, #0
100094b6:	ac06      	add	r4, sp, #24
100094b8:	7825      	ldrb	r5, [r4, #0]
100094ba:	201f      	movs	r0, #31
100094bc:	4385      	bics	r5, r0
100094be:	431d      	orrs	r5, r3
100094c0:	7025      	strb	r5, [r4, #0]
100094c2:	b2ed      	uxtb	r5, r5
100094c4:	2360      	movs	r3, #96	; 0x60
100094c6:	439d      	bics	r5, r3
100094c8:	2320      	movs	r3, #32
100094ca:	431d      	orrs	r5, r3
100094cc:	7025      	strb	r5, [r4, #0]
100094ce:	b2e8      	uxtb	r0, r5
100094d0:	237f      	movs	r3, #127	; 0x7f
100094d2:	4003      	ands	r3, r0
100094d4:	7023      	strb	r3, [r4, #0]
100094d6:	2303      	movs	r3, #3
100094d8:	7063      	strb	r3, [r4, #1]
100094da:	8062      	strh	r2, [r4, #2]
100094dc:	80a1      	strh	r1, [r4, #4]
100094de:	2300      	movs	r3, #0
100094e0:	80e3      	strh	r3, [r4, #6]
100094e2:	2218      	movs	r2, #24
100094e4:	2100      	movs	r1, #0
100094e6:	4668      	mov	r0, sp
100094e8:	f7fc fe3e 	bl	10006168 <__wrap_memset>
100094ec:	466b      	mov	r3, sp
100094ee:	701f      	strb	r7, [r3, #0]
100094f0:	9402      	str	r4, [sp, #8]
100094f2:	9604      	str	r6, [sp, #16]
100094f4:	9b0e      	ldr	r3, [sp, #56]	; 0x38
100094f6:	9305      	str	r3, [sp, #20]
100094f8:	4668      	mov	r0, sp
100094fa:	f7ff fd8f 	bl	1000901c <tuh_control_xfer>
100094fe:	1e04      	subs	r4, r0, #0
10009500:	d004      	beq.n	1000950c <hub_port_set_feature+0x64>
10009502:	0020      	movs	r0, r4
10009504:	b009      	add	sp, #36	; 0x24
10009506:	bdf0      	pop	{r4, r5, r6, r7, pc}
10009508:	2303      	movs	r3, #3
1000950a:	e7d4      	b.n	100094b6 <hub_port_set_feature+0xe>
1000950c:	2292      	movs	r2, #146	; 0x92
1000950e:	4902      	ldr	r1, [pc, #8]	; (10009518 <hub_port_set_feature+0x70>)
10009510:	4802      	ldr	r0, [pc, #8]	; (1000951c <hub_port_set_feature+0x74>)
10009512:	f7fe f911 	bl	10007738 <__wrap_printf>
10009516:	e7f4      	b.n	10009502 <hub_port_set_feature+0x5a>
10009518:	1000d864 	.word	0x1000d864
1000951c:	1000c068 	.word	0x1000c068

10009520 <connection_clear_conn_change_complete>:
10009520:	b570      	push	{r4, r5, r6, lr}
10009522:	b086      	sub	sp, #24
10009524:	78c3      	ldrb	r3, [r0, #3]
10009526:	2b00      	cmp	r3, #0
10009528:	d113      	bne.n	10009552 <connection_clear_conn_change_complete+0x32>
1000952a:	7804      	ldrb	r4, [r0, #0]
1000952c:	1f63      	subs	r3, r4, #5
1000952e:	6882      	ldr	r2, [r0, #8]
10009530:	7916      	ldrb	r6, [r2, #4]
10009532:	011a      	lsls	r2, r3, #4
10009534:	4b14      	ldr	r3, [pc, #80]	; (10009588 <connection_clear_conn_change_complete+0x68>)
10009536:	189b      	adds	r3, r3, r2
10009538:	7a1b      	ldrb	r3, [r3, #8]
1000953a:	07db      	lsls	r3, r3, #31
1000953c:	d510      	bpl.n	10009560 <connection_clear_conn_change_complete+0x40>
1000953e:	2300      	movs	r3, #0
10009540:	9300      	str	r3, [sp, #0]
10009542:	4b12      	ldr	r3, [pc, #72]	; (1000958c <connection_clear_conn_change_complete+0x6c>)
10009544:	2204      	movs	r2, #4
10009546:	0031      	movs	r1, r6
10009548:	0020      	movs	r0, r4
1000954a:	f7ff ffad 	bl	100094a8 <hub_port_set_feature>
1000954e:	b006      	add	sp, #24
10009550:	bd70      	pop	{r4, r5, r6, pc}
10009552:	22c6      	movs	r2, #198	; 0xc6
10009554:	32ff      	adds	r2, #255	; 0xff
10009556:	490e      	ldr	r1, [pc, #56]	; (10009590 <connection_clear_conn_change_complete+0x70>)
10009558:	480e      	ldr	r0, [pc, #56]	; (10009594 <connection_clear_conn_change_complete+0x74>)
1000955a:	f7fe f8ed 	bl	10007738 <__wrap_printf>
1000955e:	e7f6      	b.n	1000954e <connection_clear_conn_change_complete+0x2e>
10009560:	ad03      	add	r5, sp, #12
10009562:	220c      	movs	r2, #12
10009564:	2100      	movs	r1, #0
10009566:	0028      	movs	r0, r5
10009568:	f7fc fdfe 	bl	10006168 <__wrap_memset>
1000956c:	0020      	movs	r0, r4
1000956e:	f7ff f87b 	bl	10008668 <usbh_get_rhport>
10009572:	7028      	strb	r0, [r5, #0]
10009574:	2301      	movs	r3, #1
10009576:	706b      	strb	r3, [r5, #1]
10009578:	712c      	strb	r4, [r5, #4]
1000957a:	716e      	strb	r6, [r5, #5]
1000957c:	2100      	movs	r1, #0
1000957e:	0028      	movs	r0, r5
10009580:	f002 faa6 	bl	1000bad0 <__hcd_event_handler_veneer>
10009584:	e7e3      	b.n	1000954e <connection_clear_conn_change_complete+0x2e>
10009586:	46c0      	nop			; (mov r8, r8)
10009588:	20002a04 	.word	0x20002a04
1000958c:	1000935d 	.word	0x1000935d
10009590:	1000d7ac 	.word	0x1000d7ac
10009594:	1000c068 	.word	0x1000c068

10009598 <config_set_port_power>:
10009598:	b500      	push	{lr}
1000959a:	b083      	sub	sp, #12
1000959c:	78c3      	ldrb	r3, [r0, #3]
1000959e:	2b00      	cmp	r3, #0
100095a0:	d110      	bne.n	100095c4 <config_set_port_power+0x2c>
100095a2:	7800      	ldrb	r0, [r0, #0]
100095a4:	1f43      	subs	r3, r0, #5
100095a6:	4a0b      	ldr	r2, [pc, #44]	; (100095d4 <config_set_port_power+0x3c>)
100095a8:	7891      	ldrb	r1, [r2, #2]
100095aa:	011a      	lsls	r2, r3, #4
100095ac:	4b0a      	ldr	r3, [pc, #40]	; (100095d8 <config_set_port_power+0x40>)
100095ae:	189b      	adds	r3, r3, r2
100095b0:	7099      	strb	r1, [r3, #2]
100095b2:	2300      	movs	r3, #0
100095b4:	9300      	str	r3, [sp, #0]
100095b6:	4b09      	ldr	r3, [pc, #36]	; (100095dc <config_set_port_power+0x44>)
100095b8:	2208      	movs	r2, #8
100095ba:	2101      	movs	r1, #1
100095bc:	f7ff ff74 	bl	100094a8 <hub_port_set_feature>
100095c0:	b003      	add	sp, #12
100095c2:	bd00      	pop	{pc}
100095c4:	228f      	movs	r2, #143	; 0x8f
100095c6:	0052      	lsls	r2, r2, #1
100095c8:	4905      	ldr	r1, [pc, #20]	; (100095e0 <config_set_port_power+0x48>)
100095ca:	4806      	ldr	r0, [pc, #24]	; (100095e4 <config_set_port_power+0x4c>)
100095cc:	f7fe f8b4 	bl	10007738 <__wrap_printf>
100095d0:	e7f6      	b.n	100095c0 <config_set_port_power+0x28>
100095d2:	46c0      	nop			; (mov r8, r8)
100095d4:	2000167c 	.word	0x2000167c
100095d8:	20002a04 	.word	0x20002a04
100095dc:	100095e9 	.word	0x100095e9
100095e0:	1000d830 	.word	0x1000d830
100095e4:	1000c068 	.word	0x1000c068

100095e8 <config_port_power_complete>:
100095e8:	b530      	push	{r4, r5, lr}
100095ea:	b083      	sub	sp, #12
100095ec:	78c3      	ldrb	r3, [r0, #3]
100095ee:	2b00      	cmp	r3, #0
100095f0:	d118      	bne.n	10009624 <config_port_power_complete+0x3c>
100095f2:	7804      	ldrb	r4, [r0, #0]
100095f4:	1f65      	subs	r5, r4, #5
100095f6:	6883      	ldr	r3, [r0, #8]
100095f8:	791a      	ldrb	r2, [r3, #4]
100095fa:	7959      	ldrb	r1, [r3, #5]
100095fc:	0209      	lsls	r1, r1, #8
100095fe:	4311      	orrs	r1, r2
10009600:	012a      	lsls	r2, r5, #4
10009602:	4b1a      	ldr	r3, [pc, #104]	; (1000966c <config_port_power_complete+0x84>)
10009604:	189b      	adds	r3, r3, r2
10009606:	789b      	ldrb	r3, [r3, #2]
10009608:	4299      	cmp	r1, r3
1000960a:	d012      	beq.n	10009632 <config_port_power_complete+0x4a>
1000960c:	b2c9      	uxtb	r1, r1
1000960e:	3101      	adds	r1, #1
10009610:	b2c9      	uxtb	r1, r1
10009612:	2300      	movs	r3, #0
10009614:	9300      	str	r3, [sp, #0]
10009616:	4b16      	ldr	r3, [pc, #88]	; (10009670 <config_port_power_complete+0x88>)
10009618:	2208      	movs	r2, #8
1000961a:	0020      	movs	r0, r4
1000961c:	f7ff ff44 	bl	100094a8 <hub_port_set_feature>
10009620:	b003      	add	sp, #12
10009622:	bd30      	pop	{r4, r5, pc}
10009624:	2298      	movs	r2, #152	; 0x98
10009626:	0052      	lsls	r2, r2, #1
10009628:	4912      	ldr	r1, [pc, #72]	; (10009674 <config_port_power_complete+0x8c>)
1000962a:	4813      	ldr	r0, [pc, #76]	; (10009678 <config_port_power_complete+0x90>)
1000962c:	f7fe f884 	bl	10007738 <__wrap_printf>
10009630:	e7f6      	b.n	10009620 <config_port_power_complete+0x38>
10009632:	0013      	movs	r3, r2
10009634:	4a0d      	ldr	r2, [pc, #52]	; (1000966c <config_port_power_complete+0x84>)
10009636:	18d2      	adds	r2, r2, r3
10009638:	7851      	ldrb	r1, [r2, #1]
1000963a:	3204      	adds	r2, #4
1000963c:	2300      	movs	r3, #0
1000963e:	9301      	str	r3, [sp, #4]
10009640:	9300      	str	r3, [sp, #0]
10009642:	3301      	adds	r3, #1
10009644:	0020      	movs	r0, r4
10009646:	f7ff f92b 	bl	100088a0 <usbh_edpt_xfer_with_callback>
1000964a:	2800      	cmp	r0, #0
1000964c:	d006      	beq.n	1000965c <config_port_power_complete+0x74>
1000964e:	012d      	lsls	r5, r5, #4
10009650:	4b06      	ldr	r3, [pc, #24]	; (1000966c <config_port_power_complete+0x84>)
10009652:	5ce9      	ldrb	r1, [r5, r3]
10009654:	0020      	movs	r0, r4
10009656:	f7ff f9a5 	bl	100089a4 <usbh_driver_set_config_complete>
1000965a:	e7e1      	b.n	10009620 <config_port_power_complete+0x38>
1000965c:	223a      	movs	r2, #58	; 0x3a
1000965e:	32ff      	adds	r2, #255	; 0xff
10009660:	4904      	ldr	r1, [pc, #16]	; (10009674 <config_port_power_complete+0x8c>)
10009662:	4805      	ldr	r0, [pc, #20]	; (10009678 <config_port_power_complete+0x90>)
10009664:	f7fe f868 	bl	10007738 <__wrap_printf>
10009668:	e7da      	b.n	10009620 <config_port_power_complete+0x38>
1000966a:	46c0      	nop			; (mov r8, r8)
1000966c:	20002a04 	.word	0x20002a04
10009670:	100095e9 	.word	0x100095e9
10009674:	1000d814 	.word	0x1000d814
10009678:	1000c068 	.word	0x1000c068

1000967c <hub_port_get_status>:
1000967c:	b5f0      	push	{r4, r5, r6, r7, lr}
1000967e:	46c6      	mov	lr, r8
10009680:	b500      	push	{lr}
10009682:	b088      	sub	sp, #32
10009684:	4680      	mov	r8, r0
10009686:	0017      	movs	r7, r2
10009688:	001e      	movs	r6, r3
1000968a:	2900      	cmp	r1, #0
1000968c:	d12b      	bne.n	100096e6 <hub_port_get_status+0x6a>
1000968e:	2300      	movs	r3, #0
10009690:	ac06      	add	r4, sp, #24
10009692:	7825      	ldrb	r5, [r4, #0]
10009694:	221f      	movs	r2, #31
10009696:	4395      	bics	r5, r2
10009698:	431d      	orrs	r5, r3
1000969a:	7025      	strb	r5, [r4, #0]
1000969c:	b2ed      	uxtb	r5, r5
1000969e:	2360      	movs	r3, #96	; 0x60
100096a0:	439d      	bics	r5, r3
100096a2:	2320      	movs	r3, #32
100096a4:	431d      	orrs	r5, r3
100096a6:	7025      	strb	r5, [r4, #0]
100096a8:	b2ea      	uxtb	r2, r5
100096aa:	2380      	movs	r3, #128	; 0x80
100096ac:	425b      	negs	r3, r3
100096ae:	4313      	orrs	r3, r2
100096b0:	7023      	strb	r3, [r4, #0]
100096b2:	2300      	movs	r3, #0
100096b4:	7063      	strb	r3, [r4, #1]
100096b6:	8063      	strh	r3, [r4, #2]
100096b8:	80a1      	strh	r1, [r4, #4]
100096ba:	3304      	adds	r3, #4
100096bc:	80e3      	strh	r3, [r4, #6]
100096be:	2218      	movs	r2, #24
100096c0:	2100      	movs	r1, #0
100096c2:	4668      	mov	r0, sp
100096c4:	f7fc fd50 	bl	10006168 <__wrap_memset>
100096c8:	466b      	mov	r3, sp
100096ca:	4642      	mov	r2, r8
100096cc:	701a      	strb	r2, [r3, #0]
100096ce:	9402      	str	r4, [sp, #8]
100096d0:	9703      	str	r7, [sp, #12]
100096d2:	9604      	str	r6, [sp, #16]
100096d4:	9b0e      	ldr	r3, [sp, #56]	; 0x38
100096d6:	9305      	str	r3, [sp, #20]
100096d8:	4668      	mov	r0, sp
100096da:	f7ff fc9f 	bl	1000901c <tuh_control_xfer>
100096de:	b008      	add	sp, #32
100096e0:	bc80      	pop	{r7}
100096e2:	46b8      	mov	r8, r7
100096e4:	bdf0      	pop	{r4, r5, r6, r7, pc}
100096e6:	2303      	movs	r3, #3
100096e8:	e7d2      	b.n	10009690 <hub_port_get_status+0x14>
	...

100096ec <hub_init>:
100096ec:	b510      	push	{r4, lr}
100096ee:	2210      	movs	r2, #16
100096f0:	2100      	movs	r1, #0
100096f2:	4802      	ldr	r0, [pc, #8]	; (100096fc <hub_init+0x10>)
100096f4:	f7fc fd38 	bl	10006168 <__wrap_memset>
100096f8:	2001      	movs	r0, #1
100096fa:	bd10      	pop	{r4, pc}
100096fc:	20002a04 	.word	0x20002a04

10009700 <hub_deinit>:
10009700:	2001      	movs	r0, #1
10009702:	4770      	bx	lr

10009704 <hub_open>:
10009704:	b5f8      	push	{r3, r4, r5, r6, r7, lr}
10009706:	000d      	movs	r5, r1
10009708:	0014      	movs	r4, r2
1000970a:	7952      	ldrb	r2, [r2, #5]
1000970c:	2a09      	cmp	r2, #9
1000970e:	d134      	bne.n	1000977a <hub_open+0x76>
10009710:	79a2      	ldrb	r2, [r4, #6]
10009712:	2a00      	cmp	r2, #0
10009714:	d134      	bne.n	10009780 <hub_open+0x7c>
10009716:	79e2      	ldrb	r2, [r4, #7]
10009718:	2a01      	cmp	r2, #1
1000971a:	d833      	bhi.n	10009784 <hub_open+0x80>
1000971c:	2b0f      	cmp	r3, #15
1000971e:	d910      	bls.n	10009742 <hub_open+0x3e>
10009720:	7827      	ldrb	r7, [r4, #0]
10009722:	19e7      	adds	r7, r4, r7
10009724:	787b      	ldrb	r3, [r7, #1]
10009726:	2b05      	cmp	r3, #5
10009728:	d104      	bne.n	10009734 <hub_open+0x30>
1000972a:	78fa      	ldrb	r2, [r7, #3]
1000972c:	3b02      	subs	r3, #2
1000972e:	4013      	ands	r3, r2
10009730:	2b03      	cmp	r3, #3
10009732:	d00d      	beq.n	10009750 <hub_open+0x4c>
10009734:	22d3      	movs	r2, #211	; 0xd3
10009736:	4914      	ldr	r1, [pc, #80]	; (10009788 <hub_open+0x84>)
10009738:	4814      	ldr	r0, [pc, #80]	; (1000978c <hub_open+0x88>)
1000973a:	f7fd fffd 	bl	10007738 <__wrap_printf>
1000973e:	2600      	movs	r6, #0
10009740:	e01c      	b.n	1000977c <hub_open+0x78>
10009742:	22ce      	movs	r2, #206	; 0xce
10009744:	4910      	ldr	r1, [pc, #64]	; (10009788 <hub_open+0x84>)
10009746:	4811      	ldr	r0, [pc, #68]	; (1000978c <hub_open+0x88>)
10009748:	f7fd fff6 	bl	10007738 <__wrap_printf>
1000974c:	2600      	movs	r6, #0
1000974e:	e015      	b.n	1000977c <hub_open+0x78>
10009750:	0039      	movs	r1, r7
10009752:	0028      	movs	r0, r5
10009754:	f7ff f904 	bl	10008960 <tuh_edpt_open>
10009758:	1e06      	subs	r6, r0, #0
1000975a:	d008      	beq.n	1000976e <hub_open+0x6a>
1000975c:	3d05      	subs	r5, #5
1000975e:	78a2      	ldrb	r2, [r4, #2]
10009760:	4b0b      	ldr	r3, [pc, #44]	; (10009790 <hub_open+0x8c>)
10009762:	012d      	lsls	r5, r5, #4
10009764:	54ea      	strb	r2, [r5, r3]
10009766:	78ba      	ldrb	r2, [r7, #2]
10009768:	195d      	adds	r5, r3, r5
1000976a:	706a      	strb	r2, [r5, #1]
1000976c:	e006      	b.n	1000977c <hub_open+0x78>
1000976e:	22d6      	movs	r2, #214	; 0xd6
10009770:	4905      	ldr	r1, [pc, #20]	; (10009788 <hub_open+0x84>)
10009772:	4806      	ldr	r0, [pc, #24]	; (1000978c <hub_open+0x88>)
10009774:	f7fd ffe0 	bl	10007738 <__wrap_printf>
10009778:	e000      	b.n	1000977c <hub_open+0x78>
1000977a:	2600      	movs	r6, #0
1000977c:	0030      	movs	r0, r6
1000977e:	bdf8      	pop	{r3, r4, r5, r6, r7, pc}
10009780:	2600      	movs	r6, #0
10009782:	e7fb      	b.n	1000977c <hub_open+0x78>
10009784:	2600      	movs	r6, #0
10009786:	e7f9      	b.n	1000977c <hub_open+0x78>
10009788:	1000d858 	.word	0x1000d858
1000978c:	1000c068 	.word	0x1000c068
10009790:	20002a04 	.word	0x20002a04

10009794 <hub_close>:
10009794:	b510      	push	{r4, lr}
10009796:	2804      	cmp	r0, #4
10009798:	d906      	bls.n	100097a8 <hub_close+0x14>
1000979a:	3805      	subs	r0, #5
1000979c:	0100      	lsls	r0, r0, #4
1000979e:	4b05      	ldr	r3, [pc, #20]	; (100097b4 <hub_close+0x20>)
100097a0:	1818      	adds	r0, r3, r0
100097a2:	7843      	ldrb	r3, [r0, #1]
100097a4:	2b00      	cmp	r3, #0
100097a6:	d100      	bne.n	100097aa <hub_close+0x16>
100097a8:	bd10      	pop	{r4, pc}
100097aa:	2210      	movs	r2, #16
100097ac:	2100      	movs	r1, #0
100097ae:	f7fc fcdb 	bl	10006168 <__wrap_memset>
100097b2:	e7f9      	b.n	100097a8 <hub_close+0x14>
100097b4:	20002a04 	.word	0x20002a04

100097b8 <hub_edpt_status_xfer>:
100097b8:	b500      	push	{lr}
100097ba:	b083      	sub	sp, #12
100097bc:	1f43      	subs	r3, r0, #5
100097be:	011b      	lsls	r3, r3, #4
100097c0:	4a05      	ldr	r2, [pc, #20]	; (100097d8 <hub_edpt_status_xfer+0x20>)
100097c2:	18d2      	adds	r2, r2, r3
100097c4:	7851      	ldrb	r1, [r2, #1]
100097c6:	3204      	adds	r2, #4
100097c8:	2300      	movs	r3, #0
100097ca:	9301      	str	r3, [sp, #4]
100097cc:	9300      	str	r3, [sp, #0]
100097ce:	3301      	adds	r3, #1
100097d0:	f7ff f866 	bl	100088a0 <usbh_edpt_xfer_with_callback>
100097d4:	b003      	add	sp, #12
100097d6:	bd00      	pop	{pc}
100097d8:	20002a04 	.word	0x20002a04

100097dc <hub_port_get_status_complete>:
100097dc:	b500      	push	{lr}
100097de:	b083      	sub	sp, #12
100097e0:	0003      	movs	r3, r0
100097e2:	78c2      	ldrb	r2, [r0, #3]
100097e4:	2a00      	cmp	r2, #0
100097e6:	d118      	bne.n	1000981a <hub_port_get_status_complete+0x3e>
100097e8:	7800      	ldrb	r0, [r0, #0]
100097ea:	1f42      	subs	r2, r0, #5
100097ec:	689b      	ldr	r3, [r3, #8]
100097ee:	7919      	ldrb	r1, [r3, #4]
100097f0:	0112      	lsls	r2, r2, #4
100097f2:	4b1d      	ldr	r3, [pc, #116]	; (10009868 <hub_port_get_status_complete+0x8c>)
100097f4:	189b      	adds	r3, r3, r2
100097f6:	7a9b      	ldrb	r3, [r3, #10]
100097f8:	07da      	lsls	r2, r3, #31
100097fa:	d415      	bmi.n	10009828 <hub_port_get_status_complete+0x4c>
100097fc:	079a      	lsls	r2, r3, #30
100097fe:	d41b      	bmi.n	10009838 <hub_port_get_status_complete+0x5c>
10009800:	075a      	lsls	r2, r3, #29
10009802:	d420      	bmi.n	10009846 <hub_port_get_status_complete+0x6a>
10009804:	071a      	lsls	r2, r3, #28
10009806:	d425      	bmi.n	10009854 <hub_port_get_status_complete+0x78>
10009808:	06db      	lsls	r3, r3, #27
1000980a:	d52a      	bpl.n	10009862 <hub_port_get_status_complete+0x86>
1000980c:	2300      	movs	r3, #0
1000980e:	9300      	str	r3, [sp, #0]
10009810:	4b16      	ldr	r3, [pc, #88]	; (1000986c <hub_port_get_status_complete+0x90>)
10009812:	2214      	movs	r2, #20
10009814:	f7ff fdc8 	bl	100093a8 <hub_port_clear_feature>
10009818:	e00c      	b.n	10009834 <hub_port_get_status_complete+0x58>
1000981a:	22cb      	movs	r2, #203	; 0xcb
1000981c:	0052      	lsls	r2, r2, #1
1000981e:	4914      	ldr	r1, [pc, #80]	; (10009870 <hub_port_get_status_complete+0x94>)
10009820:	4814      	ldr	r0, [pc, #80]	; (10009874 <hub_port_get_status_complete+0x98>)
10009822:	f7fd ff89 	bl	10007738 <__wrap_printf>
10009826:	e005      	b.n	10009834 <hub_port_get_status_complete+0x58>
10009828:	2300      	movs	r3, #0
1000982a:	9300      	str	r3, [sp, #0]
1000982c:	4b12      	ldr	r3, [pc, #72]	; (10009878 <hub_port_get_status_complete+0x9c>)
1000982e:	2210      	movs	r2, #16
10009830:	f7ff fdba 	bl	100093a8 <hub_port_clear_feature>
10009834:	b003      	add	sp, #12
10009836:	bd00      	pop	{pc}
10009838:	2300      	movs	r3, #0
1000983a:	9300      	str	r3, [sp, #0]
1000983c:	4b0b      	ldr	r3, [pc, #44]	; (1000986c <hub_port_get_status_complete+0x90>)
1000983e:	2211      	movs	r2, #17
10009840:	f7ff fdb2 	bl	100093a8 <hub_port_clear_feature>
10009844:	e7f6      	b.n	10009834 <hub_port_get_status_complete+0x58>
10009846:	2300      	movs	r3, #0
10009848:	9300      	str	r3, [sp, #0]
1000984a:	4b08      	ldr	r3, [pc, #32]	; (1000986c <hub_port_get_status_complete+0x90>)
1000984c:	2212      	movs	r2, #18
1000984e:	f7ff fdab 	bl	100093a8 <hub_port_clear_feature>
10009852:	e7ef      	b.n	10009834 <hub_port_get_status_complete+0x58>
10009854:	2300      	movs	r3, #0
10009856:	9300      	str	r3, [sp, #0]
10009858:	4b04      	ldr	r3, [pc, #16]	; (1000986c <hub_port_get_status_complete+0x90>)
1000985a:	2213      	movs	r2, #19
1000985c:	f7ff fda4 	bl	100093a8 <hub_port_clear_feature>
10009860:	e7e8      	b.n	10009834 <hub_port_get_status_complete+0x58>
10009862:	f7ff ffa9 	bl	100097b8 <hub_edpt_status_xfer>
10009866:	e7e5      	b.n	10009834 <hub_port_get_status_complete+0x58>
10009868:	20002a04 	.word	0x20002a04
1000986c:	1000987d 	.word	0x1000987d
10009870:	1000d7f4 	.word	0x1000d7f4
10009874:	1000c068 	.word	0x1000c068
10009878:	10009521 	.word	0x10009521

1000987c <hub_clear_feature_complete_stub>:
1000987c:	b510      	push	{r4, lr}
1000987e:	78c3      	ldrb	r3, [r0, #3]
10009880:	2b00      	cmp	r3, #0
10009882:	d103      	bne.n	1000988c <hub_clear_feature_complete_stub+0x10>
10009884:	7800      	ldrb	r0, [r0, #0]
10009886:	f7ff ff97 	bl	100097b8 <hub_edpt_status_xfer>
1000988a:	bd10      	pop	{r4, pc}
1000988c:	227a      	movs	r2, #122	; 0x7a
1000988e:	32ff      	adds	r2, #255	; 0xff
10009890:	4902      	ldr	r1, [pc, #8]	; (1000989c <hub_clear_feature_complete_stub+0x20>)
10009892:	4803      	ldr	r0, [pc, #12]	; (100098a0 <hub_clear_feature_complete_stub+0x24>)
10009894:	f7fd ff50 	bl	10007738 <__wrap_printf>
10009898:	e7f7      	b.n	1000988a <hub_clear_feature_complete_stub+0xe>
1000989a:	46c0      	nop			; (mov r8, r8)
1000989c:	1000d7d4 	.word	0x1000d7d4
100098a0:	1000c068 	.word	0x1000c068

100098a4 <hub_set_config>:
100098a4:	b530      	push	{r4, r5, lr}
100098a6:	b089      	sub	sp, #36	; 0x24
100098a8:	0004      	movs	r4, r0
100098aa:	1f43      	subs	r3, r0, #5
100098ac:	011b      	lsls	r3, r3, #4
100098ae:	4a15      	ldr	r2, [pc, #84]	; (10009904 <hub_set_config+0x60>)
100098b0:	5c9b      	ldrb	r3, [r3, r2]
100098b2:	428b      	cmp	r3, r1
100098b4:	d008      	beq.n	100098c8 <hub_set_config+0x24>
100098b6:	22fc      	movs	r2, #252	; 0xfc
100098b8:	4913      	ldr	r1, [pc, #76]	; (10009908 <hub_set_config+0x64>)
100098ba:	4814      	ldr	r0, [pc, #80]	; (1000990c <hub_set_config+0x68>)
100098bc:	f7fd ff3c 	bl	10007738 <__wrap_printf>
100098c0:	2400      	movs	r4, #0
100098c2:	0020      	movs	r0, r4
100098c4:	b009      	add	sp, #36	; 0x24
100098c6:	bd30      	pop	{r4, r5, pc}
100098c8:	ad06      	add	r5, sp, #24
100098ca:	4b11      	ldr	r3, [pc, #68]	; (10009910 <hub_set_config+0x6c>)
100098cc:	002a      	movs	r2, r5
100098ce:	cb03      	ldmia	r3!, {r0, r1}
100098d0:	c203      	stmia	r2!, {r0, r1}
100098d2:	2218      	movs	r2, #24
100098d4:	2100      	movs	r1, #0
100098d6:	4668      	mov	r0, sp
100098d8:	f7fc fc46 	bl	10006168 <__wrap_memset>
100098dc:	466b      	mov	r3, sp
100098de:	701c      	strb	r4, [r3, #0]
100098e0:	9502      	str	r5, [sp, #8]
100098e2:	4b0c      	ldr	r3, [pc, #48]	; (10009914 <hub_set_config+0x70>)
100098e4:	9303      	str	r3, [sp, #12]
100098e6:	4b0c      	ldr	r3, [pc, #48]	; (10009918 <hub_set_config+0x74>)
100098e8:	9304      	str	r3, [sp, #16]
100098ea:	4668      	mov	r0, sp
100098ec:	f7ff fb96 	bl	1000901c <tuh_control_xfer>
100098f0:	1e04      	subs	r4, r0, #0
100098f2:	d1e6      	bne.n	100098c2 <hub_set_config+0x1e>
100098f4:	2218      	movs	r2, #24
100098f6:	32ff      	adds	r2, #255	; 0xff
100098f8:	4903      	ldr	r1, [pc, #12]	; (10009908 <hub_set_config+0x64>)
100098fa:	4804      	ldr	r0, [pc, #16]	; (1000990c <hub_set_config+0x68>)
100098fc:	f7fd ff1c 	bl	10007738 <__wrap_printf>
10009900:	e7df      	b.n	100098c2 <hub_set_config+0x1e>
10009902:	46c0      	nop			; (mov r8, r8)
10009904:	20002a04 	.word	0x20002a04
10009908:	1000d848 	.word	0x1000d848
1000990c:	1000c068 	.word	0x1000c068
10009910:	1000d754 	.word	0x1000d754
10009914:	2000167c 	.word	0x2000167c
10009918:	10009599 	.word	0x10009599

1000991c <hub_xfer_cb>:
1000991c:	b530      	push	{r4, r5, lr}
1000991e:	b083      	sub	sp, #12
10009920:	0004      	movs	r4, r0
10009922:	2a00      	cmp	r2, #0
10009924:	d140      	bne.n	100099a8 <hub_xfer_cb+0x8c>
10009926:	3805      	subs	r0, #5
10009928:	0102      	lsls	r2, r0, #4
1000992a:	4b21      	ldr	r3, [pc, #132]	; (100099b0 <hub_xfer_cb+0x94>)
1000992c:	189b      	adds	r3, r3, r2
1000992e:	791d      	ldrb	r5, [r3, #4]
10009930:	2d00      	cmp	r5, #0
10009932:	d00f      	beq.n	10009954 <hub_xfer_cb+0x38>
10009934:	07eb      	lsls	r3, r5, #31
10009936:	d411      	bmi.n	1000995c <hub_xfer_cb+0x40>
10009938:	2101      	movs	r1, #1
1000993a:	0102      	lsls	r2, r0, #4
1000993c:	4b1c      	ldr	r3, [pc, #112]	; (100099b0 <hub_xfer_cb+0x94>)
1000993e:	189b      	adds	r3, r3, r2
10009940:	789b      	ldrb	r3, [r3, #2]
10009942:	428b      	cmp	r3, r1
10009944:	d32e      	bcc.n	100099a4 <hub_xfer_cb+0x88>
10009946:	002b      	movs	r3, r5
10009948:	40cb      	lsrs	r3, r1
1000994a:	07db      	lsls	r3, r3, #31
1000994c:	d419      	bmi.n	10009982 <hub_xfer_cb+0x66>
1000994e:	3101      	adds	r1, #1
10009950:	b2c9      	uxtb	r1, r1
10009952:	e7f2      	b.n	1000993a <hub_xfer_cb+0x1e>
10009954:	0020      	movs	r0, r4
10009956:	f7ff ff2f 	bl	100097b8 <hub_edpt_status_xfer>
1000995a:	e026      	b.n	100099aa <hub_xfer_cb+0x8e>
1000995c:	0100      	lsls	r0, r0, #4
1000995e:	3008      	adds	r0, #8
10009960:	4a13      	ldr	r2, [pc, #76]	; (100099b0 <hub_xfer_cb+0x94>)
10009962:	1812      	adds	r2, r2, r0
10009964:	3204      	adds	r2, #4
10009966:	2300      	movs	r3, #0
10009968:	9300      	str	r3, [sp, #0]
1000996a:	4b12      	ldr	r3, [pc, #72]	; (100099b4 <hub_xfer_cb+0x98>)
1000996c:	2100      	movs	r1, #0
1000996e:	0020      	movs	r0, r4
10009970:	f7ff fe84 	bl	1000967c <hub_port_get_status>
10009974:	2800      	cmp	r0, #0
10009976:	d118      	bne.n	100099aa <hub_xfer_cb+0x8e>
10009978:	0020      	movs	r0, r4
1000997a:	f7ff ff1d 	bl	100097b8 <hub_edpt_status_xfer>
1000997e:	2001      	movs	r0, #1
10009980:	e013      	b.n	100099aa <hub_xfer_cb+0x8e>
10009982:	0100      	lsls	r0, r0, #4
10009984:	3008      	adds	r0, #8
10009986:	4a0a      	ldr	r2, [pc, #40]	; (100099b0 <hub_xfer_cb+0x94>)
10009988:	1812      	adds	r2, r2, r0
1000998a:	2300      	movs	r3, #0
1000998c:	9300      	str	r3, [sp, #0]
1000998e:	4b0a      	ldr	r3, [pc, #40]	; (100099b8 <hub_xfer_cb+0x9c>)
10009990:	0020      	movs	r0, r4
10009992:	f7ff fe73 	bl	1000967c <hub_port_get_status>
10009996:	2800      	cmp	r0, #0
10009998:	d107      	bne.n	100099aa <hub_xfer_cb+0x8e>
1000999a:	0020      	movs	r0, r4
1000999c:	f7ff ff0c 	bl	100097b8 <hub_edpt_status_xfer>
100099a0:	2001      	movs	r0, #1
100099a2:	e002      	b.n	100099aa <hub_xfer_cb+0x8e>
100099a4:	2001      	movs	r0, #1
100099a6:	e000      	b.n	100099aa <hub_xfer_cb+0x8e>
100099a8:	2000      	movs	r0, #0
100099aa:	b003      	add	sp, #12
100099ac:	bd30      	pop	{r4, r5, pc}
100099ae:	46c0      	nop			; (mov r8, r8)
100099b0:	20002a04 	.word	0x20002a04
100099b4:	10009421 	.word	0x10009421
100099b8:	100097dd 	.word	0x100097dd

100099bc <config_read_capacity_complete>:
100099bc:	b5f8      	push	{r3, r4, r5, r6, r7, lr}
100099be:	0004      	movs	r4, r0
100099c0:	680e      	ldr	r6, [r1, #0]
100099c2:	684b      	ldr	r3, [r1, #4]
100099c4:	7b1b      	ldrb	r3, [r3, #12]
100099c6:	2b00      	cmp	r3, #0
100099c8:	d12a      	bne.n	10009a20 <config_read_capacity_complete+0x64>
100099ca:	1e45      	subs	r5, r0, #1
100099cc:	4f18      	ldr	r7, [pc, #96]	; (10009a30 <config_read_capacity_complete+0x74>)
100099ce:	683b      	ldr	r3, [r7, #0]
100099d0:	ba18      	rev	r0, r3
100099d2:	7b72      	ldrb	r2, [r6, #13]
100099d4:	3001      	adds	r0, #1
100099d6:	4917      	ldr	r1, [pc, #92]	; (10009a34 <config_read_capacity_complete+0x78>)
100099d8:	006b      	lsls	r3, r5, #1
100099da:	195b      	adds	r3, r3, r5
100099dc:	009b      	lsls	r3, r3, #2
100099de:	195b      	adds	r3, r3, r5
100099e0:	189a      	adds	r2, r3, r2
100099e2:	3201      	adds	r2, #1
100099e4:	00d2      	lsls	r2, r2, #3
100099e6:	188a      	adds	r2, r1, r2
100099e8:	6050      	str	r0, [r2, #4]
100099ea:	7b70      	ldrb	r0, [r6, #13]
100099ec:	687a      	ldr	r2, [r7, #4]
100099ee:	ba12      	rev	r2, r2
100099f0:	181b      	adds	r3, r3, r0
100099f2:	3301      	adds	r3, #1
100099f4:	00db      	lsls	r3, r3, #3
100099f6:	505a      	str	r2, [r3, r1]
100099f8:	2368      	movs	r3, #104	; 0x68
100099fa:	436b      	muls	r3, r5
100099fc:	18cb      	adds	r3, r1, r3
100099fe:	2201      	movs	r2, #1
10009a00:	715a      	strb	r2, [r3, #5]
10009a02:	4b0d      	ldr	r3, [pc, #52]	; (10009a38 <config_read_capacity_complete+0x7c>)
10009a04:	2b00      	cmp	r3, #0
10009a06:	d002      	beq.n	10009a0e <config_read_capacity_complete+0x52>
10009a08:	0020      	movs	r0, r4
10009a0a:	f7f7 fce5 	bl	100013d8 <tuh_msc_mount_cb>
10009a0e:	2368      	movs	r3, #104	; 0x68
10009a10:	435d      	muls	r5, r3
10009a12:	4b08      	ldr	r3, [pc, #32]	; (10009a34 <config_read_capacity_complete+0x78>)
10009a14:	5ce9      	ldrb	r1, [r5, r3]
10009a16:	0020      	movs	r0, r4
10009a18:	f7fe ffc4 	bl	100089a4 <usbh_driver_set_config_complete>
10009a1c:	2001      	movs	r0, #1
10009a1e:	bdf8      	pop	{r3, r4, r5, r6, r7, pc}
10009a20:	22f2      	movs	r2, #242	; 0xf2
10009a22:	0052      	lsls	r2, r2, #1
10009a24:	4905      	ldr	r1, [pc, #20]	; (10009a3c <config_read_capacity_complete+0x80>)
10009a26:	4806      	ldr	r0, [pc, #24]	; (10009a40 <config_read_capacity_complete+0x84>)
10009a28:	f7fd fe86 	bl	10007738 <__wrap_printf>
10009a2c:	2000      	movs	r0, #0
10009a2e:	e7f6      	b.n	10009a1e <config_read_capacity_complete+0x62>
10009a30:	20001688 	.word	0x20001688
10009a34:	200016ac 	.word	0x200016ac
10009a38:	100013d9 	.word	0x100013d9
10009a3c:	1000d87c 	.word	0x1000d87c
10009a40:	1000c068 	.word	0x1000c068

10009a44 <tuh_msc_get_block_count>:
10009a44:	1e42      	subs	r2, r0, #1
10009a46:	0050      	lsls	r0, r2, #1
10009a48:	1880      	adds	r0, r0, r2
10009a4a:	0080      	lsls	r0, r0, #2
10009a4c:	1880      	adds	r0, r0, r2
10009a4e:	1840      	adds	r0, r0, r1
10009a50:	3001      	adds	r0, #1
10009a52:	00c0      	lsls	r0, r0, #3
10009a54:	4901      	ldr	r1, [pc, #4]	; (10009a5c <tuh_msc_get_block_count+0x18>)
10009a56:	1808      	adds	r0, r1, r0
10009a58:	6840      	ldr	r0, [r0, #4]
10009a5a:	4770      	bx	lr
10009a5c:	200016ac 	.word	0x200016ac

10009a60 <tuh_msc_get_block_size>:
10009a60:	1e42      	subs	r2, r0, #1
10009a62:	0050      	lsls	r0, r2, #1
10009a64:	1880      	adds	r0, r0, r2
10009a66:	0080      	lsls	r0, r0, #2
10009a68:	1880      	adds	r0, r0, r2
10009a6a:	1840      	adds	r0, r0, r1
10009a6c:	3001      	adds	r0, #1
10009a6e:	00c0      	lsls	r0, r0, #3
10009a70:	4b01      	ldr	r3, [pc, #4]	; (10009a78 <tuh_msc_get_block_size+0x18>)
10009a72:	58c0      	ldr	r0, [r0, r3]
10009a74:	4770      	bx	lr
10009a76:	46c0      	nop			; (mov r8, r8)
10009a78:	200016ac 	.word	0x200016ac

10009a7c <tuh_msc_mounted>:
10009a7c:	3801      	subs	r0, #1
10009a7e:	2368      	movs	r3, #104	; 0x68
10009a80:	4343      	muls	r3, r0
10009a82:	4802      	ldr	r0, [pc, #8]	; (10009a8c <tuh_msc_mounted+0x10>)
10009a84:	18c0      	adds	r0, r0, r3
10009a86:	7940      	ldrb	r0, [r0, #5]
10009a88:	b2c0      	uxtb	r0, r0
10009a8a:	4770      	bx	lr
10009a8c:	200016ac 	.word	0x200016ac

10009a90 <tuh_msc_scsi_command>:
10009a90:	b5f0      	push	{r4, r5, r6, r7, lr}
10009a92:	46d6      	mov	lr, sl
10009a94:	b500      	push	{lr}
10009a96:	b086      	sub	sp, #24
10009a98:	0007      	movs	r7, r0
10009a9a:	9103      	str	r1, [sp, #12]
10009a9c:	9204      	str	r2, [sp, #16]
10009a9e:	9305      	str	r3, [sp, #20]
10009aa0:	1e45      	subs	r5, r0, #1
10009aa2:	2268      	movs	r2, #104	; 0x68
10009aa4:	436a      	muls	r2, r5
10009aa6:	4b1f      	ldr	r3, [pc, #124]	; (10009b24 <tuh_msc_scsi_command+0x94>)
10009aa8:	189b      	adds	r3, r3, r2
10009aaa:	791b      	ldrb	r3, [r3, #4]
10009aac:	b2dc      	uxtb	r4, r3
10009aae:	2b00      	cmp	r3, #0
10009ab0:	d104      	bne.n	10009abc <tuh_msc_scsi_command+0x2c>
10009ab2:	0020      	movs	r0, r4
10009ab4:	b006      	add	sp, #24
10009ab6:	bc80      	pop	{r7}
10009ab8:	46ba      	mov	sl, r7
10009aba:	bdf0      	pop	{r4, r5, r6, r7, pc}
10009abc:	2268      	movs	r2, #104	; 0x68
10009abe:	436a      	muls	r2, r5
10009ac0:	4b18      	ldr	r3, [pc, #96]	; (10009b24 <tuh_msc_scsi_command+0x94>)
10009ac2:	189b      	adds	r3, r3, r2
10009ac4:	7899      	ldrb	r1, [r3, #2]
10009ac6:	f7fe fe97 	bl	100087f8 <usbh_edpt_claim>
10009aca:	1e04      	subs	r4, r0, #0
10009acc:	d0f1      	beq.n	10009ab2 <tuh_msc_scsi_command+0x22>
10009ace:	4815      	ldr	r0, [pc, #84]	; (10009b24 <tuh_msc_scsi_command+0x94>)
10009ad0:	4682      	mov	sl, r0
10009ad2:	2468      	movs	r4, #104	; 0x68
10009ad4:	436c      	muls	r4, r5
10009ad6:	1906      	adds	r6, r0, r4
10009ad8:	0030      	movs	r0, r6
10009ada:	3038      	adds	r0, #56	; 0x38
10009adc:	221f      	movs	r2, #31
10009ade:	9903      	ldr	r1, [sp, #12]
10009ae0:	f7fc fb48 	bl	10006174 <__wrap___aeabi_memcpy>
10009ae4:	0031      	movs	r1, r6
10009ae6:	3128      	adds	r1, #40	; 0x28
10009ae8:	2201      	movs	r2, #1
10009aea:	700a      	strb	r2, [r1, #0]
10009aec:	9a04      	ldr	r2, [sp, #16]
10009aee:	62f2      	str	r2, [r6, #44]	; 0x2c
10009af0:	9b05      	ldr	r3, [sp, #20]
10009af2:	6333      	str	r3, [r6, #48]	; 0x30
10009af4:	9b0c      	ldr	r3, [sp, #48]	; 0x30
10009af6:	6373      	str	r3, [r6, #52]	; 0x34
10009af8:	78b1      	ldrb	r1, [r6, #2]
10009afa:	0022      	movs	r2, r4
10009afc:	3238      	adds	r2, #56	; 0x38
10009afe:	4452      	add	r2, sl
10009b00:	2300      	movs	r3, #0
10009b02:	9301      	str	r3, [sp, #4]
10009b04:	9300      	str	r3, [sp, #0]
10009b06:	331f      	adds	r3, #31
10009b08:	0038      	movs	r0, r7
10009b0a:	f7fe fec9 	bl	100088a0 <usbh_edpt_xfer_with_callback>
10009b0e:	1e04      	subs	r4, r0, #0
10009b10:	d1cf      	bne.n	10009ab2 <tuh_msc_scsi_command+0x22>
10009b12:	2268      	movs	r2, #104	; 0x68
10009b14:	436a      	muls	r2, r5
10009b16:	4b03      	ldr	r3, [pc, #12]	; (10009b24 <tuh_msc_scsi_command+0x94>)
10009b18:	189b      	adds	r3, r3, r2
10009b1a:	7899      	ldrb	r1, [r3, #2]
10009b1c:	0038      	movs	r0, r7
10009b1e:	f7fe fe97 	bl	10008850 <usbh_edpt_release>
10009b22:	e7c6      	b.n	10009ab2 <tuh_msc_scsi_command+0x22>
10009b24:	200016ac 	.word	0x200016ac

10009b28 <tuh_msc_read_capacity>:
10009b28:	b5f0      	push	{r4, r5, r6, r7, lr}
10009b2a:	b08d      	sub	sp, #52	; 0x34
10009b2c:	0005      	movs	r5, r0
10009b2e:	000f      	movs	r7, r1
10009b30:	9203      	str	r2, [sp, #12]
10009b32:	001e      	movs	r6, r3
10009b34:	1e42      	subs	r2, r0, #1
10009b36:	2368      	movs	r3, #104	; 0x68
10009b38:	435a      	muls	r2, r3
10009b3a:	4b12      	ldr	r3, [pc, #72]	; (10009b84 <tuh_msc_read_capacity+0x5c>)
10009b3c:	189b      	adds	r3, r3, r2
10009b3e:	791b      	ldrb	r3, [r3, #4]
10009b40:	b2d8      	uxtb	r0, r3
10009b42:	2b00      	cmp	r3, #0
10009b44:	d101      	bne.n	10009b4a <tuh_msc_read_capacity+0x22>
10009b46:	b00d      	add	sp, #52	; 0x34
10009b48:	bdf0      	pop	{r4, r5, r6, r7, pc}
10009b4a:	ac04      	add	r4, sp, #16
10009b4c:	221f      	movs	r2, #31
10009b4e:	2100      	movs	r1, #0
10009b50:	0020      	movs	r0, r4
10009b52:	f7fc fb09 	bl	10006168 <__wrap_memset>
10009b56:	4b0c      	ldr	r3, [pc, #48]	; (10009b88 <tuh_msc_read_capacity+0x60>)
10009b58:	9304      	str	r3, [sp, #16]
10009b5a:	4b0c      	ldr	r3, [pc, #48]	; (10009b8c <tuh_msc_read_capacity+0x64>)
10009b5c:	9305      	str	r3, [sp, #20]
10009b5e:	7367      	strb	r7, [r4, #13]
10009b60:	2308      	movs	r3, #8
10009b62:	9306      	str	r3, [sp, #24]
10009b64:	3378      	adds	r3, #120	; 0x78
10009b66:	7323      	strb	r3, [r4, #12]
10009b68:	3b76      	subs	r3, #118	; 0x76
10009b6a:	73a3      	strb	r3, [r4, #14]
10009b6c:	331b      	adds	r3, #27
10009b6e:	73e3      	strb	r3, [r4, #15]
10009b70:	9b12      	ldr	r3, [sp, #72]	; 0x48
10009b72:	9300      	str	r3, [sp, #0]
10009b74:	0033      	movs	r3, r6
10009b76:	9a03      	ldr	r2, [sp, #12]
10009b78:	0021      	movs	r1, r4
10009b7a:	0028      	movs	r0, r5
10009b7c:	f7ff ff88 	bl	10009a90 <tuh_msc_scsi_command>
10009b80:	e7e1      	b.n	10009b46 <tuh_msc_read_capacity+0x1e>
10009b82:	46c0      	nop			; (mov r8, r8)
10009b84:	200016ac 	.word	0x200016ac
10009b88:	43425355 	.word	0x43425355
10009b8c:	54555342 	.word	0x54555342

10009b90 <tuh_msc_inquiry>:
10009b90:	b5f0      	push	{r4, r5, r6, r7, lr}
10009b92:	b08f      	sub	sp, #60	; 0x3c
10009b94:	0005      	movs	r5, r0
10009b96:	000f      	movs	r7, r1
10009b98:	9203      	str	r2, [sp, #12]
10009b9a:	001e      	movs	r6, r3
10009b9c:	1e42      	subs	r2, r0, #1
10009b9e:	2368      	movs	r3, #104	; 0x68
10009ba0:	435a      	muls	r2, r3
10009ba2:	4b19      	ldr	r3, [pc, #100]	; (10009c08 <tuh_msc_inquiry+0x78>)
10009ba4:	189b      	adds	r3, r3, r2
10009ba6:	795b      	ldrb	r3, [r3, #5]
10009ba8:	b2d8      	uxtb	r0, r3
10009baa:	2b00      	cmp	r3, #0
10009bac:	d101      	bne.n	10009bb2 <tuh_msc_inquiry+0x22>
10009bae:	b00f      	add	sp, #60	; 0x3c
10009bb0:	bdf0      	pop	{r4, r5, r6, r7, pc}
10009bb2:	ac06      	add	r4, sp, #24
10009bb4:	221f      	movs	r2, #31
10009bb6:	2100      	movs	r1, #0
10009bb8:	0020      	movs	r0, r4
10009bba:	f7fc fad5 	bl	10006168 <__wrap_memset>
10009bbe:	4b13      	ldr	r3, [pc, #76]	; (10009c0c <tuh_msc_inquiry+0x7c>)
10009bc0:	9306      	str	r3, [sp, #24]
10009bc2:	4b13      	ldr	r3, [pc, #76]	; (10009c10 <tuh_msc_inquiry+0x80>)
10009bc4:	9307      	str	r3, [sp, #28]
10009bc6:	7367      	strb	r7, [r4, #13]
10009bc8:	2724      	movs	r7, #36	; 0x24
10009bca:	9708      	str	r7, [sp, #32]
10009bcc:	2380      	movs	r3, #128	; 0x80
10009bce:	7323      	strb	r3, [r4, #12]
10009bd0:	3b7a      	subs	r3, #122	; 0x7a
10009bd2:	73a3      	strb	r3, [r4, #14]
10009bd4:	2206      	movs	r2, #6
10009bd6:	2100      	movs	r1, #0
10009bd8:	a804      	add	r0, sp, #16
10009bda:	f7fc fac5 	bl	10006168 <__wrap_memset>
10009bde:	2312      	movs	r3, #18
10009be0:	a902      	add	r1, sp, #8
10009be2:	720b      	strb	r3, [r1, #8]
10009be4:	000b      	movs	r3, r1
10009be6:	730f      	strb	r7, [r1, #12]
10009be8:	2206      	movs	r2, #6
10009bea:	a904      	add	r1, sp, #16
10009bec:	201f      	movs	r0, #31
10009bee:	469c      	mov	ip, r3
10009bf0:	4460      	add	r0, ip
10009bf2:	f7fc fabf 	bl	10006174 <__wrap___aeabi_memcpy>
10009bf6:	9b14      	ldr	r3, [sp, #80]	; 0x50
10009bf8:	9300      	str	r3, [sp, #0]
10009bfa:	0033      	movs	r3, r6
10009bfc:	9a03      	ldr	r2, [sp, #12]
10009bfe:	0021      	movs	r1, r4
10009c00:	0028      	movs	r0, r5
10009c02:	f7ff ff45 	bl	10009a90 <tuh_msc_scsi_command>
10009c06:	e7d2      	b.n	10009bae <tuh_msc_inquiry+0x1e>
10009c08:	200016ac 	.word	0x200016ac
10009c0c:	43425355 	.word	0x43425355
10009c10:	54555342 	.word	0x54555342

10009c14 <tuh_msc_test_unit_ready>:
10009c14:	b5f0      	push	{r4, r5, r6, r7, lr}
10009c16:	b08d      	sub	sp, #52	; 0x34
10009c18:	0004      	movs	r4, r0
10009c1a:	000d      	movs	r5, r1
10009c1c:	9203      	str	r2, [sp, #12]
10009c1e:	001e      	movs	r6, r3
10009c20:	1e43      	subs	r3, r0, #1
10009c22:	2068      	movs	r0, #104	; 0x68
10009c24:	4343      	muls	r3, r0
10009c26:	480f      	ldr	r0, [pc, #60]	; (10009c64 <tuh_msc_test_unit_ready+0x50>)
10009c28:	18c0      	adds	r0, r0, r3
10009c2a:	7903      	ldrb	r3, [r0, #4]
10009c2c:	b2d8      	uxtb	r0, r3
10009c2e:	2b00      	cmp	r3, #0
10009c30:	d101      	bne.n	10009c36 <tuh_msc_test_unit_ready+0x22>
10009c32:	b00d      	add	sp, #52	; 0x34
10009c34:	bdf0      	pop	{r4, r5, r6, r7, pc}
10009c36:	af04      	add	r7, sp, #16
10009c38:	221f      	movs	r2, #31
10009c3a:	2100      	movs	r1, #0
10009c3c:	0038      	movs	r0, r7
10009c3e:	f7fc fa93 	bl	10006168 <__wrap_memset>
10009c42:	4b09      	ldr	r3, [pc, #36]	; (10009c68 <tuh_msc_test_unit_ready+0x54>)
10009c44:	9304      	str	r3, [sp, #16]
10009c46:	4b09      	ldr	r3, [pc, #36]	; (10009c6c <tuh_msc_test_unit_ready+0x58>)
10009c48:	9305      	str	r3, [sp, #20]
10009c4a:	737d      	strb	r5, [r7, #13]
10009c4c:	2306      	movs	r3, #6
10009c4e:	73bb      	strb	r3, [r7, #14]
10009c50:	743d      	strb	r5, [r7, #16]
10009c52:	9600      	str	r6, [sp, #0]
10009c54:	9b03      	ldr	r3, [sp, #12]
10009c56:	2200      	movs	r2, #0
10009c58:	0039      	movs	r1, r7
10009c5a:	0020      	movs	r0, r4
10009c5c:	f7ff ff18 	bl	10009a90 <tuh_msc_scsi_command>
10009c60:	e7e7      	b.n	10009c32 <tuh_msc_test_unit_ready+0x1e>
10009c62:	46c0      	nop			; (mov r8, r8)
10009c64:	200016ac 	.word	0x200016ac
10009c68:	43425355 	.word	0x43425355
10009c6c:	54555342 	.word	0x54555342

10009c70 <config_get_maxlun_complete>:
10009c70:	b510      	push	{r4, lr}
10009c72:	0002      	movs	r2, r0
10009c74:	7800      	ldrb	r0, [r0, #0]
10009c76:	1e41      	subs	r1, r0, #1
10009c78:	78d3      	ldrb	r3, [r2, #3]
10009c7a:	2b00      	cmp	r3, #0
10009c7c:	d10e      	bne.n	10009c9c <config_get_maxlun_complete+0x2c>
10009c7e:	4b08      	ldr	r3, [pc, #32]	; (10009ca0 <config_get_maxlun_complete+0x30>)
10009c80:	781a      	ldrb	r2, [r3, #0]
10009c82:	2368      	movs	r3, #104	; 0x68
10009c84:	4359      	muls	r1, r3
10009c86:	4b07      	ldr	r3, [pc, #28]	; (10009ca4 <config_get_maxlun_complete+0x34>)
10009c88:	185b      	adds	r3, r3, r1
10009c8a:	70da      	strb	r2, [r3, #3]
10009c8c:	3201      	adds	r2, #1
10009c8e:	70da      	strb	r2, [r3, #3]
10009c90:	2300      	movs	r3, #0
10009c92:	4a05      	ldr	r2, [pc, #20]	; (10009ca8 <config_get_maxlun_complete+0x38>)
10009c94:	2100      	movs	r1, #0
10009c96:	f7ff ffbd 	bl	10009c14 <tuh_msc_test_unit_ready>
10009c9a:	bd10      	pop	{r4, pc}
10009c9c:	2200      	movs	r2, #0
10009c9e:	e7f0      	b.n	10009c82 <config_get_maxlun_complete+0x12>
10009ca0:	20001688 	.word	0x20001688
10009ca4:	200016ac 	.word	0x200016ac
10009ca8:	10009d65 	.word	0x10009d65

10009cac <config_request_sense_complete>:
10009cac:	b510      	push	{r4, lr}
10009cae:	680a      	ldr	r2, [r1, #0]
10009cb0:	684b      	ldr	r3, [r1, #4]
10009cb2:	7b1b      	ldrb	r3, [r3, #12]
10009cb4:	2b00      	cmp	r3, #0
10009cb6:	d108      	bne.n	10009cca <config_request_sense_complete+0x1e>
10009cb8:	7b51      	ldrb	r1, [r2, #13]
10009cba:	2300      	movs	r3, #0
10009cbc:	4a0a      	ldr	r2, [pc, #40]	; (10009ce8 <config_request_sense_complete+0x3c>)
10009cbe:	f7ff ffa9 	bl	10009c14 <tuh_msc_test_unit_ready>
10009cc2:	1e04      	subs	r4, r0, #0
10009cc4:	d009      	beq.n	10009cda <config_request_sense_complete+0x2e>
10009cc6:	0020      	movs	r0, r4
10009cc8:	bd10      	pop	{r4, pc}
10009cca:	22dc      	movs	r2, #220	; 0xdc
10009ccc:	32ff      	adds	r2, #255	; 0xff
10009cce:	4907      	ldr	r1, [pc, #28]	; (10009cec <config_request_sense_complete+0x40>)
10009cd0:	4807      	ldr	r0, [pc, #28]	; (10009cf0 <config_request_sense_complete+0x44>)
10009cd2:	f7fd fd31 	bl	10007738 <__wrap_printf>
10009cd6:	2400      	movs	r4, #0
10009cd8:	e7f5      	b.n	10009cc6 <config_request_sense_complete+0x1a>
10009cda:	22ee      	movs	r2, #238	; 0xee
10009cdc:	0052      	lsls	r2, r2, #1
10009cde:	4903      	ldr	r1, [pc, #12]	; (10009cec <config_request_sense_complete+0x40>)
10009ce0:	4803      	ldr	r0, [pc, #12]	; (10009cf0 <config_request_sense_complete+0x44>)
10009ce2:	f7fd fd29 	bl	10007738 <__wrap_printf>
10009ce6:	e7ee      	b.n	10009cc6 <config_request_sense_complete+0x1a>
10009ce8:	10009d65 	.word	0x10009d65
10009cec:	1000d89c 	.word	0x1000d89c
10009cf0:	1000c068 	.word	0x1000c068

10009cf4 <tuh_msc_request_sense>:
10009cf4:	b5f0      	push	{r4, r5, r6, r7, lr}
10009cf6:	46c6      	mov	lr, r8
10009cf8:	b500      	push	{lr}
10009cfa:	b08c      	sub	sp, #48	; 0x30
10009cfc:	4680      	mov	r8, r0
10009cfe:	000d      	movs	r5, r1
10009d00:	0016      	movs	r6, r2
10009d02:	001f      	movs	r7, r3
10009d04:	ac04      	add	r4, sp, #16
10009d06:	221f      	movs	r2, #31
10009d08:	2100      	movs	r1, #0
10009d0a:	0020      	movs	r0, r4
10009d0c:	f7fc fa2c 	bl	10006168 <__wrap_memset>
10009d10:	4b12      	ldr	r3, [pc, #72]	; (10009d5c <tuh_msc_request_sense+0x68>)
10009d12:	9304      	str	r3, [sp, #16]
10009d14:	4b12      	ldr	r3, [pc, #72]	; (10009d60 <tuh_msc_request_sense+0x6c>)
10009d16:	9305      	str	r3, [sp, #20]
10009d18:	7365      	strb	r5, [r4, #13]
10009d1a:	2512      	movs	r5, #18
10009d1c:	9506      	str	r5, [sp, #24]
10009d1e:	2380      	movs	r3, #128	; 0x80
10009d20:	7323      	strb	r3, [r4, #12]
10009d22:	3b7a      	subs	r3, #122	; 0x7a
10009d24:	73a3      	strb	r3, [r4, #14]
10009d26:	2206      	movs	r2, #6
10009d28:	2100      	movs	r1, #0
10009d2a:	a802      	add	r0, sp, #8
10009d2c:	f7fc fa1c 	bl	10006168 <__wrap_memset>
10009d30:	2303      	movs	r3, #3
10009d32:	466a      	mov	r2, sp
10009d34:	7213      	strb	r3, [r2, #8]
10009d36:	7315      	strb	r5, [r2, #12]
10009d38:	2206      	movs	r2, #6
10009d3a:	a902      	add	r1, sp, #8
10009d3c:	201f      	movs	r0, #31
10009d3e:	4468      	add	r0, sp
10009d40:	f7fc fa18 	bl	10006174 <__wrap___aeabi_memcpy>
10009d44:	9b12      	ldr	r3, [sp, #72]	; 0x48
10009d46:	9300      	str	r3, [sp, #0]
10009d48:	003b      	movs	r3, r7
10009d4a:	0032      	movs	r2, r6
10009d4c:	0021      	movs	r1, r4
10009d4e:	4640      	mov	r0, r8
10009d50:	f7ff fe9e 	bl	10009a90 <tuh_msc_scsi_command>
10009d54:	b00c      	add	sp, #48	; 0x30
10009d56:	bc80      	pop	{r7}
10009d58:	46b8      	mov	r8, r7
10009d5a:	bdf0      	pop	{r4, r5, r6, r7, pc}
10009d5c:	43425355 	.word	0x43425355
10009d60:	54555342 	.word	0x54555342

10009d64 <config_test_unit_ready_complete>:
10009d64:	b510      	push	{r4, lr}
10009d66:	b082      	sub	sp, #8
10009d68:	680b      	ldr	r3, [r1, #0]
10009d6a:	684a      	ldr	r2, [r1, #4]
10009d6c:	7b12      	ldrb	r2, [r2, #12]
10009d6e:	2a00      	cmp	r2, #0
10009d70:	d10a      	bne.n	10009d88 <config_test_unit_ready_complete+0x24>
10009d72:	7b59      	ldrb	r1, [r3, #13]
10009d74:	2300      	movs	r3, #0
10009d76:	9300      	str	r3, [sp, #0]
10009d78:	4b0b      	ldr	r3, [pc, #44]	; (10009da8 <config_test_unit_ready_complete+0x44>)
10009d7a:	4a0c      	ldr	r2, [pc, #48]	; (10009dac <config_test_unit_ready_complete+0x48>)
10009d7c:	f7ff fed4 	bl	10009b28 <tuh_msc_read_capacity>
10009d80:	2401      	movs	r4, #1
10009d82:	0020      	movs	r0, r4
10009d84:	b002      	add	sp, #8
10009d86:	bd10      	pop	{r4, pc}
10009d88:	7b59      	ldrb	r1, [r3, #13]
10009d8a:	2300      	movs	r3, #0
10009d8c:	9300      	str	r3, [sp, #0]
10009d8e:	4b08      	ldr	r3, [pc, #32]	; (10009db0 <config_test_unit_ready_complete+0x4c>)
10009d90:	4a06      	ldr	r2, [pc, #24]	; (10009dac <config_test_unit_ready_complete+0x48>)
10009d92:	f7ff ffaf 	bl	10009cf4 <tuh_msc_request_sense>
10009d96:	1e04      	subs	r4, r0, #0
10009d98:	d1f3      	bne.n	10009d82 <config_test_unit_ready_complete+0x1e>
10009d9a:	22d2      	movs	r2, #210	; 0xd2
10009d9c:	32ff      	adds	r2, #255	; 0xff
10009d9e:	4905      	ldr	r1, [pc, #20]	; (10009db4 <config_test_unit_ready_complete+0x50>)
10009da0:	4805      	ldr	r0, [pc, #20]	; (10009db8 <config_test_unit_ready_complete+0x54>)
10009da2:	f7fd fcc9 	bl	10007738 <__wrap_printf>
10009da6:	e7ec      	b.n	10009d82 <config_test_unit_ready_complete+0x1e>
10009da8:	100099bd 	.word	0x100099bd
10009dac:	20001688 	.word	0x20001688
10009db0:	10009cad 	.word	0x10009cad
10009db4:	1000d8bc 	.word	0x1000d8bc
10009db8:	1000c068 	.word	0x1000c068

10009dbc <tuh_msc_read10>:
10009dbc:	b5f0      	push	{r4, r5, r6, r7, lr}
10009dbe:	46c6      	mov	lr, r8
10009dc0:	b500      	push	{lr}
10009dc2:	b090      	sub	sp, #64	; 0x40
10009dc4:	0007      	movs	r7, r0
10009dc6:	000e      	movs	r6, r1
10009dc8:	9202      	str	r2, [sp, #8]
10009dca:	9303      	str	r3, [sp, #12]
10009dcc:	ab16      	add	r3, sp, #88	; 0x58
10009dce:	8819      	ldrh	r1, [r3, #0]
10009dd0:	4688      	mov	r8, r1
10009dd2:	1e44      	subs	r4, r0, #1
10009dd4:	2268      	movs	r2, #104	; 0x68
10009dd6:	4362      	muls	r2, r4
10009dd8:	4b28      	ldr	r3, [pc, #160]	; (10009e7c <tuh_msc_read10+0xc0>)
10009dda:	189b      	adds	r3, r3, r2
10009ddc:	795b      	ldrb	r3, [r3, #5]
10009dde:	b2d8      	uxtb	r0, r3
10009de0:	2b00      	cmp	r3, #0
10009de2:	d103      	bne.n	10009dec <tuh_msc_read10+0x30>
10009de4:	b010      	add	sp, #64	; 0x40
10009de6:	bc80      	pop	{r7}
10009de8:	46b8      	mov	r8, r7
10009dea:	bdf0      	pop	{r4, r5, r6, r7, pc}
10009dec:	ad08      	add	r5, sp, #32
10009dee:	221f      	movs	r2, #31
10009df0:	2100      	movs	r1, #0
10009df2:	0028      	movs	r0, r5
10009df4:	f7fc f9b8 	bl	10006168 <__wrap_memset>
10009df8:	4b21      	ldr	r3, [pc, #132]	; (10009e80 <tuh_msc_read10+0xc4>)
10009dfa:	9308      	str	r3, [sp, #32]
10009dfc:	4b21      	ldr	r3, [pc, #132]	; (10009e84 <tuh_msc_read10+0xc8>)
10009dfe:	9309      	str	r3, [sp, #36]	; 0x24
10009e00:	736e      	strb	r6, [r5, #13]
10009e02:	0061      	lsls	r1, r4, #1
10009e04:	1909      	adds	r1, r1, r4
10009e06:	0089      	lsls	r1, r1, #2
10009e08:	1909      	adds	r1, r1, r4
10009e0a:	1989      	adds	r1, r1, r6
10009e0c:	3101      	adds	r1, #1
10009e0e:	00c9      	lsls	r1, r1, #3
10009e10:	4b1a      	ldr	r3, [pc, #104]	; (10009e7c <tuh_msc_read10+0xc0>)
10009e12:	58cb      	ldr	r3, [r1, r3]
10009e14:	4641      	mov	r1, r8
10009e16:	434b      	muls	r3, r1
10009e18:	930a      	str	r3, [sp, #40]	; 0x28
10009e1a:	2380      	movs	r3, #128	; 0x80
10009e1c:	732b      	strb	r3, [r5, #12]
10009e1e:	3b76      	subs	r3, #118	; 0x76
10009e20:	73ab      	strb	r3, [r5, #14]
10009e22:	ae05      	add	r6, sp, #20
10009e24:	220a      	movs	r2, #10
10009e26:	2100      	movs	r1, #0
10009e28:	0030      	movs	r0, r6
10009e2a:	f7fc f99d 	bl	10006168 <__wrap_memset>
10009e2e:	2328      	movs	r3, #40	; 0x28
10009e30:	7033      	strb	r3, [r6, #0]
10009e32:	9b03      	ldr	r3, [sp, #12]
10009e34:	ba1c      	rev	r4, r3
10009e36:	230e      	movs	r3, #14
10009e38:	aa02      	add	r2, sp, #8
10009e3a:	4694      	mov	ip, r2
10009e3c:	4463      	add	r3, ip
10009e3e:	001a      	movs	r2, r3
10009e40:	0423      	lsls	r3, r4, #16
10009e42:	0c1b      	lsrs	r3, r3, #16
10009e44:	8013      	strh	r3, [r2, #0]
10009e46:	0c24      	lsrs	r4, r4, #16
10009e48:	8054      	strh	r4, [r2, #2]
10009e4a:	4643      	mov	r3, r8
10009e4c:	ba5b      	rev16	r3, r3
10009e4e:	b29a      	uxth	r2, r3
10009e50:	2113      	movs	r1, #19
10009e52:	4461      	add	r1, ip
10009e54:	20ff      	movs	r0, #255	; 0xff
10009e56:	4003      	ands	r3, r0
10009e58:	700b      	strb	r3, [r1, #0]
10009e5a:	0a12      	lsrs	r2, r2, #8
10009e5c:	704a      	strb	r2, [r1, #1]
10009e5e:	220a      	movs	r2, #10
10009e60:	0031      	movs	r1, r6
10009e62:	38d8      	subs	r0, #216	; 0xd8
10009e64:	4460      	add	r0, ip
10009e66:	f7fc f985 	bl	10006174 <__wrap___aeabi_memcpy>
10009e6a:	9b18      	ldr	r3, [sp, #96]	; 0x60
10009e6c:	9300      	str	r3, [sp, #0]
10009e6e:	9b17      	ldr	r3, [sp, #92]	; 0x5c
10009e70:	9a02      	ldr	r2, [sp, #8]
10009e72:	0029      	movs	r1, r5
10009e74:	0038      	movs	r0, r7
10009e76:	f7ff fe0b 	bl	10009a90 <tuh_msc_scsi_command>
10009e7a:	e7b3      	b.n	10009de4 <tuh_msc_read10+0x28>
10009e7c:	200016ac 	.word	0x200016ac
10009e80:	43425355 	.word	0x43425355
10009e84:	54555342 	.word	0x54555342

10009e88 <tuh_msc_write10>:
10009e88:	b5f0      	push	{r4, r5, r6, r7, lr}
10009e8a:	b091      	sub	sp, #68	; 0x44
10009e8c:	0006      	movs	r6, r0
10009e8e:	000d      	movs	r5, r1
10009e90:	9202      	str	r2, [sp, #8]
10009e92:	9303      	str	r3, [sp, #12]
10009e94:	ab16      	add	r3, sp, #88	; 0x58
10009e96:	881f      	ldrh	r7, [r3, #0]
10009e98:	1e44      	subs	r4, r0, #1
10009e9a:	2268      	movs	r2, #104	; 0x68
10009e9c:	4362      	muls	r2, r4
10009e9e:	4b29      	ldr	r3, [pc, #164]	; (10009f44 <tuh_msc_write10+0xbc>)
10009ea0:	189b      	adds	r3, r3, r2
10009ea2:	795b      	ldrb	r3, [r3, #5]
10009ea4:	b2d8      	uxtb	r0, r3
10009ea6:	2b00      	cmp	r3, #0
10009ea8:	d101      	bne.n	10009eae <tuh_msc_write10+0x26>
10009eaa:	b011      	add	sp, #68	; 0x44
10009eac:	bdf0      	pop	{r4, r5, r6, r7, pc}
10009eae:	221f      	movs	r2, #31
10009eb0:	2100      	movs	r1, #0
10009eb2:	a808      	add	r0, sp, #32
10009eb4:	f7fc f958 	bl	10006168 <__wrap_memset>
10009eb8:	4b23      	ldr	r3, [pc, #140]	; (10009f48 <tuh_msc_write10+0xc0>)
10009eba:	9308      	str	r3, [sp, #32]
10009ebc:	4b23      	ldr	r3, [pc, #140]	; (10009f4c <tuh_msc_write10+0xc4>)
10009ebe:	9309      	str	r3, [sp, #36]	; 0x24
10009ec0:	a902      	add	r1, sp, #8
10009ec2:	2025      	movs	r0, #37	; 0x25
10009ec4:	1809      	adds	r1, r1, r0
10009ec6:	700d      	strb	r5, [r1, #0]
10009ec8:	0061      	lsls	r1, r4, #1
10009eca:	1909      	adds	r1, r1, r4
10009ecc:	0089      	lsls	r1, r1, #2
10009ece:	1909      	adds	r1, r1, r4
10009ed0:	1949      	adds	r1, r1, r5
10009ed2:	3101      	adds	r1, #1
10009ed4:	00c9      	lsls	r1, r1, #3
10009ed6:	4b1b      	ldr	r3, [pc, #108]	; (10009f44 <tuh_msc_write10+0xbc>)
10009ed8:	58cb      	ldr	r3, [r1, r3]
10009eda:	437b      	muls	r3, r7
10009edc:	930a      	str	r3, [sp, #40]	; 0x28
10009ede:	230a      	movs	r3, #10
10009ee0:	a902      	add	r1, sp, #8
10009ee2:	3001      	adds	r0, #1
10009ee4:	1809      	adds	r1, r1, r0
10009ee6:	700b      	strb	r3, [r1, #0]
10009ee8:	ad05      	add	r5, sp, #20
10009eea:	220a      	movs	r2, #10
10009eec:	2100      	movs	r1, #0
10009eee:	0028      	movs	r0, r5
10009ef0:	f7fc f93a 	bl	10006168 <__wrap_memset>
10009ef4:	232a      	movs	r3, #42	; 0x2a
10009ef6:	702b      	strb	r3, [r5, #0]
10009ef8:	9b03      	ldr	r3, [sp, #12]
10009efa:	ba1c      	rev	r4, r3
10009efc:	230e      	movs	r3, #14
10009efe:	aa02      	add	r2, sp, #8
10009f00:	4694      	mov	ip, r2
10009f02:	4463      	add	r3, ip
10009f04:	001a      	movs	r2, r3
10009f06:	0423      	lsls	r3, r4, #16
10009f08:	0c1b      	lsrs	r3, r3, #16
10009f0a:	8013      	strh	r3, [r2, #0]
10009f0c:	0c24      	lsrs	r4, r4, #16
10009f0e:	8054      	strh	r4, [r2, #2]
10009f10:	ba7f      	rev16	r7, r7
10009f12:	b2bb      	uxth	r3, r7
10009f14:	2113      	movs	r1, #19
10009f16:	4461      	add	r1, ip
10009f18:	000a      	movs	r2, r1
10009f1a:	21ff      	movs	r1, #255	; 0xff
10009f1c:	400f      	ands	r7, r1
10009f1e:	7017      	strb	r7, [r2, #0]
10009f20:	0a1b      	lsrs	r3, r3, #8
10009f22:	7053      	strb	r3, [r2, #1]
10009f24:	220a      	movs	r2, #10
10009f26:	0029      	movs	r1, r5
10009f28:	2027      	movs	r0, #39	; 0x27
10009f2a:	4460      	add	r0, ip
10009f2c:	f7fc f922 	bl	10006174 <__wrap___aeabi_memcpy>
10009f30:	9b18      	ldr	r3, [sp, #96]	; 0x60
10009f32:	9300      	str	r3, [sp, #0]
10009f34:	9b17      	ldr	r3, [sp, #92]	; 0x5c
10009f36:	9a02      	ldr	r2, [sp, #8]
10009f38:	a908      	add	r1, sp, #32
10009f3a:	0030      	movs	r0, r6
10009f3c:	f7ff fda8 	bl	10009a90 <tuh_msc_scsi_command>
10009f40:	e7b3      	b.n	10009eaa <tuh_msc_write10+0x22>
10009f42:	46c0      	nop			; (mov r8, r8)
10009f44:	200016ac 	.word	0x200016ac
10009f48:	43425355 	.word	0x43425355
10009f4c:	54555342 	.word	0x54555342

10009f50 <msch_init>:
10009f50:	b510      	push	{r4, lr}
10009f52:	22d0      	movs	r2, #208	; 0xd0
10009f54:	0052      	lsls	r2, r2, #1
10009f56:	2100      	movs	r1, #0
10009f58:	4802      	ldr	r0, [pc, #8]	; (10009f64 <msch_init+0x14>)
10009f5a:	f7fc f905 	bl	10006168 <__wrap_memset>
10009f5e:	2001      	movs	r0, #1
10009f60:	bd10      	pop	{r4, pc}
10009f62:	46c0      	nop			; (mov r8, r8)
10009f64:	200016ac 	.word	0x200016ac

10009f68 <msch_deinit>:
10009f68:	2001      	movs	r0, #1
10009f6a:	4770      	bx	lr

10009f6c <msch_close>:
10009f6c:	b510      	push	{r4, lr}
10009f6e:	2804      	cmp	r0, #4
10009f70:	d814      	bhi.n	10009f9c <msch_close+0x30>
10009f72:	1e43      	subs	r3, r0, #1
10009f74:	2468      	movs	r4, #104	; 0x68
10009f76:	435c      	muls	r4, r3
10009f78:	4a09      	ldr	r2, [pc, #36]	; (10009fa0 <msch_close+0x34>)
10009f7a:	18a4      	adds	r4, r4, r2
10009f7c:	7922      	ldrb	r2, [r4, #4]
10009f7e:	2a00      	cmp	r2, #0
10009f80:	d00c      	beq.n	10009f9c <msch_close+0x30>
10009f82:	7963      	ldrb	r3, [r4, #5]
10009f84:	2b00      	cmp	r3, #0
10009f86:	d004      	beq.n	10009f92 <msch_close+0x26>
10009f88:	4b06      	ldr	r3, [pc, #24]	; (10009fa4 <msch_close+0x38>)
10009f8a:	2b00      	cmp	r3, #0
10009f8c:	d001      	beq.n	10009f92 <msch_close+0x26>
10009f8e:	f7f7 fa39 	bl	10001404 <tuh_msc_umount_cb>
10009f92:	2268      	movs	r2, #104	; 0x68
10009f94:	2100      	movs	r1, #0
10009f96:	0020      	movs	r0, r4
10009f98:	f7fc f8e6 	bl	10006168 <__wrap_memset>
10009f9c:	bd10      	pop	{r4, pc}
10009f9e:	46c0      	nop			; (mov r8, r8)
10009fa0:	200016ac 	.word	0x200016ac
10009fa4:	10001405 	.word	0x10001405

10009fa8 <msch_xfer_cb>:
10009fa8:	b5f0      	push	{r4, r5, r6, r7, lr}
10009faa:	b089      	sub	sp, #36	; 0x24
10009fac:	9203      	str	r2, [sp, #12]
10009fae:	1e47      	subs	r7, r0, #1
10009fb0:	2568      	movs	r5, #104	; 0x68
10009fb2:	437d      	muls	r5, r7
10009fb4:	002e      	movs	r6, r5
10009fb6:	3638      	adds	r6, #56	; 0x38
10009fb8:	4c52      	ldr	r4, [pc, #328]	; (1000a104 <msch_xfer_cb+0x15c>)
10009fba:	1936      	adds	r6, r6, r4
10009fbc:	002a      	movs	r2, r5
10009fbe:	3258      	adds	r2, #88	; 0x58
10009fc0:	1912      	adds	r2, r2, r4
10009fc2:	1964      	adds	r4, r4, r5
10009fc4:	3428      	adds	r4, #40	; 0x28
10009fc6:	7824      	ldrb	r4, [r4, #0]
10009fc8:	2c02      	cmp	r4, #2
10009fca:	d065      	beq.n	1000a098 <msch_xfer_cb+0xf0>
10009fcc:	2c03      	cmp	r4, #3
10009fce:	d100      	bne.n	10009fd2 <msch_xfer_cb+0x2a>
10009fd0:	e07b      	b.n	1000a0ca <msch_xfer_cb+0x122>
10009fd2:	2c01      	cmp	r4, #1
10009fd4:	d003      	beq.n	10009fde <msch_xfer_cb+0x36>
10009fd6:	2401      	movs	r4, #1
10009fd8:	0020      	movs	r0, r4
10009fda:	b009      	add	sp, #36	; 0x24
10009fdc:	bdf0      	pop	{r4, r5, r6, r7, pc}
10009fde:	2568      	movs	r5, #104	; 0x68
10009fe0:	437d      	muls	r5, r7
10009fe2:	4c48      	ldr	r4, [pc, #288]	; (1000a104 <msch_xfer_cb+0x15c>)
10009fe4:	1964      	adds	r4, r4, r5
10009fe6:	78a4      	ldrb	r4, [r4, #2]
10009fe8:	428c      	cmp	r4, r1
10009fea:	d104      	bne.n	10009ff6 <msch_xfer_cb+0x4e>
10009fec:	9903      	ldr	r1, [sp, #12]
10009fee:	2900      	cmp	r1, #0
10009ff0:	d101      	bne.n	10009ff6 <msch_xfer_cb+0x4e>
10009ff2:	2b1f      	cmp	r3, #31
10009ff4:	d007      	beq.n	1000a006 <msch_xfer_cb+0x5e>
10009ff6:	22a0      	movs	r2, #160	; 0xa0
10009ff8:	0052      	lsls	r2, r2, #1
10009ffa:	4943      	ldr	r1, [pc, #268]	; (1000a108 <msch_xfer_cb+0x160>)
10009ffc:	4843      	ldr	r0, [pc, #268]	; (1000a10c <msch_xfer_cb+0x164>)
10009ffe:	f7fd fb9b 	bl	10007738 <__wrap_printf>
1000a002:	2400      	movs	r4, #0
1000a004:	e7e8      	b.n	10009fd8 <msch_xfer_cb+0x30>
1000a006:	2168      	movs	r1, #104	; 0x68
1000a008:	4379      	muls	r1, r7
1000a00a:	4b3e      	ldr	r3, [pc, #248]	; (1000a104 <msch_xfer_cb+0x15c>)
1000a00c:	185b      	adds	r3, r3, r1
1000a00e:	6c1b      	ldr	r3, [r3, #64]	; 0x40
1000a010:	2b00      	cmp	r3, #0
1000a012:	d029      	beq.n	1000a068 <msch_xfer_cb+0xc0>
1000a014:	000d      	movs	r5, r1
1000a016:	493b      	ldr	r1, [pc, #236]	; (1000a104 <msch_xfer_cb+0x15c>)
1000a018:	1949      	adds	r1, r1, r5
1000a01a:	6ace      	ldr	r6, [r1, #44]	; 0x2c
1000a01c:	2e00      	cmp	r6, #0
1000a01e:	d023      	beq.n	1000a068 <msch_xfer_cb+0xc0>
1000a020:	2568      	movs	r5, #104	; 0x68
1000a022:	437d      	muls	r5, r7
1000a024:	4937      	ldr	r1, [pc, #220]	; (1000a104 <msch_xfer_cb+0x15c>)
1000a026:	1949      	adds	r1, r1, r5
1000a028:	000a      	movs	r2, r1
1000a02a:	3228      	adds	r2, #40	; 0x28
1000a02c:	2502      	movs	r5, #2
1000a02e:	7015      	strb	r5, [r2, #0]
1000a030:	3144      	adds	r1, #68	; 0x44
1000a032:	2200      	movs	r2, #0
1000a034:	568a      	ldrsb	r2, [r1, r2]
1000a036:	2a00      	cmp	r2, #0
1000a038:	db10      	blt.n	1000a05c <msch_xfer_cb+0xb4>
1000a03a:	b29b      	uxth	r3, r3
1000a03c:	2200      	movs	r2, #0
1000a03e:	9201      	str	r2, [sp, #4]
1000a040:	9200      	str	r2, [sp, #0]
1000a042:	0032      	movs	r2, r6
1000a044:	0021      	movs	r1, r4
1000a046:	f7fe fc2b 	bl	100088a0 <usbh_edpt_xfer_with_callback>
1000a04a:	1e04      	subs	r4, r0, #0
1000a04c:	d1c4      	bne.n	10009fd8 <msch_xfer_cb+0x30>
1000a04e:	22a3      	movs	r2, #163	; 0xa3
1000a050:	0052      	lsls	r2, r2, #1
1000a052:	492d      	ldr	r1, [pc, #180]	; (1000a108 <msch_xfer_cb+0x160>)
1000a054:	482d      	ldr	r0, [pc, #180]	; (1000a10c <msch_xfer_cb+0x164>)
1000a056:	f7fd fb6f 	bl	10007738 <__wrap_printf>
1000a05a:	e7bd      	b.n	10009fd8 <msch_xfer_cb+0x30>
1000a05c:	2268      	movs	r2, #104	; 0x68
1000a05e:	437a      	muls	r2, r7
1000a060:	4f28      	ldr	r7, [pc, #160]	; (1000a104 <msch_xfer_cb+0x15c>)
1000a062:	18bf      	adds	r7, r7, r2
1000a064:	787c      	ldrb	r4, [r7, #1]
1000a066:	e7e8      	b.n	1000a03a <msch_xfer_cb+0x92>
1000a068:	2368      	movs	r3, #104	; 0x68
1000a06a:	437b      	muls	r3, r7
1000a06c:	4f25      	ldr	r7, [pc, #148]	; (1000a104 <msch_xfer_cb+0x15c>)
1000a06e:	18ff      	adds	r7, r7, r3
1000a070:	003b      	movs	r3, r7
1000a072:	3328      	adds	r3, #40	; 0x28
1000a074:	2103      	movs	r1, #3
1000a076:	7019      	strb	r1, [r3, #0]
1000a078:	7879      	ldrb	r1, [r7, #1]
1000a07a:	2300      	movs	r3, #0
1000a07c:	9301      	str	r3, [sp, #4]
1000a07e:	9300      	str	r3, [sp, #0]
1000a080:	330d      	adds	r3, #13
1000a082:	f7fe fc0d 	bl	100088a0 <usbh_edpt_xfer_with_callback>
1000a086:	1e04      	subs	r4, r0, #0
1000a088:	d1a6      	bne.n	10009fd8 <msch_xfer_cb+0x30>
1000a08a:	22a5      	movs	r2, #165	; 0xa5
1000a08c:	0052      	lsls	r2, r2, #1
1000a08e:	491e      	ldr	r1, [pc, #120]	; (1000a108 <msch_xfer_cb+0x160>)
1000a090:	481e      	ldr	r0, [pc, #120]	; (1000a10c <msch_xfer_cb+0x164>)
1000a092:	f7fd fb51 	bl	10007738 <__wrap_printf>
1000a096:	e79f      	b.n	10009fd8 <msch_xfer_cb+0x30>
1000a098:	2368      	movs	r3, #104	; 0x68
1000a09a:	437b      	muls	r3, r7
1000a09c:	4f19      	ldr	r7, [pc, #100]	; (1000a104 <msch_xfer_cb+0x15c>)
1000a09e:	18ff      	adds	r7, r7, r3
1000a0a0:	003b      	movs	r3, r7
1000a0a2:	3328      	adds	r3, #40	; 0x28
1000a0a4:	2103      	movs	r1, #3
1000a0a6:	7019      	strb	r1, [r3, #0]
1000a0a8:	7879      	ldrb	r1, [r7, #1]
1000a0aa:	2300      	movs	r3, #0
1000a0ac:	9301      	str	r3, [sp, #4]
1000a0ae:	9300      	str	r3, [sp, #0]
1000a0b0:	330d      	adds	r3, #13
1000a0b2:	f7fe fbf5 	bl	100088a0 <usbh_edpt_xfer_with_callback>
1000a0b6:	1e04      	subs	r4, r0, #0
1000a0b8:	d000      	beq.n	1000a0bc <msch_xfer_cb+0x114>
1000a0ba:	e78d      	b.n	10009fd8 <msch_xfer_cb+0x30>
1000a0bc:	2252      	movs	r2, #82	; 0x52
1000a0be:	32ff      	adds	r2, #255	; 0xff
1000a0c0:	4911      	ldr	r1, [pc, #68]	; (1000a108 <msch_xfer_cb+0x160>)
1000a0c2:	4812      	ldr	r0, [pc, #72]	; (1000a10c <msch_xfer_cb+0x164>)
1000a0c4:	f7fd fb38 	bl	10007738 <__wrap_printf>
1000a0c8:	e786      	b.n	10009fd8 <msch_xfer_cb+0x30>
1000a0ca:	2168      	movs	r1, #104	; 0x68
1000a0cc:	4379      	muls	r1, r7
1000a0ce:	4b0d      	ldr	r3, [pc, #52]	; (1000a104 <msch_xfer_cb+0x15c>)
1000a0d0:	185b      	adds	r3, r3, r1
1000a0d2:	0019      	movs	r1, r3
1000a0d4:	3128      	adds	r1, #40	; 0x28
1000a0d6:	2400      	movs	r4, #0
1000a0d8:	700c      	strb	r4, [r1, #0]
1000a0da:	6b1c      	ldr	r4, [r3, #48]	; 0x30
1000a0dc:	2c00      	cmp	r4, #0
1000a0de:	d00e      	beq.n	1000a0fe <msch_xfer_cb+0x156>
1000a0e0:	9604      	str	r6, [sp, #16]
1000a0e2:	9205      	str	r2, [sp, #20]
1000a0e4:	2368      	movs	r3, #104	; 0x68
1000a0e6:	437b      	muls	r3, r7
1000a0e8:	4f06      	ldr	r7, [pc, #24]	; (1000a104 <msch_xfer_cb+0x15c>)
1000a0ea:	18ff      	adds	r7, r7, r3
1000a0ec:	6afb      	ldr	r3, [r7, #44]	; 0x2c
1000a0ee:	9306      	str	r3, [sp, #24]
1000a0f0:	6b7b      	ldr	r3, [r7, #52]	; 0x34
1000a0f2:	9303      	str	r3, [sp, #12]
1000a0f4:	9307      	str	r3, [sp, #28]
1000a0f6:	a904      	add	r1, sp, #16
1000a0f8:	47a0      	blx	r4
1000a0fa:	2401      	movs	r4, #1
1000a0fc:	e76c      	b.n	10009fd8 <msch_xfer_cb+0x30>
1000a0fe:	2401      	movs	r4, #1
1000a100:	e76a      	b.n	10009fd8 <msch_xfer_cb+0x30>
1000a102:	46c0      	nop			; (mov r8, r8)
1000a104:	200016ac 	.word	0x200016ac
1000a108:	1000d8f8 	.word	0x1000d8f8
1000a10c:	1000c068 	.word	0x1000c068

1000a110 <msch_open>:
1000a110:	b5f0      	push	{r4, r5, r6, r7, lr}
1000a112:	46ce      	mov	lr, r9
1000a114:	b500      	push	{lr}
1000a116:	b082      	sub	sp, #8
1000a118:	9101      	str	r1, [sp, #4]
1000a11a:	0014      	movs	r4, r2
1000a11c:	7992      	ldrb	r2, [r2, #6]
1000a11e:	2a06      	cmp	r2, #6
1000a120:	d154      	bne.n	1000a1cc <msch_open+0xbc>
1000a122:	79e2      	ldrb	r2, [r4, #7]
1000a124:	2a50      	cmp	r2, #80	; 0x50
1000a126:	d157      	bne.n	1000a1d8 <msch_open+0xc8>
1000a128:	7921      	ldrb	r1, [r4, #4]
1000a12a:	00ca      	lsls	r2, r1, #3
1000a12c:	1a52      	subs	r2, r2, r1
1000a12e:	b292      	uxth	r2, r2
1000a130:	3209      	adds	r2, #9
1000a132:	b292      	uxth	r2, r2
1000a134:	429a      	cmp	r2, r3
1000a136:	d806      	bhi.n	1000a146 <msch_open+0x36>
1000a138:	9b01      	ldr	r3, [sp, #4]
1000a13a:	3b01      	subs	r3, #1
1000a13c:	4699      	mov	r9, r3
1000a13e:	7827      	ldrb	r7, [r4, #0]
1000a140:	19e7      	adds	r7, r4, r7
1000a142:	2500      	movs	r5, #0
1000a144:	e01f      	b.n	1000a186 <msch_open+0x76>
1000a146:	227c      	movs	r2, #124	; 0x7c
1000a148:	32ff      	adds	r2, #255	; 0xff
1000a14a:	4924      	ldr	r1, [pc, #144]	; (1000a1dc <msch_open+0xcc>)
1000a14c:	4824      	ldr	r0, [pc, #144]	; (1000a1e0 <msch_open+0xd0>)
1000a14e:	f7fd faf3 	bl	10007738 <__wrap_printf>
1000a152:	2600      	movs	r6, #0
1000a154:	e03b      	b.n	1000a1ce <msch_open+0xbe>
1000a156:	2282      	movs	r2, #130	; 0x82
1000a158:	32ff      	adds	r2, #255	; 0xff
1000a15a:	4920      	ldr	r1, [pc, #128]	; (1000a1dc <msch_open+0xcc>)
1000a15c:	4820      	ldr	r0, [pc, #128]	; (1000a1e0 <msch_open+0xd0>)
1000a15e:	f7fd faeb 	bl	10007738 <__wrap_printf>
1000a162:	2600      	movs	r6, #0
1000a164:	e033      	b.n	1000a1ce <msch_open+0xbe>
1000a166:	22c1      	movs	r2, #193	; 0xc1
1000a168:	0052      	lsls	r2, r2, #1
1000a16a:	491c      	ldr	r1, [pc, #112]	; (1000a1dc <msch_open+0xcc>)
1000a16c:	481c      	ldr	r0, [pc, #112]	; (1000a1e0 <msch_open+0xd0>)
1000a16e:	f7fd fae3 	bl	10007738 <__wrap_printf>
1000a172:	e02c      	b.n	1000a1ce <msch_open+0xbe>
1000a174:	2168      	movs	r1, #104	; 0x68
1000a176:	464a      	mov	r2, r9
1000a178:	4351      	muls	r1, r2
1000a17a:	4a1a      	ldr	r2, [pc, #104]	; (1000a1e4 <msch_open+0xd4>)
1000a17c:	1852      	adds	r2, r2, r1
1000a17e:	7053      	strb	r3, [r2, #1]
1000a180:	783b      	ldrb	r3, [r7, #0]
1000a182:	18ff      	adds	r7, r7, r3
1000a184:	3501      	adds	r5, #1
1000a186:	2d01      	cmp	r5, #1
1000a188:	d818      	bhi.n	1000a1bc <msch_open+0xac>
1000a18a:	787b      	ldrb	r3, [r7, #1]
1000a18c:	2b05      	cmp	r3, #5
1000a18e:	d1e2      	bne.n	1000a156 <msch_open+0x46>
1000a190:	78fa      	ldrb	r2, [r7, #3]
1000a192:	3b02      	subs	r3, #2
1000a194:	4013      	ands	r3, r2
1000a196:	2b02      	cmp	r3, #2
1000a198:	d1dd      	bne.n	1000a156 <msch_open+0x46>
1000a19a:	0039      	movs	r1, r7
1000a19c:	9801      	ldr	r0, [sp, #4]
1000a19e:	f7fe fbdf 	bl	10008960 <tuh_edpt_open>
1000a1a2:	1e06      	subs	r6, r0, #0
1000a1a4:	d0df      	beq.n	1000a166 <msch_open+0x56>
1000a1a6:	78bb      	ldrb	r3, [r7, #2]
1000a1a8:	09da      	lsrs	r2, r3, #7
1000a1aa:	2a01      	cmp	r2, #1
1000a1ac:	d0e2      	beq.n	1000a174 <msch_open+0x64>
1000a1ae:	2168      	movs	r1, #104	; 0x68
1000a1b0:	464a      	mov	r2, r9
1000a1b2:	4351      	muls	r1, r2
1000a1b4:	4a0b      	ldr	r2, [pc, #44]	; (1000a1e4 <msch_open+0xd4>)
1000a1b6:	1852      	adds	r2, r2, r1
1000a1b8:	7093      	strb	r3, [r2, #2]
1000a1ba:	e7e1      	b.n	1000a180 <msch_open+0x70>
1000a1bc:	78a1      	ldrb	r1, [r4, #2]
1000a1be:	2368      	movs	r3, #104	; 0x68
1000a1c0:	464a      	mov	r2, r9
1000a1c2:	4353      	muls	r3, r2
1000a1c4:	4a07      	ldr	r2, [pc, #28]	; (1000a1e4 <msch_open+0xd4>)
1000a1c6:	5499      	strb	r1, [r3, r2]
1000a1c8:	2601      	movs	r6, #1
1000a1ca:	e000      	b.n	1000a1ce <msch_open+0xbe>
1000a1cc:	2600      	movs	r6, #0
1000a1ce:	0030      	movs	r0, r6
1000a1d0:	b002      	add	sp, #8
1000a1d2:	bc80      	pop	{r7}
1000a1d4:	46b9      	mov	r9, r7
1000a1d6:	bdf0      	pop	{r4, r5, r6, r7, pc}
1000a1d8:	2600      	movs	r6, #0
1000a1da:	e7f8      	b.n	1000a1ce <msch_open+0xbe>
1000a1dc:	1000d8ec 	.word	0x1000d8ec
1000a1e0:	1000c068 	.word	0x1000c068
1000a1e4:	200016ac 	.word	0x200016ac

1000a1e8 <msch_set_config>:
1000a1e8:	b530      	push	{r4, r5, lr}
1000a1ea:	b089      	sub	sp, #36	; 0x24
1000a1ec:	0005      	movs	r5, r0
1000a1ee:	1e42      	subs	r2, r0, #1
1000a1f0:	2368      	movs	r3, #104	; 0x68
1000a1f2:	4353      	muls	r3, r2
1000a1f4:	4821      	ldr	r0, [pc, #132]	; (1000a27c <msch_set_config+0x94>)
1000a1f6:	5c1b      	ldrb	r3, [r3, r0]
1000a1f8:	428b      	cmp	r3, r1
1000a1fa:	d009      	beq.n	1000a210 <msch_set_config+0x28>
1000a1fc:	22ca      	movs	r2, #202	; 0xca
1000a1fe:	0052      	lsls	r2, r2, #1
1000a200:	491f      	ldr	r1, [pc, #124]	; (1000a280 <msch_set_config+0x98>)
1000a202:	4820      	ldr	r0, [pc, #128]	; (1000a284 <msch_set_config+0x9c>)
1000a204:	f7fd fa98 	bl	10007738 <__wrap_printf>
1000a208:	2400      	movs	r4, #0
1000a20a:	0020      	movs	r0, r4
1000a20c:	b009      	add	sp, #36	; 0x24
1000a20e:	bd30      	pop	{r4, r5, pc}
1000a210:	2368      	movs	r3, #104	; 0x68
1000a212:	4353      	muls	r3, r2
1000a214:	4a19      	ldr	r2, [pc, #100]	; (1000a27c <msch_set_config+0x94>)
1000a216:	18d2      	adds	r2, r2, r3
1000a218:	2001      	movs	r0, #1
1000a21a:	7110      	strb	r0, [r2, #4]
1000a21c:	ac06      	add	r4, sp, #24
1000a21e:	7823      	ldrb	r3, [r4, #0]
1000a220:	221f      	movs	r2, #31
1000a222:	4393      	bics	r3, r2
1000a224:	2201      	movs	r2, #1
1000a226:	4313      	orrs	r3, r2
1000a228:	7023      	strb	r3, [r4, #0]
1000a22a:	b2db      	uxtb	r3, r3
1000a22c:	2260      	movs	r2, #96	; 0x60
1000a22e:	4393      	bics	r3, r2
1000a230:	2220      	movs	r2, #32
1000a232:	4313      	orrs	r3, r2
1000a234:	7023      	strb	r3, [r4, #0]
1000a236:	b2da      	uxtb	r2, r3
1000a238:	2380      	movs	r3, #128	; 0x80
1000a23a:	425b      	negs	r3, r3
1000a23c:	4313      	orrs	r3, r2
1000a23e:	7023      	strb	r3, [r4, #0]
1000a240:	23fe      	movs	r3, #254	; 0xfe
1000a242:	7063      	strb	r3, [r4, #1]
1000a244:	2300      	movs	r3, #0
1000a246:	8063      	strh	r3, [r4, #2]
1000a248:	80a1      	strh	r1, [r4, #4]
1000a24a:	80e0      	strh	r0, [r4, #6]
1000a24c:	2218      	movs	r2, #24
1000a24e:	2100      	movs	r1, #0
1000a250:	4668      	mov	r0, sp
1000a252:	f7fb ff89 	bl	10006168 <__wrap_memset>
1000a256:	466b      	mov	r3, sp
1000a258:	701d      	strb	r5, [r3, #0]
1000a25a:	9402      	str	r4, [sp, #8]
1000a25c:	4b0a      	ldr	r3, [pc, #40]	; (1000a288 <msch_set_config+0xa0>)
1000a25e:	9303      	str	r3, [sp, #12]
1000a260:	4b0a      	ldr	r3, [pc, #40]	; (1000a28c <msch_set_config+0xa4>)
1000a262:	9304      	str	r3, [sp, #16]
1000a264:	4668      	mov	r0, sp
1000a266:	f7fe fed9 	bl	1000901c <tuh_control_xfer>
1000a26a:	1e04      	subs	r4, r0, #0
1000a26c:	d1cd      	bne.n	1000a20a <msch_set_config+0x22>
1000a26e:	22d7      	movs	r2, #215	; 0xd7
1000a270:	0052      	lsls	r2, r2, #1
1000a272:	4903      	ldr	r1, [pc, #12]	; (1000a280 <msch_set_config+0x98>)
1000a274:	4803      	ldr	r0, [pc, #12]	; (1000a284 <msch_set_config+0x9c>)
1000a276:	f7fd fa5f 	bl	10007738 <__wrap_printf>
1000a27a:	e7c6      	b.n	1000a20a <msch_set_config+0x22>
1000a27c:	200016ac 	.word	0x200016ac
1000a280:	1000d8dc 	.word	0x1000d8dc
1000a284:	1000c068 	.word	0x1000c068
1000a288:	20001688 	.word	0x20001688
1000a28c:	10009c71 	.word	0x10009c71

1000a290 <tu_edpt_claim>:
1000a290:	b570      	push	{r4, r5, r6, lr}
1000a292:	0004      	movs	r4, r0
1000a294:	000d      	movs	r5, r1
1000a296:	7803      	ldrb	r3, [r0, #0]
1000a298:	07db      	lsls	r3, r3, #31
1000a29a:	0fde      	lsrs	r6, r3, #31
1000a29c:	2b00      	cmp	r3, #0
1000a29e:	d11c      	bne.n	1000a2da <tu_edpt_claim+0x4a>
1000a2a0:	7803      	ldrb	r3, [r0, #0]
1000a2a2:	075b      	lsls	r3, r3, #29
1000a2a4:	d41a      	bmi.n	1000a2dc <tu_edpt_claim+0x4c>
1000a2a6:	2101      	movs	r1, #1
1000a2a8:	4249      	negs	r1, r1
1000a2aa:	0028      	movs	r0, r5
1000a2ac:	f001 fc00 	bl	1000bab0 <__mutex_enter_timeout_ms_veneer>
1000a2b0:	7823      	ldrb	r3, [r4, #0]
1000a2b2:	07db      	lsls	r3, r3, #31
1000a2b4:	d404      	bmi.n	1000a2c0 <tu_edpt_claim+0x30>
1000a2b6:	7823      	ldrb	r3, [r4, #0]
1000a2b8:	075b      	lsls	r3, r3, #29
1000a2ba:	d50c      	bpl.n	1000a2d6 <tu_edpt_claim+0x46>
1000a2bc:	2600      	movs	r6, #0
1000a2be:	e000      	b.n	1000a2c2 <tu_edpt_claim+0x32>
1000a2c0:	2600      	movs	r6, #0
1000a2c2:	2e00      	cmp	r6, #0
1000a2c4:	d003      	beq.n	1000a2ce <tu_edpt_claim+0x3e>
1000a2c6:	7823      	ldrb	r3, [r4, #0]
1000a2c8:	2204      	movs	r2, #4
1000a2ca:	4313      	orrs	r3, r2
1000a2cc:	7023      	strb	r3, [r4, #0]
1000a2ce:	0028      	movs	r0, r5
1000a2d0:	f001 fbc6 	bl	1000ba60 <__mutex_exit_veneer>
1000a2d4:	e002      	b.n	1000a2dc <tu_edpt_claim+0x4c>
1000a2d6:	2601      	movs	r6, #1
1000a2d8:	e7f3      	b.n	1000a2c2 <tu_edpt_claim+0x32>
1000a2da:	2600      	movs	r6, #0
1000a2dc:	0030      	movs	r0, r6
1000a2de:	bd70      	pop	{r4, r5, r6, pc}

1000a2e0 <tu_edpt_release>:
1000a2e0:	b570      	push	{r4, r5, r6, lr}
1000a2e2:	0004      	movs	r4, r0
1000a2e4:	000e      	movs	r6, r1
1000a2e6:	2101      	movs	r1, #1
1000a2e8:	4249      	negs	r1, r1
1000a2ea:	0030      	movs	r0, r6
1000a2ec:	f001 fbe0 	bl	1000bab0 <__mutex_enter_timeout_ms_veneer>
1000a2f0:	7823      	ldrb	r3, [r4, #0]
1000a2f2:	075b      	lsls	r3, r3, #29
1000a2f4:	d40b      	bmi.n	1000a30e <tu_edpt_release+0x2e>
1000a2f6:	2500      	movs	r5, #0
1000a2f8:	2d00      	cmp	r5, #0
1000a2fa:	d003      	beq.n	1000a304 <tu_edpt_release+0x24>
1000a2fc:	7823      	ldrb	r3, [r4, #0]
1000a2fe:	2204      	movs	r2, #4
1000a300:	4393      	bics	r3, r2
1000a302:	7023      	strb	r3, [r4, #0]
1000a304:	0030      	movs	r0, r6
1000a306:	f001 fbab 	bl	1000ba60 <__mutex_exit_veneer>
1000a30a:	0028      	movs	r0, r5
1000a30c:	bd70      	pop	{r4, r5, r6, pc}
1000a30e:	7823      	ldrb	r3, [r4, #0]
1000a310:	07db      	lsls	r3, r3, #31
1000a312:	d501      	bpl.n	1000a318 <tu_edpt_release+0x38>
1000a314:	2500      	movs	r5, #0
1000a316:	e7ef      	b.n	1000a2f8 <tu_edpt_release+0x18>
1000a318:	2501      	movs	r5, #1
1000a31a:	e7ed      	b.n	1000a2f8 <tu_edpt_release+0x18>

1000a31c <tu_edpt_validate>:
1000a31c:	b510      	push	{r4, lr}
1000a31e:	7904      	ldrb	r4, [r0, #4]
1000a320:	7943      	ldrb	r3, [r0, #5]
1000a322:	021b      	lsls	r3, r3, #8
1000a324:	4323      	orrs	r3, r4
1000a326:	055b      	lsls	r3, r3, #21
1000a328:	0d5b      	lsrs	r3, r3, #21
1000a32a:	78c2      	ldrb	r2, [r0, #3]
1000a32c:	0792      	lsls	r2, r2, #30
1000a32e:	0f92      	lsrs	r2, r2, #30
1000a330:	2a02      	cmp	r2, #2
1000a332:	d016      	beq.n	1000a362 <tu_edpt_validate+0x46>
1000a334:	2a03      	cmp	r2, #3
1000a336:	d02f      	beq.n	1000a398 <tu_edpt_validate+0x7c>
1000a338:	2a01      	cmp	r2, #1
1000a33a:	d001      	beq.n	1000a340 <tu_edpt_validate+0x24>
1000a33c:	2000      	movs	r0, #0
1000a33e:	bd10      	pop	{r4, pc}
1000a340:	2902      	cmp	r1, #2
1000a342:	d004      	beq.n	1000a34e <tu_edpt_validate+0x32>
1000a344:	4a1d      	ldr	r2, [pc, #116]	; (1000a3bc <tu_edpt_validate+0xa0>)
1000a346:	429a      	cmp	r2, r3
1000a348:	d304      	bcc.n	1000a354 <tu_edpt_validate+0x38>
1000a34a:	2001      	movs	r0, #1
1000a34c:	e7f7      	b.n	1000a33e <tu_edpt_validate+0x22>
1000a34e:	2280      	movs	r2, #128	; 0x80
1000a350:	00d2      	lsls	r2, r2, #3
1000a352:	e7f8      	b.n	1000a346 <tu_edpt_validate+0x2a>
1000a354:	2290      	movs	r2, #144	; 0x90
1000a356:	491a      	ldr	r1, [pc, #104]	; (1000a3c0 <tu_edpt_validate+0xa4>)
1000a358:	481a      	ldr	r0, [pc, #104]	; (1000a3c4 <tu_edpt_validate+0xa8>)
1000a35a:	f7fd f9ed 	bl	10007738 <__wrap_printf>
1000a35e:	2000      	movs	r0, #0
1000a360:	e7ed      	b.n	1000a33e <tu_edpt_validate+0x22>
1000a362:	2902      	cmp	r1, #2
1000a364:	d003      	beq.n	1000a36e <tu_edpt_validate+0x52>
1000a366:	2b40      	cmp	r3, #64	; 0x40
1000a368:	d80f      	bhi.n	1000a38a <tu_edpt_validate+0x6e>
1000a36a:	2001      	movs	r0, #1
1000a36c:	e7e7      	b.n	1000a33e <tu_edpt_validate+0x22>
1000a36e:	2280      	movs	r2, #128	; 0x80
1000a370:	0092      	lsls	r2, r2, #2
1000a372:	4293      	cmp	r3, r2
1000a374:	d101      	bne.n	1000a37a <tu_edpt_validate+0x5e>
1000a376:	2001      	movs	r0, #1
1000a378:	e7e1      	b.n	1000a33e <tu_edpt_validate+0x22>
1000a37a:	3a6a      	subs	r2, #106	; 0x6a
1000a37c:	3aff      	subs	r2, #255	; 0xff
1000a37e:	4910      	ldr	r1, [pc, #64]	; (1000a3c0 <tu_edpt_validate+0xa4>)
1000a380:	4810      	ldr	r0, [pc, #64]	; (1000a3c4 <tu_edpt_validate+0xa8>)
1000a382:	f7fd f9d9 	bl	10007738 <__wrap_printf>
1000a386:	2000      	movs	r0, #0
1000a388:	e7d9      	b.n	1000a33e <tu_edpt_validate+0x22>
1000a38a:	229a      	movs	r2, #154	; 0x9a
1000a38c:	490c      	ldr	r1, [pc, #48]	; (1000a3c0 <tu_edpt_validate+0xa4>)
1000a38e:	480d      	ldr	r0, [pc, #52]	; (1000a3c4 <tu_edpt_validate+0xa8>)
1000a390:	f7fd f9d2 	bl	10007738 <__wrap_printf>
1000a394:	2000      	movs	r0, #0
1000a396:	e7d2      	b.n	1000a33e <tu_edpt_validate+0x22>
1000a398:	2902      	cmp	r1, #2
1000a39a:	d004      	beq.n	1000a3a6 <tu_edpt_validate+0x8a>
1000a39c:	2240      	movs	r2, #64	; 0x40
1000a39e:	429a      	cmp	r2, r3
1000a3a0:	d304      	bcc.n	1000a3ac <tu_edpt_validate+0x90>
1000a3a2:	2001      	movs	r0, #1
1000a3a4:	e7cb      	b.n	1000a33e <tu_edpt_validate+0x22>
1000a3a6:	2280      	movs	r2, #128	; 0x80
1000a3a8:	00d2      	lsls	r2, r2, #3
1000a3aa:	e7f8      	b.n	1000a39e <tu_edpt_validate+0x82>
1000a3ac:	22a0      	movs	r2, #160	; 0xa0
1000a3ae:	4904      	ldr	r1, [pc, #16]	; (1000a3c0 <tu_edpt_validate+0xa4>)
1000a3b0:	4804      	ldr	r0, [pc, #16]	; (1000a3c4 <tu_edpt_validate+0xa8>)
1000a3b2:	f7fd f9c1 	bl	10007738 <__wrap_printf>
1000a3b6:	2000      	movs	r0, #0
1000a3b8:	e7c1      	b.n	1000a33e <tu_edpt_validate+0x22>
1000a3ba:	46c0      	nop			; (mov r8, r8)
1000a3bc:	000003ff 	.word	0x000003ff
1000a3c0:	1000d908 	.word	0x1000d908
1000a3c4:	1000c068 	.word	0x1000c068

1000a3c8 <tu_edpt_bind_driver>:
1000a3c8:	b530      	push	{r4, r5, lr}
1000a3ca:	188a      	adds	r2, r1, r2
1000a3cc:	e001      	b.n	1000a3d2 <tu_edpt_bind_driver+0xa>
1000a3ce:	780c      	ldrb	r4, [r1, #0]
1000a3d0:	1909      	adds	r1, r1, r4
1000a3d2:	4291      	cmp	r1, r2
1000a3d4:	d20a      	bcs.n	1000a3ec <tu_edpt_bind_driver+0x24>
1000a3d6:	784c      	ldrb	r4, [r1, #1]
1000a3d8:	2c05      	cmp	r4, #5
1000a3da:	d1f8      	bne.n	1000a3ce <tu_edpt_bind_driver+0x6>
1000a3dc:	788d      	ldrb	r5, [r1, #2]
1000a3de:	347a      	adds	r4, #122	; 0x7a
1000a3e0:	402c      	ands	r4, r5
1000a3e2:	0064      	lsls	r4, r4, #1
1000a3e4:	1904      	adds	r4, r0, r4
1000a3e6:	09ed      	lsrs	r5, r5, #7
1000a3e8:	5563      	strb	r3, [r4, r5]
1000a3ea:	e7f0      	b.n	1000a3ce <tu_edpt_bind_driver+0x6>
1000a3ec:	bd30      	pop	{r4, r5, pc}

1000a3ee <tu_desc_get_interface_total_len>:
1000a3ee:	b570      	push	{r4, r5, r6, lr}
1000a3f0:	0005      	movs	r5, r0
1000a3f2:	0003      	movs	r3, r0
1000a3f4:	2000      	movs	r0, #0
1000a3f6:	e00e      	b.n	1000a416 <tu_desc_get_interface_total_len+0x28>
1000a3f8:	7819      	ldrb	r1, [r3, #0]
1000a3fa:	1808      	adds	r0, r1, r0
1000a3fc:	b280      	uxth	r0, r0
1000a3fe:	185b      	adds	r3, r3, r1
1000a400:	4290      	cmp	r0, r2
1000a402:	d207      	bcs.n	1000a414 <tu_desc_get_interface_total_len+0x26>
1000a404:	7859      	ldrb	r1, [r3, #1]
1000a406:	290b      	cmp	r1, #11
1000a408:	d00f      	beq.n	1000a42a <tu_desc_get_interface_total_len+0x3c>
1000a40a:	2904      	cmp	r1, #4
1000a40c:	d1f4      	bne.n	1000a3f8 <tu_desc_get_interface_total_len+0xa>
1000a40e:	78d9      	ldrb	r1, [r3, #3]
1000a410:	2900      	cmp	r1, #0
1000a412:	d1f1      	bne.n	1000a3f8 <tu_desc_get_interface_total_len+0xa>
1000a414:	0031      	movs	r1, r6
1000a416:	1e4e      	subs	r6, r1, #1
1000a418:	b2f6      	uxtb	r6, r6
1000a41a:	2900      	cmp	r1, #0
1000a41c:	d005      	beq.n	1000a42a <tu_desc_get_interface_total_len+0x3c>
1000a41e:	7829      	ldrb	r1, [r5, #0]
1000a420:	1808      	adds	r0, r1, r0
1000a422:	b280      	uxth	r0, r0
1000a424:	7819      	ldrb	r1, [r3, #0]
1000a426:	185b      	adds	r3, r3, r1
1000a428:	e7ea      	b.n	1000a400 <tu_desc_get_interface_total_len+0x12>
1000a42a:	bd70      	pop	{r4, r5, r6, pc}

1000a42c <advance_index>:
1000a42c:	0003      	movs	r3, r0
1000a42e:	188a      	adds	r2, r1, r2
1000a430:	b290      	uxth	r0, r2
1000a432:	4281      	cmp	r1, r0
1000a434:	d802      	bhi.n	1000a43c <advance_index+0x10>
1000a436:	005a      	lsls	r2, r3, #1
1000a438:	4290      	cmp	r0, r2
1000a43a:	db03      	blt.n	1000a444 <advance_index+0x18>
1000a43c:	005b      	lsls	r3, r3, #1
1000a43e:	b29b      	uxth	r3, r3
1000a440:	1ac0      	subs	r0, r0, r3
1000a442:	b280      	uxth	r0, r0
1000a444:	4770      	bx	lr

1000a446 <_tu_fifo_peek>:
1000a446:	b570      	push	{r4, r5, r6, lr}
1000a448:	0005      	movs	r5, r0
1000a44a:	0008      	movs	r0, r1
1000a44c:	88ac      	ldrh	r4, [r5, #4]
1000a44e:	429a      	cmp	r2, r3
1000a450:	d30b      	bcc.n	1000a46a <_tu_fifo_peek+0x24>
1000a452:	1ad1      	subs	r1, r2, r3
1000a454:	b289      	uxth	r1, r1
1000a456:	2900      	cmp	r1, #0
1000a458:	d01e      	beq.n	1000a498 <_tu_fifo_peek+0x52>
1000a45a:	428c      	cmp	r4, r1
1000a45c:	d210      	bcs.n	1000a480 <_tu_fifo_peek+0x3a>
1000a45e:	4294      	cmp	r4, r2
1000a460:	d809      	bhi.n	1000a476 <_tu_fifo_peek+0x30>
1000a462:	1b13      	subs	r3, r2, r4
1000a464:	b29b      	uxth	r3, r3
1000a466:	816b      	strh	r3, [r5, #10]
1000a468:	e00a      	b.n	1000a480 <_tu_fifo_peek+0x3a>
1000a46a:	1ad1      	subs	r1, r2, r3
1000a46c:	b289      	uxth	r1, r1
1000a46e:	0066      	lsls	r6, r4, #1
1000a470:	1989      	adds	r1, r1, r6
1000a472:	b289      	uxth	r1, r1
1000a474:	e7ef      	b.n	1000a456 <_tu_fifo_peek+0x10>
1000a476:	18a2      	adds	r2, r4, r2
1000a478:	b293      	uxth	r3, r2
1000a47a:	e7f4      	b.n	1000a466 <_tu_fifo_peek+0x20>
1000a47c:	1b1b      	subs	r3, r3, r4
1000a47e:	b29b      	uxth	r3, r3
1000a480:	429c      	cmp	r4, r3
1000a482:	d9fb      	bls.n	1000a47c <_tu_fifo_peek+0x36>
1000a484:	6829      	ldr	r1, [r5, #0]
1000a486:	88ea      	ldrh	r2, [r5, #6]
1000a488:	0452      	lsls	r2, r2, #17
1000a48a:	0c52      	lsrs	r2, r2, #17
1000a48c:	4353      	muls	r3, r2
1000a48e:	18c9      	adds	r1, r1, r3
1000a490:	f7fb fe70 	bl	10006174 <__wrap___aeabi_memcpy>
1000a494:	2001      	movs	r0, #1
1000a496:	bd70      	pop	{r4, r5, r6, pc}
1000a498:	2000      	movs	r0, #0
1000a49a:	e7fc      	b.n	1000a496 <_tu_fifo_peek+0x50>

1000a49c <tu_fifo_empty>:
1000a49c:	0003      	movs	r3, r0
1000a49e:	8900      	ldrh	r0, [r0, #8]
1000a4a0:	895b      	ldrh	r3, [r3, #10]
1000a4a2:	1ac0      	subs	r0, r0, r3
1000a4a4:	4243      	negs	r3, r0
1000a4a6:	4158      	adcs	r0, r3
1000a4a8:	b2c0      	uxtb	r0, r0
1000a4aa:	4770      	bx	lr

1000a4ac <tu_fifo_full>:
1000a4ac:	8881      	ldrh	r1, [r0, #4]
1000a4ae:	8903      	ldrh	r3, [r0, #8]
1000a4b0:	b29b      	uxth	r3, r3
1000a4b2:	8942      	ldrh	r2, [r0, #10]
1000a4b4:	b292      	uxth	r2, r2
1000a4b6:	4293      	cmp	r3, r2
1000a4b8:	d306      	bcc.n	1000a4c8 <tu_fifo_full+0x1c>
1000a4ba:	1a9b      	subs	r3, r3, r2
1000a4bc:	b29b      	uxth	r3, r3
1000a4be:	2000      	movs	r0, #0
1000a4c0:	428b      	cmp	r3, r1
1000a4c2:	4140      	adcs	r0, r0
1000a4c4:	b2c0      	uxtb	r0, r0
1000a4c6:	4770      	bx	lr
1000a4c8:	1a9b      	subs	r3, r3, r2
1000a4ca:	b29b      	uxth	r3, r3
1000a4cc:	004a      	lsls	r2, r1, #1
1000a4ce:	189b      	adds	r3, r3, r2
1000a4d0:	b29b      	uxth	r3, r3
1000a4d2:	e7f4      	b.n	1000a4be <tu_fifo_full+0x12>

1000a4d4 <tu_fifo_read>:
1000a4d4:	b570      	push	{r4, r5, r6, lr}
1000a4d6:	0004      	movs	r4, r0
1000a4d8:	000d      	movs	r5, r1
1000a4da:	6900      	ldr	r0, [r0, #16]
1000a4dc:	2800      	cmp	r0, #0
1000a4de:	d003      	beq.n	1000a4e8 <tu_fifo_read+0x14>
1000a4e0:	2101      	movs	r1, #1
1000a4e2:	4249      	negs	r1, r1
1000a4e4:	f001 fae4 	bl	1000bab0 <__mutex_enter_timeout_ms_veneer>
1000a4e8:	8922      	ldrh	r2, [r4, #8]
1000a4ea:	b292      	uxth	r2, r2
1000a4ec:	8963      	ldrh	r3, [r4, #10]
1000a4ee:	b29b      	uxth	r3, r3
1000a4f0:	0029      	movs	r1, r5
1000a4f2:	0020      	movs	r0, r4
1000a4f4:	f7ff ffa7 	bl	1000a446 <_tu_fifo_peek>
1000a4f8:	0005      	movs	r5, r0
1000a4fa:	8961      	ldrh	r1, [r4, #10]
1000a4fc:	b289      	uxth	r1, r1
1000a4fe:	b282      	uxth	r2, r0
1000a500:	88a0      	ldrh	r0, [r4, #4]
1000a502:	f7ff ff93 	bl	1000a42c <advance_index>
1000a506:	8160      	strh	r0, [r4, #10]
1000a508:	6920      	ldr	r0, [r4, #16]
1000a50a:	2800      	cmp	r0, #0
1000a50c:	d001      	beq.n	1000a512 <tu_fifo_read+0x3e>
1000a50e:	f001 faa7 	bl	1000ba60 <__mutex_exit_veneer>
1000a512:	0028      	movs	r0, r5
1000a514:	bd70      	pop	{r4, r5, r6, pc}

1000a516 <tu_fifo_write>:
1000a516:	b5f8      	push	{r3, r4, r5, r6, r7, lr}
1000a518:	0004      	movs	r4, r0
1000a51a:	000e      	movs	r6, r1
1000a51c:	68c0      	ldr	r0, [r0, #12]
1000a51e:	2800      	cmp	r0, #0
1000a520:	d003      	beq.n	1000a52a <tu_fifo_write+0x14>
1000a522:	2101      	movs	r1, #1
1000a524:	4249      	negs	r1, r1
1000a526:	f001 fac3 	bl	1000bab0 <__mutex_enter_timeout_ms_veneer>
1000a52a:	8925      	ldrh	r5, [r4, #8]
1000a52c:	b2ad      	uxth	r5, r5
1000a52e:	0020      	movs	r0, r4
1000a530:	f7ff ffbc 	bl	1000a4ac <tu_fifo_full>
1000a534:	2800      	cmp	r0, #0
1000a536:	d002      	beq.n	1000a53e <tu_fifo_write+0x28>
1000a538:	79e7      	ldrb	r7, [r4, #7]
1000a53a:	09ff      	lsrs	r7, r7, #7
1000a53c:	d016      	beq.n	1000a56c <tu_fifo_write+0x56>
1000a53e:	88a2      	ldrh	r2, [r4, #4]
1000a540:	002b      	movs	r3, r5
1000a542:	e001      	b.n	1000a548 <tu_fifo_write+0x32>
1000a544:	1a9b      	subs	r3, r3, r2
1000a546:	b29b      	uxth	r3, r3
1000a548:	429a      	cmp	r2, r3
1000a54a:	d9fb      	bls.n	1000a544 <tu_fifo_write+0x2e>
1000a54c:	88e2      	ldrh	r2, [r4, #6]
1000a54e:	0452      	lsls	r2, r2, #17
1000a550:	0c52      	lsrs	r2, r2, #17
1000a552:	4353      	muls	r3, r2
1000a554:	6821      	ldr	r1, [r4, #0]
1000a556:	18c8      	adds	r0, r1, r3
1000a558:	0031      	movs	r1, r6
1000a55a:	f7fb fe0b 	bl	10006174 <__wrap___aeabi_memcpy>
1000a55e:	88a0      	ldrh	r0, [r4, #4]
1000a560:	2201      	movs	r2, #1
1000a562:	0029      	movs	r1, r5
1000a564:	f7ff ff62 	bl	1000a42c <advance_index>
1000a568:	8120      	strh	r0, [r4, #8]
1000a56a:	2701      	movs	r7, #1
1000a56c:	68e0      	ldr	r0, [r4, #12]
1000a56e:	2800      	cmp	r0, #0
1000a570:	d001      	beq.n	1000a576 <tu_fifo_write+0x60>
1000a572:	f001 fa75 	bl	1000ba60 <__mutex_exit_veneer>
1000a576:	0038      	movs	r0, r7
1000a578:	bdf8      	pop	{r3, r4, r5, r6, r7, pc}

1000a57a <tu_fifo_clear>:
1000a57a:	b510      	push	{r4, lr}
1000a57c:	0004      	movs	r4, r0
1000a57e:	68c0      	ldr	r0, [r0, #12]
1000a580:	2800      	cmp	r0, #0
1000a582:	d003      	beq.n	1000a58c <tu_fifo_clear+0x12>
1000a584:	2101      	movs	r1, #1
1000a586:	4249      	negs	r1, r1
1000a588:	f001 fa92 	bl	1000bab0 <__mutex_enter_timeout_ms_veneer>
1000a58c:	6920      	ldr	r0, [r4, #16]
1000a58e:	2800      	cmp	r0, #0
1000a590:	d003      	beq.n	1000a59a <tu_fifo_clear+0x20>
1000a592:	2101      	movs	r1, #1
1000a594:	4249      	negs	r1, r1
1000a596:	f001 fa8b 	bl	1000bab0 <__mutex_enter_timeout_ms_veneer>
1000a59a:	2300      	movs	r3, #0
1000a59c:	8163      	strh	r3, [r4, #10]
1000a59e:	8123      	strh	r3, [r4, #8]
1000a5a0:	68e0      	ldr	r0, [r4, #12]
1000a5a2:	2800      	cmp	r0, #0
1000a5a4:	d001      	beq.n	1000a5aa <tu_fifo_clear+0x30>
1000a5a6:	f001 fa5b 	bl	1000ba60 <__mutex_exit_veneer>
1000a5aa:	6920      	ldr	r0, [r4, #16]
1000a5ac:	2800      	cmp	r0, #0
1000a5ae:	d001      	beq.n	1000a5b4 <tu_fifo_clear+0x3a>
1000a5b0:	f001 fa56 	bl	1000ba60 <__mutex_exit_veneer>
1000a5b4:	2001      	movs	r0, #1
1000a5b6:	bd10      	pop	{r4, pc}

1000a5b8 <malloc>:
1000a5b8:	b510      	push	{r4, lr}
1000a5ba:	4b03      	ldr	r3, [pc, #12]	; (1000a5c8 <malloc+0x10>)
1000a5bc:	0001      	movs	r1, r0
1000a5be:	6818      	ldr	r0, [r3, #0]
1000a5c0:	f000 f80e 	bl	1000a5e0 <_malloc_r>
1000a5c4:	bd10      	pop	{r4, pc}
1000a5c6:	46c0      	nop			; (mov r8, r8)
1000a5c8:	20000a28 	.word	0x20000a28

1000a5cc <free>:
1000a5cc:	b510      	push	{r4, lr}
1000a5ce:	4b03      	ldr	r3, [pc, #12]	; (1000a5dc <free+0x10>)
1000a5d0:	0001      	movs	r1, r0
1000a5d2:	6818      	ldr	r0, [r3, #0]
1000a5d4:	f000 ff36 	bl	1000b444 <_free_r>
1000a5d8:	bd10      	pop	{r4, pc}
1000a5da:	46c0      	nop			; (mov r8, r8)
1000a5dc:	20000a28 	.word	0x20000a28

1000a5e0 <_malloc_r>:
1000a5e0:	b5f0      	push	{r4, r5, r6, r7, lr}
1000a5e2:	464e      	mov	r6, r9
1000a5e4:	4645      	mov	r5, r8
1000a5e6:	46de      	mov	lr, fp
1000a5e8:	4657      	mov	r7, sl
1000a5ea:	b5e0      	push	{r5, r6, r7, lr}
1000a5ec:	000d      	movs	r5, r1
1000a5ee:	350b      	adds	r5, #11
1000a5f0:	0006      	movs	r6, r0
1000a5f2:	b083      	sub	sp, #12
1000a5f4:	2d16      	cmp	r5, #22
1000a5f6:	d822      	bhi.n	1000a63e <_malloc_r+0x5e>
1000a5f8:	2910      	cmp	r1, #16
1000a5fa:	d900      	bls.n	1000a5fe <_malloc_r+0x1e>
1000a5fc:	e0b2      	b.n	1000a764 <_malloc_r+0x184>
1000a5fe:	f000 fb23 	bl	1000ac48 <__malloc_lock>
1000a602:	2510      	movs	r5, #16
1000a604:	2318      	movs	r3, #24
1000a606:	2002      	movs	r0, #2
1000a608:	4fcc      	ldr	r7, [pc, #816]	; (1000a93c <_malloc_r+0x35c>)
1000a60a:	18fb      	adds	r3, r7, r3
1000a60c:	001a      	movs	r2, r3
1000a60e:	685c      	ldr	r4, [r3, #4]
1000a610:	3a08      	subs	r2, #8
1000a612:	4294      	cmp	r4, r2
1000a614:	d100      	bne.n	1000a618 <_malloc_r+0x38>
1000a616:	e0b5      	b.n	1000a784 <_malloc_r+0x1a4>
1000a618:	2303      	movs	r3, #3
1000a61a:	6862      	ldr	r2, [r4, #4]
1000a61c:	439a      	bics	r2, r3
1000a61e:	0013      	movs	r3, r2
1000a620:	68e2      	ldr	r2, [r4, #12]
1000a622:	68a1      	ldr	r1, [r4, #8]
1000a624:	60ca      	str	r2, [r1, #12]
1000a626:	6091      	str	r1, [r2, #8]
1000a628:	2201      	movs	r2, #1
1000a62a:	18e3      	adds	r3, r4, r3
1000a62c:	6859      	ldr	r1, [r3, #4]
1000a62e:	0030      	movs	r0, r6
1000a630:	430a      	orrs	r2, r1
1000a632:	605a      	str	r2, [r3, #4]
1000a634:	f000 fb0a 	bl	1000ac4c <__malloc_unlock>
1000a638:	0020      	movs	r0, r4
1000a63a:	3008      	adds	r0, #8
1000a63c:	e095      	b.n	1000a76a <_malloc_r+0x18a>
1000a63e:	2307      	movs	r3, #7
1000a640:	439d      	bics	r5, r3
1000a642:	d500      	bpl.n	1000a646 <_malloc_r+0x66>
1000a644:	e08e      	b.n	1000a764 <_malloc_r+0x184>
1000a646:	42a9      	cmp	r1, r5
1000a648:	d900      	bls.n	1000a64c <_malloc_r+0x6c>
1000a64a:	e08b      	b.n	1000a764 <_malloc_r+0x184>
1000a64c:	f000 fafc 	bl	1000ac48 <__malloc_lock>
1000a650:	23fc      	movs	r3, #252	; 0xfc
1000a652:	005b      	lsls	r3, r3, #1
1000a654:	429d      	cmp	r5, r3
1000a656:	d200      	bcs.n	1000a65a <_malloc_r+0x7a>
1000a658:	e1a1      	b.n	1000a99e <_malloc_r+0x3be>
1000a65a:	0a68      	lsrs	r0, r5, #9
1000a65c:	d100      	bne.n	1000a660 <_malloc_r+0x80>
1000a65e:	e08b      	b.n	1000a778 <_malloc_r+0x198>
1000a660:	2804      	cmp	r0, #4
1000a662:	d900      	bls.n	1000a666 <_malloc_r+0x86>
1000a664:	e174      	b.n	1000a950 <_malloc_r+0x370>
1000a666:	2338      	movs	r3, #56	; 0x38
1000a668:	4698      	mov	r8, r3
1000a66a:	09a8      	lsrs	r0, r5, #6
1000a66c:	4480      	add	r8, r0
1000a66e:	3039      	adds	r0, #57	; 0x39
1000a670:	00c1      	lsls	r1, r0, #3
1000a672:	4fb2      	ldr	r7, [pc, #712]	; (1000a93c <_malloc_r+0x35c>)
1000a674:	1879      	adds	r1, r7, r1
1000a676:	684c      	ldr	r4, [r1, #4]
1000a678:	3908      	subs	r1, #8
1000a67a:	42a1      	cmp	r1, r4
1000a67c:	d00e      	beq.n	1000a69c <_malloc_r+0xbc>
1000a67e:	2303      	movs	r3, #3
1000a680:	469c      	mov	ip, r3
1000a682:	e004      	b.n	1000a68e <_malloc_r+0xae>
1000a684:	2a00      	cmp	r2, #0
1000a686:	dacb      	bge.n	1000a620 <_malloc_r+0x40>
1000a688:	68e4      	ldr	r4, [r4, #12]
1000a68a:	42a1      	cmp	r1, r4
1000a68c:	d006      	beq.n	1000a69c <_malloc_r+0xbc>
1000a68e:	4662      	mov	r2, ip
1000a690:	6863      	ldr	r3, [r4, #4]
1000a692:	4393      	bics	r3, r2
1000a694:	1b5a      	subs	r2, r3, r5
1000a696:	2a0f      	cmp	r2, #15
1000a698:	ddf4      	ble.n	1000a684 <_malloc_r+0xa4>
1000a69a:	4640      	mov	r0, r8
1000a69c:	003a      	movs	r2, r7
1000a69e:	693c      	ldr	r4, [r7, #16]
1000a6a0:	3208      	adds	r2, #8
1000a6a2:	4294      	cmp	r4, r2
1000a6a4:	d100      	bne.n	1000a6a8 <_malloc_r+0xc8>
1000a6a6:	e078      	b.n	1000a79a <_malloc_r+0x1ba>
1000a6a8:	2303      	movs	r3, #3
1000a6aa:	6861      	ldr	r1, [r4, #4]
1000a6ac:	4399      	bics	r1, r3
1000a6ae:	4689      	mov	r9, r1
1000a6b0:	000b      	movs	r3, r1
1000a6b2:	1b49      	subs	r1, r1, r5
1000a6b4:	290f      	cmp	r1, #15
1000a6b6:	dd00      	ble.n	1000a6ba <_malloc_r+0xda>
1000a6b8:	e175      	b.n	1000a9a6 <_malloc_r+0x3c6>
1000a6ba:	617a      	str	r2, [r7, #20]
1000a6bc:	613a      	str	r2, [r7, #16]
1000a6be:	2900      	cmp	r1, #0
1000a6c0:	dab2      	bge.n	1000a628 <_malloc_r+0x48>
1000a6c2:	2280      	movs	r2, #128	; 0x80
1000a6c4:	0092      	lsls	r2, r2, #2
1000a6c6:	4591      	cmp	r9, r2
1000a6c8:	d300      	bcc.n	1000a6cc <_malloc_r+0xec>
1000a6ca:	e110      	b.n	1000a8ee <_malloc_r+0x30e>
1000a6cc:	0959      	lsrs	r1, r3, #5
1000a6ce:	08da      	lsrs	r2, r3, #3
1000a6d0:	2301      	movs	r3, #1
1000a6d2:	408b      	lsls	r3, r1
1000a6d4:	00d2      	lsls	r2, r2, #3
1000a6d6:	6879      	ldr	r1, [r7, #4]
1000a6d8:	19d2      	adds	r2, r2, r7
1000a6da:	430b      	orrs	r3, r1
1000a6dc:	6891      	ldr	r1, [r2, #8]
1000a6de:	607b      	str	r3, [r7, #4]
1000a6e0:	60e2      	str	r2, [r4, #12]
1000a6e2:	60a1      	str	r1, [r4, #8]
1000a6e4:	6094      	str	r4, [r2, #8]
1000a6e6:	60cc      	str	r4, [r1, #12]
1000a6e8:	2101      	movs	r1, #1
1000a6ea:	1082      	asrs	r2, r0, #2
1000a6ec:	4091      	lsls	r1, r2
1000a6ee:	4299      	cmp	r1, r3
1000a6f0:	d859      	bhi.n	1000a7a6 <_malloc_r+0x1c6>
1000a6f2:	420b      	tst	r3, r1
1000a6f4:	d105      	bne.n	1000a702 <_malloc_r+0x122>
1000a6f6:	2203      	movs	r2, #3
1000a6f8:	4390      	bics	r0, r2
1000a6fa:	0049      	lsls	r1, r1, #1
1000a6fc:	3004      	adds	r0, #4
1000a6fe:	420b      	tst	r3, r1
1000a700:	d0fb      	beq.n	1000a6fa <_malloc_r+0x11a>
1000a702:	2303      	movs	r3, #3
1000a704:	4698      	mov	r8, r3
1000a706:	00c3      	lsls	r3, r0, #3
1000a708:	4699      	mov	r9, r3
1000a70a:	44b9      	add	r9, r7
1000a70c:	46cc      	mov	ip, r9
1000a70e:	4682      	mov	sl, r0
1000a710:	4663      	mov	r3, ip
1000a712:	68dc      	ldr	r4, [r3, #12]
1000a714:	45a4      	cmp	ip, r4
1000a716:	d107      	bne.n	1000a728 <_malloc_r+0x148>
1000a718:	e126      	b.n	1000a968 <_malloc_r+0x388>
1000a71a:	2a00      	cmp	r2, #0
1000a71c:	db00      	blt.n	1000a720 <_malloc_r+0x140>
1000a71e:	e12f      	b.n	1000a980 <_malloc_r+0x3a0>
1000a720:	68e4      	ldr	r4, [r4, #12]
1000a722:	45a4      	cmp	ip, r4
1000a724:	d100      	bne.n	1000a728 <_malloc_r+0x148>
1000a726:	e11f      	b.n	1000a968 <_malloc_r+0x388>
1000a728:	4642      	mov	r2, r8
1000a72a:	6863      	ldr	r3, [r4, #4]
1000a72c:	4393      	bics	r3, r2
1000a72e:	1b5a      	subs	r2, r3, r5
1000a730:	2a0f      	cmp	r2, #15
1000a732:	ddf2      	ble.n	1000a71a <_malloc_r+0x13a>
1000a734:	2001      	movs	r0, #1
1000a736:	4680      	mov	r8, r0
1000a738:	1961      	adds	r1, r4, r5
1000a73a:	4305      	orrs	r5, r0
1000a73c:	6065      	str	r5, [r4, #4]
1000a73e:	68a0      	ldr	r0, [r4, #8]
1000a740:	68e5      	ldr	r5, [r4, #12]
1000a742:	3708      	adds	r7, #8
1000a744:	60c5      	str	r5, [r0, #12]
1000a746:	60a8      	str	r0, [r5, #8]
1000a748:	4640      	mov	r0, r8
1000a74a:	4310      	orrs	r0, r2
1000a74c:	60f9      	str	r1, [r7, #12]
1000a74e:	60b9      	str	r1, [r7, #8]
1000a750:	6048      	str	r0, [r1, #4]
1000a752:	60cf      	str	r7, [r1, #12]
1000a754:	0030      	movs	r0, r6
1000a756:	608f      	str	r7, [r1, #8]
1000a758:	50e2      	str	r2, [r4, r3]
1000a75a:	f000 fa77 	bl	1000ac4c <__malloc_unlock>
1000a75e:	0020      	movs	r0, r4
1000a760:	3008      	adds	r0, #8
1000a762:	e002      	b.n	1000a76a <_malloc_r+0x18a>
1000a764:	230c      	movs	r3, #12
1000a766:	2000      	movs	r0, #0
1000a768:	6033      	str	r3, [r6, #0]
1000a76a:	b003      	add	sp, #12
1000a76c:	bcf0      	pop	{r4, r5, r6, r7}
1000a76e:	46bb      	mov	fp, r7
1000a770:	46b2      	mov	sl, r6
1000a772:	46a9      	mov	r9, r5
1000a774:	46a0      	mov	r8, r4
1000a776:	bdf0      	pop	{r4, r5, r6, r7, pc}
1000a778:	2180      	movs	r1, #128	; 0x80
1000a77a:	233f      	movs	r3, #63	; 0x3f
1000a77c:	2040      	movs	r0, #64	; 0x40
1000a77e:	4698      	mov	r8, r3
1000a780:	0089      	lsls	r1, r1, #2
1000a782:	e776      	b.n	1000a672 <_malloc_r+0x92>
1000a784:	68dc      	ldr	r4, [r3, #12]
1000a786:	3002      	adds	r0, #2
1000a788:	42a3      	cmp	r3, r4
1000a78a:	d000      	beq.n	1000a78e <_malloc_r+0x1ae>
1000a78c:	e744      	b.n	1000a618 <_malloc_r+0x38>
1000a78e:	003a      	movs	r2, r7
1000a790:	693c      	ldr	r4, [r7, #16]
1000a792:	3208      	adds	r2, #8
1000a794:	4294      	cmp	r4, r2
1000a796:	d000      	beq.n	1000a79a <_malloc_r+0x1ba>
1000a798:	e786      	b.n	1000a6a8 <_malloc_r+0xc8>
1000a79a:	2101      	movs	r1, #1
1000a79c:	687b      	ldr	r3, [r7, #4]
1000a79e:	1082      	asrs	r2, r0, #2
1000a7a0:	4091      	lsls	r1, r2
1000a7a2:	4299      	cmp	r1, r3
1000a7a4:	d9a5      	bls.n	1000a6f2 <_malloc_r+0x112>
1000a7a6:	2303      	movs	r3, #3
1000a7a8:	68bc      	ldr	r4, [r7, #8]
1000a7aa:	6862      	ldr	r2, [r4, #4]
1000a7ac:	439a      	bics	r2, r3
1000a7ae:	4691      	mov	r9, r2
1000a7b0:	4295      	cmp	r5, r2
1000a7b2:	d803      	bhi.n	1000a7bc <_malloc_r+0x1dc>
1000a7b4:	1b53      	subs	r3, r2, r5
1000a7b6:	2b0f      	cmp	r3, #15
1000a7b8:	dd00      	ble.n	1000a7bc <_malloc_r+0x1dc>
1000a7ba:	e08a      	b.n	1000a8d2 <_malloc_r+0x2f2>
1000a7bc:	0023      	movs	r3, r4
1000a7be:	444b      	add	r3, r9
1000a7c0:	4a5f      	ldr	r2, [pc, #380]	; (1000a940 <_malloc_r+0x360>)
1000a7c2:	9301      	str	r3, [sp, #4]
1000a7c4:	4b5f      	ldr	r3, [pc, #380]	; (1000a944 <_malloc_r+0x364>)
1000a7c6:	4693      	mov	fp, r2
1000a7c8:	469a      	mov	sl, r3
1000a7ca:	6812      	ldr	r2, [r2, #0]
1000a7cc:	681b      	ldr	r3, [r3, #0]
1000a7ce:	18eb      	adds	r3, r5, r3
1000a7d0:	3201      	adds	r2, #1
1000a7d2:	d100      	bne.n	1000a7d6 <_malloc_r+0x1f6>
1000a7d4:	e136      	b.n	1000aa44 <_malloc_r+0x464>
1000a7d6:	4a5c      	ldr	r2, [pc, #368]	; (1000a948 <_malloc_r+0x368>)
1000a7d8:	4694      	mov	ip, r2
1000a7da:	4463      	add	r3, ip
1000a7dc:	0b1b      	lsrs	r3, r3, #12
1000a7de:	031b      	lsls	r3, r3, #12
1000a7e0:	9300      	str	r3, [sp, #0]
1000a7e2:	0030      	movs	r0, r6
1000a7e4:	9900      	ldr	r1, [sp, #0]
1000a7e6:	f000 fa33 	bl	1000ac50 <_sbrk_r>
1000a7ea:	0003      	movs	r3, r0
1000a7ec:	4680      	mov	r8, r0
1000a7ee:	3301      	adds	r3, #1
1000a7f0:	d100      	bne.n	1000a7f4 <_malloc_r+0x214>
1000a7f2:	e0f3      	b.n	1000a9dc <_malloc_r+0x3fc>
1000a7f4:	9b01      	ldr	r3, [sp, #4]
1000a7f6:	4283      	cmp	r3, r0
1000a7f8:	d900      	bls.n	1000a7fc <_malloc_r+0x21c>
1000a7fa:	e0ed      	b.n	1000a9d8 <_malloc_r+0x3f8>
1000a7fc:	4652      	mov	r2, sl
1000a7fe:	9800      	ldr	r0, [sp, #0]
1000a800:	6852      	ldr	r2, [r2, #4]
1000a802:	0003      	movs	r3, r0
1000a804:	4694      	mov	ip, r2
1000a806:	4651      	mov	r1, sl
1000a808:	4463      	add	r3, ip
1000a80a:	604b      	str	r3, [r1, #4]
1000a80c:	9901      	ldr	r1, [sp, #4]
1000a80e:	001a      	movs	r2, r3
1000a810:	4541      	cmp	r1, r8
1000a812:	d100      	bne.n	1000a816 <_malloc_r+0x236>
1000a814:	e14b      	b.n	1000aaae <_malloc_r+0x4ce>
1000a816:	465b      	mov	r3, fp
1000a818:	681b      	ldr	r3, [r3, #0]
1000a81a:	3301      	adds	r3, #1
1000a81c:	d100      	bne.n	1000a820 <_malloc_r+0x240>
1000a81e:	e150      	b.n	1000aac2 <_malloc_r+0x4e2>
1000a820:	4643      	mov	r3, r8
1000a822:	9901      	ldr	r1, [sp, #4]
1000a824:	1a5b      	subs	r3, r3, r1
1000a826:	189a      	adds	r2, r3, r2
1000a828:	4653      	mov	r3, sl
1000a82a:	605a      	str	r2, [r3, #4]
1000a82c:	2307      	movs	r3, #7
1000a82e:	4642      	mov	r2, r8
1000a830:	4641      	mov	r1, r8
1000a832:	401a      	ands	r2, r3
1000a834:	9201      	str	r2, [sp, #4]
1000a836:	4219      	tst	r1, r3
1000a838:	d100      	bne.n	1000a83c <_malloc_r+0x25c>
1000a83a:	e10d      	b.n	1000aa58 <_malloc_r+0x478>
1000a83c:	2308      	movs	r3, #8
1000a83e:	4698      	mov	r8, r3
1000a840:	1a88      	subs	r0, r1, r2
1000a842:	4b42      	ldr	r3, [pc, #264]	; (1000a94c <_malloc_r+0x36c>)
1000a844:	9900      	ldr	r1, [sp, #0]
1000a846:	4480      	add	r8, r0
1000a848:	4441      	add	r1, r8
1000a84a:	1a9b      	subs	r3, r3, r2
1000a84c:	1a5b      	subs	r3, r3, r1
1000a84e:	051b      	lsls	r3, r3, #20
1000a850:	0d1b      	lsrs	r3, r3, #20
1000a852:	9100      	str	r1, [sp, #0]
1000a854:	0030      	movs	r0, r6
1000a856:	0019      	movs	r1, r3
1000a858:	469b      	mov	fp, r3
1000a85a:	f000 f9f9 	bl	1000ac50 <_sbrk_r>
1000a85e:	1c43      	adds	r3, r0, #1
1000a860:	d100      	bne.n	1000a864 <_malloc_r+0x284>
1000a862:	e14a      	b.n	1000aafa <_malloc_r+0x51a>
1000a864:	4643      	mov	r3, r8
1000a866:	1ac0      	subs	r0, r0, r3
1000a868:	0003      	movs	r3, r0
1000a86a:	445b      	add	r3, fp
1000a86c:	9300      	str	r3, [sp, #0]
1000a86e:	4653      	mov	r3, sl
1000a870:	4652      	mov	r2, sl
1000a872:	685b      	ldr	r3, [r3, #4]
1000a874:	2101      	movs	r1, #1
1000a876:	445b      	add	r3, fp
1000a878:	6053      	str	r3, [r2, #4]
1000a87a:	4642      	mov	r2, r8
1000a87c:	4640      	mov	r0, r8
1000a87e:	60ba      	str	r2, [r7, #8]
1000a880:	9a00      	ldr	r2, [sp, #0]
1000a882:	430a      	orrs	r2, r1
1000a884:	6042      	str	r2, [r0, #4]
1000a886:	42bc      	cmp	r4, r7
1000a888:	d100      	bne.n	1000a88c <_malloc_r+0x2ac>
1000a88a:	e11e      	b.n	1000aaca <_malloc_r+0x4ea>
1000a88c:	464a      	mov	r2, r9
1000a88e:	2a0f      	cmp	r2, #15
1000a890:	d800      	bhi.n	1000a894 <_malloc_r+0x2b4>
1000a892:	e11c      	b.n	1000aace <_malloc_r+0x4ee>
1000a894:	2007      	movs	r0, #7
1000a896:	3a0c      	subs	r2, #12
1000a898:	4382      	bics	r2, r0
1000a89a:	6860      	ldr	r0, [r4, #4]
1000a89c:	4001      	ands	r1, r0
1000a89e:	2005      	movs	r0, #5
1000a8a0:	4311      	orrs	r1, r2
1000a8a2:	6061      	str	r1, [r4, #4]
1000a8a4:	18a1      	adds	r1, r4, r2
1000a8a6:	6048      	str	r0, [r1, #4]
1000a8a8:	6088      	str	r0, [r1, #8]
1000a8aa:	2a0f      	cmp	r2, #15
1000a8ac:	d900      	bls.n	1000a8b0 <_malloc_r+0x2d0>
1000a8ae:	e12f      	b.n	1000ab10 <_malloc_r+0x530>
1000a8b0:	4642      	mov	r2, r8
1000a8b2:	4644      	mov	r4, r8
1000a8b4:	6852      	ldr	r2, [r2, #4]
1000a8b6:	4651      	mov	r1, sl
1000a8b8:	6ac9      	ldr	r1, [r1, #44]	; 0x2c
1000a8ba:	4299      	cmp	r1, r3
1000a8bc:	d201      	bcs.n	1000a8c2 <_malloc_r+0x2e2>
1000a8be:	4651      	mov	r1, sl
1000a8c0:	62cb      	str	r3, [r1, #44]	; 0x2c
1000a8c2:	4651      	mov	r1, sl
1000a8c4:	6b09      	ldr	r1, [r1, #48]	; 0x30
1000a8c6:	4299      	cmp	r1, r3
1000a8c8:	d300      	bcc.n	1000a8cc <_malloc_r+0x2ec>
1000a8ca:	e089      	b.n	1000a9e0 <_malloc_r+0x400>
1000a8cc:	4651      	mov	r1, sl
1000a8ce:	630b      	str	r3, [r1, #48]	; 0x30
1000a8d0:	e086      	b.n	1000a9e0 <_malloc_r+0x400>
1000a8d2:	2201      	movs	r2, #1
1000a8d4:	0029      	movs	r1, r5
1000a8d6:	4313      	orrs	r3, r2
1000a8d8:	4311      	orrs	r1, r2
1000a8da:	1965      	adds	r5, r4, r5
1000a8dc:	6061      	str	r1, [r4, #4]
1000a8de:	0030      	movs	r0, r6
1000a8e0:	60bd      	str	r5, [r7, #8]
1000a8e2:	606b      	str	r3, [r5, #4]
1000a8e4:	f000 f9b2 	bl	1000ac4c <__malloc_unlock>
1000a8e8:	0020      	movs	r0, r4
1000a8ea:	3008      	adds	r0, #8
1000a8ec:	e73d      	b.n	1000a76a <_malloc_r+0x18a>
1000a8ee:	0a5a      	lsrs	r2, r3, #9
1000a8f0:	2a04      	cmp	r2, #4
1000a8f2:	d96b      	bls.n	1000a9cc <_malloc_r+0x3ec>
1000a8f4:	2a14      	cmp	r2, #20
1000a8f6:	d900      	bls.n	1000a8fa <_malloc_r+0x31a>
1000a8f8:	e0be      	b.n	1000aa78 <_malloc_r+0x498>
1000a8fa:	0011      	movs	r1, r2
1000a8fc:	325c      	adds	r2, #92	; 0x5c
1000a8fe:	315b      	adds	r1, #91	; 0x5b
1000a900:	00d2      	lsls	r2, r2, #3
1000a902:	2308      	movs	r3, #8
1000a904:	425b      	negs	r3, r3
1000a906:	469c      	mov	ip, r3
1000a908:	18ba      	adds	r2, r7, r2
1000a90a:	4494      	add	ip, r2
1000a90c:	4663      	mov	r3, ip
1000a90e:	689a      	ldr	r2, [r3, #8]
1000a910:	2303      	movs	r3, #3
1000a912:	4698      	mov	r8, r3
1000a914:	4594      	cmp	ip, r2
1000a916:	d100      	bne.n	1000a91a <_malloc_r+0x33a>
1000a918:	e097      	b.n	1000aa4a <_malloc_r+0x46a>
1000a91a:	4643      	mov	r3, r8
1000a91c:	6851      	ldr	r1, [r2, #4]
1000a91e:	4399      	bics	r1, r3
1000a920:	4549      	cmp	r1, r9
1000a922:	d902      	bls.n	1000a92a <_malloc_r+0x34a>
1000a924:	6892      	ldr	r2, [r2, #8]
1000a926:	4594      	cmp	ip, r2
1000a928:	d1f7      	bne.n	1000a91a <_malloc_r+0x33a>
1000a92a:	68d3      	ldr	r3, [r2, #12]
1000a92c:	469c      	mov	ip, r3
1000a92e:	687b      	ldr	r3, [r7, #4]
1000a930:	4661      	mov	r1, ip
1000a932:	60a2      	str	r2, [r4, #8]
1000a934:	60e1      	str	r1, [r4, #12]
1000a936:	608c      	str	r4, [r1, #8]
1000a938:	60d4      	str	r4, [r2, #12]
1000a93a:	e6d5      	b.n	1000a6e8 <_malloc_r+0x108>
1000a93c:	20000e60 	.word	0x20000e60
1000a940:	20000e58 	.word	0x20000e58
1000a944:	2000140c 	.word	0x2000140c
1000a948:	0000100f 	.word	0x0000100f
1000a94c:	00001008 	.word	0x00001008
1000a950:	2814      	cmp	r0, #20
1000a952:	d952      	bls.n	1000a9fa <_malloc_r+0x41a>
1000a954:	2854      	cmp	r0, #84	; 0x54
1000a956:	d900      	bls.n	1000a95a <_malloc_r+0x37a>
1000a958:	e096      	b.n	1000aa88 <_malloc_r+0x4a8>
1000a95a:	236e      	movs	r3, #110	; 0x6e
1000a95c:	4698      	mov	r8, r3
1000a95e:	0b28      	lsrs	r0, r5, #12
1000a960:	4480      	add	r8, r0
1000a962:	306f      	adds	r0, #111	; 0x6f
1000a964:	00c1      	lsls	r1, r0, #3
1000a966:	e684      	b.n	1000a672 <_malloc_r+0x92>
1000a968:	2308      	movs	r3, #8
1000a96a:	469b      	mov	fp, r3
1000a96c:	3b07      	subs	r3, #7
1000a96e:	44dc      	add	ip, fp
1000a970:	469b      	mov	fp, r3
1000a972:	44da      	add	sl, fp
1000a974:	4643      	mov	r3, r8
1000a976:	4652      	mov	r2, sl
1000a978:	4213      	tst	r3, r2
1000a97a:	d000      	beq.n	1000a97e <_malloc_r+0x39e>
1000a97c:	e6c8      	b.n	1000a710 <_malloc_r+0x130>
1000a97e:	e04c      	b.n	1000aa1a <_malloc_r+0x43a>
1000a980:	2201      	movs	r2, #1
1000a982:	18e3      	adds	r3, r4, r3
1000a984:	6859      	ldr	r1, [r3, #4]
1000a986:	0030      	movs	r0, r6
1000a988:	430a      	orrs	r2, r1
1000a98a:	605a      	str	r2, [r3, #4]
1000a98c:	68e3      	ldr	r3, [r4, #12]
1000a98e:	68a2      	ldr	r2, [r4, #8]
1000a990:	60d3      	str	r3, [r2, #12]
1000a992:	609a      	str	r2, [r3, #8]
1000a994:	f000 f95a 	bl	1000ac4c <__malloc_unlock>
1000a998:	0020      	movs	r0, r4
1000a99a:	3008      	adds	r0, #8
1000a99c:	e6e5      	b.n	1000a76a <_malloc_r+0x18a>
1000a99e:	002b      	movs	r3, r5
1000a9a0:	08e8      	lsrs	r0, r5, #3
1000a9a2:	3308      	adds	r3, #8
1000a9a4:	e630      	b.n	1000a608 <_malloc_r+0x28>
1000a9a6:	2301      	movs	r3, #1
1000a9a8:	1960      	adds	r0, r4, r5
1000a9aa:	431d      	orrs	r5, r3
1000a9ac:	6065      	str	r5, [r4, #4]
1000a9ae:	6178      	str	r0, [r7, #20]
1000a9b0:	6138      	str	r0, [r7, #16]
1000a9b2:	60c2      	str	r2, [r0, #12]
1000a9b4:	6082      	str	r2, [r0, #8]
1000a9b6:	001a      	movs	r2, r3
1000a9b8:	464b      	mov	r3, r9
1000a9ba:	430a      	orrs	r2, r1
1000a9bc:	6042      	str	r2, [r0, #4]
1000a9be:	0030      	movs	r0, r6
1000a9c0:	50e1      	str	r1, [r4, r3]
1000a9c2:	f000 f943 	bl	1000ac4c <__malloc_unlock>
1000a9c6:	0020      	movs	r0, r4
1000a9c8:	3008      	adds	r0, #8
1000a9ca:	e6ce      	b.n	1000a76a <_malloc_r+0x18a>
1000a9cc:	099a      	lsrs	r2, r3, #6
1000a9ce:	0011      	movs	r1, r2
1000a9d0:	3239      	adds	r2, #57	; 0x39
1000a9d2:	3138      	adds	r1, #56	; 0x38
1000a9d4:	00d2      	lsls	r2, r2, #3
1000a9d6:	e794      	b.n	1000a902 <_malloc_r+0x322>
1000a9d8:	42bc      	cmp	r4, r7
1000a9da:	d060      	beq.n	1000aa9e <_malloc_r+0x4be>
1000a9dc:	68bc      	ldr	r4, [r7, #8]
1000a9de:	6862      	ldr	r2, [r4, #4]
1000a9e0:	2303      	movs	r3, #3
1000a9e2:	439a      	bics	r2, r3
1000a9e4:	1b53      	subs	r3, r2, r5
1000a9e6:	4295      	cmp	r5, r2
1000a9e8:	d802      	bhi.n	1000a9f0 <_malloc_r+0x410>
1000a9ea:	2b0f      	cmp	r3, #15
1000a9ec:	dd00      	ble.n	1000a9f0 <_malloc_r+0x410>
1000a9ee:	e770      	b.n	1000a8d2 <_malloc_r+0x2f2>
1000a9f0:	0030      	movs	r0, r6
1000a9f2:	f000 f92b 	bl	1000ac4c <__malloc_unlock>
1000a9f6:	2000      	movs	r0, #0
1000a9f8:	e6b7      	b.n	1000a76a <_malloc_r+0x18a>
1000a9fa:	235b      	movs	r3, #91	; 0x5b
1000a9fc:	4698      	mov	r8, r3
1000a9fe:	4480      	add	r8, r0
1000aa00:	305c      	adds	r0, #92	; 0x5c
1000aa02:	00c1      	lsls	r1, r0, #3
1000aa04:	e635      	b.n	1000a672 <_malloc_r+0x92>
1000aa06:	2308      	movs	r3, #8
1000aa08:	425b      	negs	r3, r3
1000aa0a:	469c      	mov	ip, r3
1000aa0c:	44e1      	add	r9, ip
1000aa0e:	464b      	mov	r3, r9
1000aa10:	689b      	ldr	r3, [r3, #8]
1000aa12:	3801      	subs	r0, #1
1000aa14:	454b      	cmp	r3, r9
1000aa16:	d000      	beq.n	1000aa1a <_malloc_r+0x43a>
1000aa18:	e097      	b.n	1000ab4a <_malloc_r+0x56a>
1000aa1a:	4643      	mov	r3, r8
1000aa1c:	4203      	tst	r3, r0
1000aa1e:	d1f2      	bne.n	1000aa06 <_malloc_r+0x426>
1000aa20:	687b      	ldr	r3, [r7, #4]
1000aa22:	438b      	bics	r3, r1
1000aa24:	607b      	str	r3, [r7, #4]
1000aa26:	0049      	lsls	r1, r1, #1
1000aa28:	4299      	cmp	r1, r3
1000aa2a:	d900      	bls.n	1000aa2e <_malloc_r+0x44e>
1000aa2c:	e6bb      	b.n	1000a7a6 <_malloc_r+0x1c6>
1000aa2e:	2900      	cmp	r1, #0
1000aa30:	d104      	bne.n	1000aa3c <_malloc_r+0x45c>
1000aa32:	e6b8      	b.n	1000a7a6 <_malloc_r+0x1c6>
1000aa34:	2204      	movs	r2, #4
1000aa36:	4694      	mov	ip, r2
1000aa38:	0049      	lsls	r1, r1, #1
1000aa3a:	44e2      	add	sl, ip
1000aa3c:	420b      	tst	r3, r1
1000aa3e:	d0f9      	beq.n	1000aa34 <_malloc_r+0x454>
1000aa40:	4650      	mov	r0, sl
1000aa42:	e660      	b.n	1000a706 <_malloc_r+0x126>
1000aa44:	3310      	adds	r3, #16
1000aa46:	9300      	str	r3, [sp, #0]
1000aa48:	e6cb      	b.n	1000a7e2 <_malloc_r+0x202>
1000aa4a:	1089      	asrs	r1, r1, #2
1000aa4c:	3b02      	subs	r3, #2
1000aa4e:	408b      	lsls	r3, r1
1000aa50:	6879      	ldr	r1, [r7, #4]
1000aa52:	430b      	orrs	r3, r1
1000aa54:	607b      	str	r3, [r7, #4]
1000aa56:	e76b      	b.n	1000a930 <_malloc_r+0x350>
1000aa58:	9b00      	ldr	r3, [sp, #0]
1000aa5a:	0030      	movs	r0, r6
1000aa5c:	4443      	add	r3, r8
1000aa5e:	425b      	negs	r3, r3
1000aa60:	051b      	lsls	r3, r3, #20
1000aa62:	0d1b      	lsrs	r3, r3, #20
1000aa64:	0019      	movs	r1, r3
1000aa66:	469b      	mov	fp, r3
1000aa68:	f000 f8f2 	bl	1000ac50 <_sbrk_r>
1000aa6c:	1c43      	adds	r3, r0, #1
1000aa6e:	d000      	beq.n	1000aa72 <_malloc_r+0x492>
1000aa70:	e6f8      	b.n	1000a864 <_malloc_r+0x284>
1000aa72:	2300      	movs	r3, #0
1000aa74:	469b      	mov	fp, r3
1000aa76:	e6fa      	b.n	1000a86e <_malloc_r+0x28e>
1000aa78:	2a54      	cmp	r2, #84	; 0x54
1000aa7a:	d82a      	bhi.n	1000aad2 <_malloc_r+0x4f2>
1000aa7c:	0b1a      	lsrs	r2, r3, #12
1000aa7e:	0011      	movs	r1, r2
1000aa80:	326f      	adds	r2, #111	; 0x6f
1000aa82:	316e      	adds	r1, #110	; 0x6e
1000aa84:	00d2      	lsls	r2, r2, #3
1000aa86:	e73c      	b.n	1000a902 <_malloc_r+0x322>
1000aa88:	23aa      	movs	r3, #170	; 0xaa
1000aa8a:	005b      	lsls	r3, r3, #1
1000aa8c:	4298      	cmp	r0, r3
1000aa8e:	d82a      	bhi.n	1000aae6 <_malloc_r+0x506>
1000aa90:	3bdd      	subs	r3, #221	; 0xdd
1000aa92:	4698      	mov	r8, r3
1000aa94:	0be8      	lsrs	r0, r5, #15
1000aa96:	4480      	add	r8, r0
1000aa98:	3078      	adds	r0, #120	; 0x78
1000aa9a:	00c1      	lsls	r1, r0, #3
1000aa9c:	e5e9      	b.n	1000a672 <_malloc_r+0x92>
1000aa9e:	4653      	mov	r3, sl
1000aaa0:	685b      	ldr	r3, [r3, #4]
1000aaa2:	9a00      	ldr	r2, [sp, #0]
1000aaa4:	469c      	mov	ip, r3
1000aaa6:	4653      	mov	r3, sl
1000aaa8:	4462      	add	r2, ip
1000aaaa:	605a      	str	r2, [r3, #4]
1000aaac:	e6b3      	b.n	1000a816 <_malloc_r+0x236>
1000aaae:	0509      	lsls	r1, r1, #20
1000aab0:	d000      	beq.n	1000aab4 <_malloc_r+0x4d4>
1000aab2:	e6b0      	b.n	1000a816 <_malloc_r+0x236>
1000aab4:	0002      	movs	r2, r0
1000aab6:	68bc      	ldr	r4, [r7, #8]
1000aab8:	444a      	add	r2, r9
1000aaba:	3101      	adds	r1, #1
1000aabc:	430a      	orrs	r2, r1
1000aabe:	6062      	str	r2, [r4, #4]
1000aac0:	e6f9      	b.n	1000a8b6 <_malloc_r+0x2d6>
1000aac2:	465b      	mov	r3, fp
1000aac4:	4642      	mov	r2, r8
1000aac6:	601a      	str	r2, [r3, #0]
1000aac8:	e6b0      	b.n	1000a82c <_malloc_r+0x24c>
1000aaca:	4644      	mov	r4, r8
1000aacc:	e6f3      	b.n	1000a8b6 <_malloc_r+0x2d6>
1000aace:	6041      	str	r1, [r0, #4]
1000aad0:	e78e      	b.n	1000a9f0 <_malloc_r+0x410>
1000aad2:	21aa      	movs	r1, #170	; 0xaa
1000aad4:	0049      	lsls	r1, r1, #1
1000aad6:	428a      	cmp	r2, r1
1000aad8:	d824      	bhi.n	1000ab24 <_malloc_r+0x544>
1000aada:	0bda      	lsrs	r2, r3, #15
1000aadc:	0011      	movs	r1, r2
1000aade:	3278      	adds	r2, #120	; 0x78
1000aae0:	3177      	adds	r1, #119	; 0x77
1000aae2:	00d2      	lsls	r2, r2, #3
1000aae4:	e70d      	b.n	1000a902 <_malloc_r+0x322>
1000aae6:	4b1a      	ldr	r3, [pc, #104]	; (1000ab50 <_malloc_r+0x570>)
1000aae8:	4298      	cmp	r0, r3
1000aaea:	d824      	bhi.n	1000ab36 <_malloc_r+0x556>
1000aaec:	237c      	movs	r3, #124	; 0x7c
1000aaee:	4698      	mov	r8, r3
1000aaf0:	0ca8      	lsrs	r0, r5, #18
1000aaf2:	4480      	add	r8, r0
1000aaf4:	307d      	adds	r0, #125	; 0x7d
1000aaf6:	00c1      	lsls	r1, r0, #3
1000aaf8:	e5bb      	b.n	1000a672 <_malloc_r+0x92>
1000aafa:	9a00      	ldr	r2, [sp, #0]
1000aafc:	9b01      	ldr	r3, [sp, #4]
1000aafe:	4694      	mov	ip, r2
1000ab00:	4642      	mov	r2, r8
1000ab02:	3b08      	subs	r3, #8
1000ab04:	4463      	add	r3, ip
1000ab06:	1a9b      	subs	r3, r3, r2
1000ab08:	9300      	str	r3, [sp, #0]
1000ab0a:	2300      	movs	r3, #0
1000ab0c:	469b      	mov	fp, r3
1000ab0e:	e6ae      	b.n	1000a86e <_malloc_r+0x28e>
1000ab10:	0021      	movs	r1, r4
1000ab12:	0030      	movs	r0, r6
1000ab14:	3108      	adds	r1, #8
1000ab16:	f000 fc95 	bl	1000b444 <_free_r>
1000ab1a:	4653      	mov	r3, sl
1000ab1c:	68bc      	ldr	r4, [r7, #8]
1000ab1e:	685b      	ldr	r3, [r3, #4]
1000ab20:	6862      	ldr	r2, [r4, #4]
1000ab22:	e6c8      	b.n	1000a8b6 <_malloc_r+0x2d6>
1000ab24:	490a      	ldr	r1, [pc, #40]	; (1000ab50 <_malloc_r+0x570>)
1000ab26:	428a      	cmp	r2, r1
1000ab28:	d80b      	bhi.n	1000ab42 <_malloc_r+0x562>
1000ab2a:	0c9a      	lsrs	r2, r3, #18
1000ab2c:	0011      	movs	r1, r2
1000ab2e:	327d      	adds	r2, #125	; 0x7d
1000ab30:	317c      	adds	r1, #124	; 0x7c
1000ab32:	00d2      	lsls	r2, r2, #3
1000ab34:	e6e5      	b.n	1000a902 <_malloc_r+0x322>
1000ab36:	21fe      	movs	r1, #254	; 0xfe
1000ab38:	237e      	movs	r3, #126	; 0x7e
1000ab3a:	207f      	movs	r0, #127	; 0x7f
1000ab3c:	4698      	mov	r8, r3
1000ab3e:	0089      	lsls	r1, r1, #2
1000ab40:	e597      	b.n	1000a672 <_malloc_r+0x92>
1000ab42:	22fe      	movs	r2, #254	; 0xfe
1000ab44:	217e      	movs	r1, #126	; 0x7e
1000ab46:	0092      	lsls	r2, r2, #2
1000ab48:	e6db      	b.n	1000a902 <_malloc_r+0x322>
1000ab4a:	687b      	ldr	r3, [r7, #4]
1000ab4c:	e76b      	b.n	1000aa26 <_malloc_r+0x446>
1000ab4e:	46c0      	nop			; (mov r8, r8)
1000ab50:	00000554 	.word	0x00000554

1000ab54 <memcmp>:
1000ab54:	b530      	push	{r4, r5, lr}
1000ab56:	2a03      	cmp	r2, #3
1000ab58:	d90c      	bls.n	1000ab74 <memcmp+0x20>
1000ab5a:	0003      	movs	r3, r0
1000ab5c:	430b      	orrs	r3, r1
1000ab5e:	079b      	lsls	r3, r3, #30
1000ab60:	d119      	bne.n	1000ab96 <memcmp+0x42>
1000ab62:	6803      	ldr	r3, [r0, #0]
1000ab64:	680c      	ldr	r4, [r1, #0]
1000ab66:	42a3      	cmp	r3, r4
1000ab68:	d115      	bne.n	1000ab96 <memcmp+0x42>
1000ab6a:	3a04      	subs	r2, #4
1000ab6c:	3004      	adds	r0, #4
1000ab6e:	3104      	adds	r1, #4
1000ab70:	2a03      	cmp	r2, #3
1000ab72:	d8f6      	bhi.n	1000ab62 <memcmp+0xe>
1000ab74:	1e55      	subs	r5, r2, #1
1000ab76:	2a00      	cmp	r2, #0
1000ab78:	d00b      	beq.n	1000ab92 <memcmp+0x3e>
1000ab7a:	2300      	movs	r3, #0
1000ab7c:	e003      	b.n	1000ab86 <memcmp+0x32>
1000ab7e:	1c5a      	adds	r2, r3, #1
1000ab80:	429d      	cmp	r5, r3
1000ab82:	d006      	beq.n	1000ab92 <memcmp+0x3e>
1000ab84:	0013      	movs	r3, r2
1000ab86:	5cc2      	ldrb	r2, [r0, r3]
1000ab88:	5ccc      	ldrb	r4, [r1, r3]
1000ab8a:	42a2      	cmp	r2, r4
1000ab8c:	d0f7      	beq.n	1000ab7e <memcmp+0x2a>
1000ab8e:	1b10      	subs	r0, r2, r4
1000ab90:	e000      	b.n	1000ab94 <memcmp+0x40>
1000ab92:	2000      	movs	r0, #0
1000ab94:	bd30      	pop	{r4, r5, pc}
1000ab96:	1e55      	subs	r5, r2, #1
1000ab98:	e7ef      	b.n	1000ab7a <memcmp+0x26>
1000ab9a:	46c0      	nop			; (mov r8, r8)

1000ab9c <memmove>:
1000ab9c:	b5f0      	push	{r4, r5, r6, r7, lr}
1000ab9e:	4288      	cmp	r0, r1
1000aba0:	d90a      	bls.n	1000abb8 <memmove+0x1c>
1000aba2:	188b      	adds	r3, r1, r2
1000aba4:	4298      	cmp	r0, r3
1000aba6:	d207      	bcs.n	1000abb8 <memmove+0x1c>
1000aba8:	1e53      	subs	r3, r2, #1
1000abaa:	2a00      	cmp	r2, #0
1000abac:	d003      	beq.n	1000abb6 <memmove+0x1a>
1000abae:	5cca      	ldrb	r2, [r1, r3]
1000abb0:	54c2      	strb	r2, [r0, r3]
1000abb2:	3b01      	subs	r3, #1
1000abb4:	d2fb      	bcs.n	1000abae <memmove+0x12>
1000abb6:	bdf0      	pop	{r4, r5, r6, r7, pc}
1000abb8:	2a0f      	cmp	r2, #15
1000abba:	d80b      	bhi.n	1000abd4 <memmove+0x38>
1000abbc:	0005      	movs	r5, r0
1000abbe:	1e56      	subs	r6, r2, #1
1000abc0:	2a00      	cmp	r2, #0
1000abc2:	d0f8      	beq.n	1000abb6 <memmove+0x1a>
1000abc4:	2300      	movs	r3, #0
1000abc6:	5ccc      	ldrb	r4, [r1, r3]
1000abc8:	001a      	movs	r2, r3
1000abca:	54ec      	strb	r4, [r5, r3]
1000abcc:	3301      	adds	r3, #1
1000abce:	4296      	cmp	r6, r2
1000abd0:	d1f9      	bne.n	1000abc6 <memmove+0x2a>
1000abd2:	e7f0      	b.n	1000abb6 <memmove+0x1a>
1000abd4:	2703      	movs	r7, #3
1000abd6:	000d      	movs	r5, r1
1000abd8:	003e      	movs	r6, r7
1000abda:	4305      	orrs	r5, r0
1000abdc:	000c      	movs	r4, r1
1000abde:	0003      	movs	r3, r0
1000abe0:	402e      	ands	r6, r5
1000abe2:	422f      	tst	r7, r5
1000abe4:	d12b      	bne.n	1000ac3e <memmove+0xa2>
1000abe6:	0015      	movs	r5, r2
1000abe8:	3d10      	subs	r5, #16
1000abea:	092d      	lsrs	r5, r5, #4
1000abec:	46ac      	mov	ip, r5
1000abee:	012f      	lsls	r7, r5, #4
1000abf0:	183f      	adds	r7, r7, r0
1000abf2:	6825      	ldr	r5, [r4, #0]
1000abf4:	601d      	str	r5, [r3, #0]
1000abf6:	6865      	ldr	r5, [r4, #4]
1000abf8:	605d      	str	r5, [r3, #4]
1000abfa:	68a5      	ldr	r5, [r4, #8]
1000abfc:	609d      	str	r5, [r3, #8]
1000abfe:	68e5      	ldr	r5, [r4, #12]
1000ac00:	3410      	adds	r4, #16
1000ac02:	60dd      	str	r5, [r3, #12]
1000ac04:	001d      	movs	r5, r3
1000ac06:	3310      	adds	r3, #16
1000ac08:	42bd      	cmp	r5, r7
1000ac0a:	d1f2      	bne.n	1000abf2 <memmove+0x56>
1000ac0c:	4665      	mov	r5, ip
1000ac0e:	230f      	movs	r3, #15
1000ac10:	240c      	movs	r4, #12
1000ac12:	3501      	adds	r5, #1
1000ac14:	012d      	lsls	r5, r5, #4
1000ac16:	1949      	adds	r1, r1, r5
1000ac18:	4013      	ands	r3, r2
1000ac1a:	1945      	adds	r5, r0, r5
1000ac1c:	4214      	tst	r4, r2
1000ac1e:	d011      	beq.n	1000ac44 <memmove+0xa8>
1000ac20:	598c      	ldr	r4, [r1, r6]
1000ac22:	51ac      	str	r4, [r5, r6]
1000ac24:	3604      	adds	r6, #4
1000ac26:	1b9c      	subs	r4, r3, r6
1000ac28:	2c03      	cmp	r4, #3
1000ac2a:	d8f9      	bhi.n	1000ac20 <memmove+0x84>
1000ac2c:	3b04      	subs	r3, #4
1000ac2e:	089b      	lsrs	r3, r3, #2
1000ac30:	3301      	adds	r3, #1
1000ac32:	009b      	lsls	r3, r3, #2
1000ac34:	18ed      	adds	r5, r5, r3
1000ac36:	18c9      	adds	r1, r1, r3
1000ac38:	2303      	movs	r3, #3
1000ac3a:	401a      	ands	r2, r3
1000ac3c:	e7bf      	b.n	1000abbe <memmove+0x22>
1000ac3e:	0005      	movs	r5, r0
1000ac40:	1e56      	subs	r6, r2, #1
1000ac42:	e7bf      	b.n	1000abc4 <memmove+0x28>
1000ac44:	001a      	movs	r2, r3
1000ac46:	e7ba      	b.n	1000abbe <memmove+0x22>

1000ac48 <__malloc_lock>:
1000ac48:	4770      	bx	lr
1000ac4a:	46c0      	nop			; (mov r8, r8)

1000ac4c <__malloc_unlock>:
1000ac4c:	4770      	bx	lr
1000ac4e:	46c0      	nop			; (mov r8, r8)

1000ac50 <_sbrk_r>:
1000ac50:	2300      	movs	r3, #0
1000ac52:	b570      	push	{r4, r5, r6, lr}
1000ac54:	4d06      	ldr	r5, [pc, #24]	; (1000ac70 <_sbrk_r+0x20>)
1000ac56:	0004      	movs	r4, r0
1000ac58:	0008      	movs	r0, r1
1000ac5a:	602b      	str	r3, [r5, #0]
1000ac5c:	f7fc fb32 	bl	100072c4 <_sbrk>
1000ac60:	1c43      	adds	r3, r0, #1
1000ac62:	d000      	beq.n	1000ac66 <_sbrk_r+0x16>
1000ac64:	bd70      	pop	{r4, r5, r6, pc}
1000ac66:	682b      	ldr	r3, [r5, #0]
1000ac68:	2b00      	cmp	r3, #0
1000ac6a:	d0fb      	beq.n	1000ac64 <_sbrk_r+0x14>
1000ac6c:	6023      	str	r3, [r4, #0]
1000ac6e:	e7f9      	b.n	1000ac64 <_sbrk_r+0x14>
1000ac70:	20001440 	.word	0x20001440

1000ac74 <setbuf>:
1000ac74:	424a      	negs	r2, r1
1000ac76:	414a      	adcs	r2, r1
1000ac78:	2380      	movs	r3, #128	; 0x80
1000ac7a:	b510      	push	{r4, lr}
1000ac7c:	0052      	lsls	r2, r2, #1
1000ac7e:	00db      	lsls	r3, r3, #3
1000ac80:	f000 f802 	bl	1000ac88 <setvbuf>
1000ac84:	bd10      	pop	{r4, pc}
1000ac86:	46c0      	nop			; (mov r8, r8)

1000ac88 <setvbuf>:
1000ac88:	b5f0      	push	{r4, r5, r6, r7, lr}
1000ac8a:	4647      	mov	r7, r8
1000ac8c:	46ce      	mov	lr, r9
1000ac8e:	b580      	push	{r7, lr}
1000ac90:	001d      	movs	r5, r3
1000ac92:	4b58      	ldr	r3, [pc, #352]	; (1000adf4 <setvbuf+0x16c>)
1000ac94:	0004      	movs	r4, r0
1000ac96:	681e      	ldr	r6, [r3, #0]
1000ac98:	4688      	mov	r8, r1
1000ac9a:	0017      	movs	r7, r2
1000ac9c:	b083      	sub	sp, #12
1000ac9e:	2e00      	cmp	r6, #0
1000aca0:	d002      	beq.n	1000aca8 <setvbuf+0x20>
1000aca2:	6bb3      	ldr	r3, [r6, #56]	; 0x38
1000aca4:	2b00      	cmp	r3, #0
1000aca6:	d06b      	beq.n	1000ad80 <setvbuf+0xf8>
1000aca8:	2f02      	cmp	r7, #2
1000acaa:	d005      	beq.n	1000acb8 <setvbuf+0x30>
1000acac:	2f01      	cmp	r7, #1
1000acae:	d900      	bls.n	1000acb2 <setvbuf+0x2a>
1000acb0:	e08c      	b.n	1000adcc <setvbuf+0x144>
1000acb2:	2d00      	cmp	r5, #0
1000acb4:	da00      	bge.n	1000acb8 <setvbuf+0x30>
1000acb6:	e089      	b.n	1000adcc <setvbuf+0x144>
1000acb8:	0021      	movs	r1, r4
1000acba:	0030      	movs	r0, r6
1000acbc:	f000 fa10 	bl	1000b0e0 <_fflush_r>
1000acc0:	6b21      	ldr	r1, [r4, #48]	; 0x30
1000acc2:	2900      	cmp	r1, #0
1000acc4:	d008      	beq.n	1000acd8 <setvbuf+0x50>
1000acc6:	0023      	movs	r3, r4
1000acc8:	3340      	adds	r3, #64	; 0x40
1000acca:	4299      	cmp	r1, r3
1000accc:	d002      	beq.n	1000acd4 <setvbuf+0x4c>
1000acce:	0030      	movs	r0, r6
1000acd0:	f000 fbb8 	bl	1000b444 <_free_r>
1000acd4:	2300      	movs	r3, #0
1000acd6:	6323      	str	r3, [r4, #48]	; 0x30
1000acd8:	2300      	movs	r3, #0
1000acda:	61a3      	str	r3, [r4, #24]
1000acdc:	6063      	str	r3, [r4, #4]
1000acde:	220c      	movs	r2, #12
1000ace0:	5ea3      	ldrsh	r3, [r4, r2]
1000ace2:	061a      	lsls	r2, r3, #24
1000ace4:	d457      	bmi.n	1000ad96 <setvbuf+0x10e>
1000ace6:	4a44      	ldr	r2, [pc, #272]	; (1000adf8 <setvbuf+0x170>)
1000ace8:	4013      	ands	r3, r2
1000acea:	81a3      	strh	r3, [r4, #12]
1000acec:	2f02      	cmp	r7, #2
1000acee:	d05d      	beq.n	1000adac <setvbuf+0x124>
1000acf0:	ab01      	add	r3, sp, #4
1000acf2:	466a      	mov	r2, sp
1000acf4:	0021      	movs	r1, r4
1000acf6:	0030      	movs	r0, r6
1000acf8:	f000 fd3c 	bl	1000b774 <__swhatbuf_r>
1000acfc:	89a3      	ldrh	r3, [r4, #12]
1000acfe:	4303      	orrs	r3, r0
1000ad00:	81a3      	strh	r3, [r4, #12]
1000ad02:	2d00      	cmp	r5, #0
1000ad04:	d025      	beq.n	1000ad52 <setvbuf+0xca>
1000ad06:	4643      	mov	r3, r8
1000ad08:	2b00      	cmp	r3, #0
1000ad0a:	d023      	beq.n	1000ad54 <setvbuf+0xcc>
1000ad0c:	6bb3      	ldr	r3, [r6, #56]	; 0x38
1000ad0e:	2b00      	cmp	r3, #0
1000ad10:	d02d      	beq.n	1000ad6e <setvbuf+0xe6>
1000ad12:	9b00      	ldr	r3, [sp, #0]
1000ad14:	42ab      	cmp	r3, r5
1000ad16:	d030      	beq.n	1000ad7a <setvbuf+0xf2>
1000ad18:	2380      	movs	r3, #128	; 0x80
1000ad1a:	89a2      	ldrh	r2, [r4, #12]
1000ad1c:	011b      	lsls	r3, r3, #4
1000ad1e:	4313      	orrs	r3, r2
1000ad20:	b21b      	sxth	r3, r3
1000ad22:	81a3      	strh	r3, [r4, #12]
1000ad24:	2f01      	cmp	r7, #1
1000ad26:	d102      	bne.n	1000ad2e <setvbuf+0xa6>
1000ad28:	2201      	movs	r2, #1
1000ad2a:	4313      	orrs	r3, r2
1000ad2c:	81a3      	strh	r3, [r4, #12]
1000ad2e:	4642      	mov	r2, r8
1000ad30:	0019      	movs	r1, r3
1000ad32:	6022      	str	r2, [r4, #0]
1000ad34:	6122      	str	r2, [r4, #16]
1000ad36:	2208      	movs	r2, #8
1000ad38:	6165      	str	r5, [r4, #20]
1000ad3a:	b298      	uxth	r0, r3
1000ad3c:	4011      	ands	r1, r2
1000ad3e:	4213      	tst	r3, r2
1000ad40:	d022      	beq.n	1000ad88 <setvbuf+0x100>
1000ad42:	07c3      	lsls	r3, r0, #31
1000ad44:	d53f      	bpl.n	1000adc6 <setvbuf+0x13e>
1000ad46:	2300      	movs	r3, #0
1000ad48:	426d      	negs	r5, r5
1000ad4a:	2000      	movs	r0, #0
1000ad4c:	60a3      	str	r3, [r4, #8]
1000ad4e:	61a5      	str	r5, [r4, #24]
1000ad50:	e01c      	b.n	1000ad8c <setvbuf+0x104>
1000ad52:	9d00      	ldr	r5, [sp, #0]
1000ad54:	0028      	movs	r0, r5
1000ad56:	f7fb f9ed 	bl	10006134 <__wrap_malloc>
1000ad5a:	4680      	mov	r8, r0
1000ad5c:	2800      	cmp	r0, #0
1000ad5e:	d038      	beq.n	1000add2 <setvbuf+0x14a>
1000ad60:	2280      	movs	r2, #128	; 0x80
1000ad62:	89a3      	ldrh	r3, [r4, #12]
1000ad64:	4313      	orrs	r3, r2
1000ad66:	81a3      	strh	r3, [r4, #12]
1000ad68:	6bb3      	ldr	r3, [r6, #56]	; 0x38
1000ad6a:	2b00      	cmp	r3, #0
1000ad6c:	d1d1      	bne.n	1000ad12 <setvbuf+0x8a>
1000ad6e:	0030      	movs	r0, r6
1000ad70:	f000 faf2 	bl	1000b358 <__sinit>
1000ad74:	9b00      	ldr	r3, [sp, #0]
1000ad76:	42ab      	cmp	r3, r5
1000ad78:	d1ce      	bne.n	1000ad18 <setvbuf+0x90>
1000ad7a:	220c      	movs	r2, #12
1000ad7c:	5ea3      	ldrsh	r3, [r4, r2]
1000ad7e:	e7d1      	b.n	1000ad24 <setvbuf+0x9c>
1000ad80:	0030      	movs	r0, r6
1000ad82:	f000 fae9 	bl	1000b358 <__sinit>
1000ad86:	e78f      	b.n	1000aca8 <setvbuf+0x20>
1000ad88:	2000      	movs	r0, #0
1000ad8a:	60a1      	str	r1, [r4, #8]
1000ad8c:	b003      	add	sp, #12
1000ad8e:	bcc0      	pop	{r6, r7}
1000ad90:	46b9      	mov	r9, r7
1000ad92:	46b0      	mov	r8, r6
1000ad94:	bdf0      	pop	{r4, r5, r6, r7, pc}
1000ad96:	0030      	movs	r0, r6
1000ad98:	6921      	ldr	r1, [r4, #16]
1000ad9a:	f000 fb53 	bl	1000b444 <_free_r>
1000ad9e:	220c      	movs	r2, #12
1000ada0:	5ea3      	ldrsh	r3, [r4, r2]
1000ada2:	4a15      	ldr	r2, [pc, #84]	; (1000adf8 <setvbuf+0x170>)
1000ada4:	4013      	ands	r3, r2
1000ada6:	81a3      	strh	r3, [r4, #12]
1000ada8:	2f02      	cmp	r7, #2
1000adaa:	d1a1      	bne.n	1000acf0 <setvbuf+0x68>
1000adac:	2000      	movs	r0, #0
1000adae:	2202      	movs	r2, #2
1000adb0:	4313      	orrs	r3, r2
1000adb2:	81a3      	strh	r3, [r4, #12]
1000adb4:	2300      	movs	r3, #0
1000adb6:	60a3      	str	r3, [r4, #8]
1000adb8:	0023      	movs	r3, r4
1000adba:	3343      	adds	r3, #67	; 0x43
1000adbc:	6023      	str	r3, [r4, #0]
1000adbe:	6123      	str	r3, [r4, #16]
1000adc0:	2301      	movs	r3, #1
1000adc2:	6163      	str	r3, [r4, #20]
1000adc4:	e7e2      	b.n	1000ad8c <setvbuf+0x104>
1000adc6:	2000      	movs	r0, #0
1000adc8:	60a5      	str	r5, [r4, #8]
1000adca:	e7df      	b.n	1000ad8c <setvbuf+0x104>
1000adcc:	2001      	movs	r0, #1
1000adce:	4240      	negs	r0, r0
1000add0:	e7dc      	b.n	1000ad8c <setvbuf+0x104>
1000add2:	9b00      	ldr	r3, [sp, #0]
1000add4:	4699      	mov	r9, r3
1000add6:	42ab      	cmp	r3, r5
1000add8:	d005      	beq.n	1000ade6 <setvbuf+0x15e>
1000adda:	0018      	movs	r0, r3
1000addc:	f7fb f9aa 	bl	10006134 <__wrap_malloc>
1000ade0:	4680      	mov	r8, r0
1000ade2:	2800      	cmp	r0, #0
1000ade4:	d104      	bne.n	1000adf0 <setvbuf+0x168>
1000ade6:	2001      	movs	r0, #1
1000ade8:	220c      	movs	r2, #12
1000adea:	5ea3      	ldrsh	r3, [r4, r2]
1000adec:	4240      	negs	r0, r0
1000adee:	e7de      	b.n	1000adae <setvbuf+0x126>
1000adf0:	464d      	mov	r5, r9
1000adf2:	e7b5      	b.n	1000ad60 <setvbuf+0xd8>
1000adf4:	20000a28 	.word	0x20000a28
1000adf8:	fffff35c 	.word	0xfffff35c

1000adfc <strchr>:
1000adfc:	b2ca      	uxtb	r2, r1
1000adfe:	b5f0      	push	{r4, r5, r6, r7, lr}
1000ae00:	2a00      	cmp	r2, #0
1000ae02:	d035      	beq.n	1000ae70 <strchr+0x74>
1000ae04:	2403      	movs	r4, #3
1000ae06:	0783      	lsls	r3, r0, #30
1000ae08:	d12d      	bne.n	1000ae66 <strchr+0x6a>
1000ae0a:	25ff      	movs	r5, #255	; 0xff
1000ae0c:	4029      	ands	r1, r5
1000ae0e:	020d      	lsls	r5, r1, #8
1000ae10:	4329      	orrs	r1, r5
1000ae12:	040d      	lsls	r5, r1, #16
1000ae14:	430d      	orrs	r5, r1
1000ae16:	0029      	movs	r1, r5
1000ae18:	6804      	ldr	r4, [r0, #0]
1000ae1a:	4e26      	ldr	r6, [pc, #152]	; (1000aeb4 <strchr+0xb8>)
1000ae1c:	4061      	eors	r1, r4
1000ae1e:	198b      	adds	r3, r1, r6
1000ae20:	438b      	bics	r3, r1
1000ae22:	19a1      	adds	r1, r4, r6
1000ae24:	43a1      	bics	r1, r4
1000ae26:	4e24      	ldr	r6, [pc, #144]	; (1000aeb8 <strchr+0xbc>)
1000ae28:	430b      	orrs	r3, r1
1000ae2a:	4233      	tst	r3, r6
1000ae2c:	d111      	bne.n	1000ae52 <strchr+0x56>
1000ae2e:	6841      	ldr	r1, [r0, #4]
1000ae30:	4f20      	ldr	r7, [pc, #128]	; (1000aeb4 <strchr+0xb8>)
1000ae32:	000c      	movs	r4, r1
1000ae34:	19cb      	adds	r3, r1, r7
1000ae36:	406c      	eors	r4, r5
1000ae38:	438b      	bics	r3, r1
1000ae3a:	19e1      	adds	r1, r4, r7
1000ae3c:	43a1      	bics	r1, r4
1000ae3e:	430b      	orrs	r3, r1
1000ae40:	3004      	adds	r0, #4
1000ae42:	4233      	tst	r3, r6
1000ae44:	d0f3      	beq.n	1000ae2e <strchr+0x32>
1000ae46:	7803      	ldrb	r3, [r0, #0]
1000ae48:	2b00      	cmp	r3, #0
1000ae4a:	d005      	beq.n	1000ae58 <strchr+0x5c>
1000ae4c:	429a      	cmp	r2, r3
1000ae4e:	d004      	beq.n	1000ae5a <strchr+0x5e>
1000ae50:	3001      	adds	r0, #1
1000ae52:	7803      	ldrb	r3, [r0, #0]
1000ae54:	2b00      	cmp	r3, #0
1000ae56:	d1f9      	bne.n	1000ae4c <strchr+0x50>
1000ae58:	2000      	movs	r0, #0
1000ae5a:	bdf0      	pop	{r4, r5, r6, r7, pc}
1000ae5c:	4293      	cmp	r3, r2
1000ae5e:	d0fc      	beq.n	1000ae5a <strchr+0x5e>
1000ae60:	3001      	adds	r0, #1
1000ae62:	4220      	tst	r0, r4
1000ae64:	d0d1      	beq.n	1000ae0a <strchr+0xe>
1000ae66:	7803      	ldrb	r3, [r0, #0]
1000ae68:	2b00      	cmp	r3, #0
1000ae6a:	d1f7      	bne.n	1000ae5c <strchr+0x60>
1000ae6c:	2000      	movs	r0, #0
1000ae6e:	e7f4      	b.n	1000ae5a <strchr+0x5e>
1000ae70:	0783      	lsls	r3, r0, #30
1000ae72:	d008      	beq.n	1000ae86 <strchr+0x8a>
1000ae74:	2203      	movs	r2, #3
1000ae76:	e002      	b.n	1000ae7e <strchr+0x82>
1000ae78:	3001      	adds	r0, #1
1000ae7a:	4210      	tst	r0, r2
1000ae7c:	d003      	beq.n	1000ae86 <strchr+0x8a>
1000ae7e:	7803      	ldrb	r3, [r0, #0]
1000ae80:	2b00      	cmp	r3, #0
1000ae82:	d1f9      	bne.n	1000ae78 <strchr+0x7c>
1000ae84:	e7e9      	b.n	1000ae5a <strchr+0x5e>
1000ae86:	6802      	ldr	r2, [r0, #0]
1000ae88:	4b0a      	ldr	r3, [pc, #40]	; (1000aeb4 <strchr+0xb8>)
1000ae8a:	490b      	ldr	r1, [pc, #44]	; (1000aeb8 <strchr+0xbc>)
1000ae8c:	18d3      	adds	r3, r2, r3
1000ae8e:	4393      	bics	r3, r2
1000ae90:	420b      	tst	r3, r1
1000ae92:	d106      	bne.n	1000aea2 <strchr+0xa6>
1000ae94:	6842      	ldr	r2, [r0, #4]
1000ae96:	4b07      	ldr	r3, [pc, #28]	; (1000aeb4 <strchr+0xb8>)
1000ae98:	3004      	adds	r0, #4
1000ae9a:	18d3      	adds	r3, r2, r3
1000ae9c:	4393      	bics	r3, r2
1000ae9e:	420b      	tst	r3, r1
1000aea0:	d0f8      	beq.n	1000ae94 <strchr+0x98>
1000aea2:	7803      	ldrb	r3, [r0, #0]
1000aea4:	2b00      	cmp	r3, #0
1000aea6:	d0d8      	beq.n	1000ae5a <strchr+0x5e>
1000aea8:	7843      	ldrb	r3, [r0, #1]
1000aeaa:	3001      	adds	r0, #1
1000aeac:	2b00      	cmp	r3, #0
1000aeae:	d1fb      	bne.n	1000aea8 <strchr+0xac>
1000aeb0:	e7d3      	b.n	1000ae5a <strchr+0x5e>
1000aeb2:	46c0      	nop			; (mov r8, r8)
1000aeb4:	fefefeff 	.word	0xfefefeff
1000aeb8:	80808080 	.word	0x80808080

1000aebc <strcmp>:
1000aebc:	4602      	mov	r2, r0
1000aebe:	b570      	push	{r4, r5, r6, lr}
1000aec0:	430a      	orrs	r2, r1
1000aec2:	0792      	lsls	r2, r2, #30
1000aec4:	d12a      	bne.n	1000af1c <strcmp+0x60>
1000aec6:	4d1e      	ldr	r5, [pc, #120]	; (1000af40 <strcmp+0x84>)
1000aec8:	01ee      	lsls	r6, r5, #7
1000aeca:	c804      	ldmia	r0!, {r2}
1000aecc:	c908      	ldmia	r1!, {r3}
1000aece:	1b54      	subs	r4, r2, r5
1000aed0:	4394      	bics	r4, r2
1000aed2:	4034      	ands	r4, r6
1000aed4:	d017      	beq.n	1000af06 <strcmp+0x4a>
1000aed6:	b2d0      	uxtb	r0, r2
1000aed8:	b2d9      	uxtb	r1, r3
1000aeda:	1a40      	subs	r0, r0, r1
1000aedc:	0621      	lsls	r1, r4, #24
1000aede:	4301      	orrs	r1, r0
1000aee0:	d110      	bne.n	1000af04 <strcmp+0x48>
1000aee2:	b290      	uxth	r0, r2
1000aee4:	b299      	uxth	r1, r3
1000aee6:	1a40      	subs	r0, r0, r1
1000aee8:	0421      	lsls	r1, r4, #16
1000aeea:	4301      	orrs	r1, r0
1000aeec:	d10a      	bne.n	1000af04 <strcmp+0x48>
1000aeee:	0210      	lsls	r0, r2, #8
1000aef0:	0219      	lsls	r1, r3, #8
1000aef2:	0a00      	lsrs	r0, r0, #8
1000aef4:	0a09      	lsrs	r1, r1, #8
1000aef6:	1a40      	subs	r0, r0, r1
1000aef8:	0221      	lsls	r1, r4, #8
1000aefa:	4301      	orrs	r1, r0
1000aefc:	d102      	bne.n	1000af04 <strcmp+0x48>
1000aefe:	0e10      	lsrs	r0, r2, #24
1000af00:	0e19      	lsrs	r1, r3, #24
1000af02:	1a40      	subs	r0, r0, r1
1000af04:	bd70      	pop	{r4, r5, r6, pc}
1000af06:	429a      	cmp	r2, r3
1000af08:	d0df      	beq.n	1000aeca <strcmp+0xe>
1000af0a:	ba10      	rev	r0, r2
1000af0c:	ba19      	rev	r1, r3
1000af0e:	4288      	cmp	r0, r1
1000af10:	d901      	bls.n	1000af16 <strcmp+0x5a>
1000af12:	2001      	movs	r0, #1
1000af14:	bd70      	pop	{r4, r5, r6, pc}
1000af16:	2000      	movs	r0, #0
1000af18:	43c0      	mvns	r0, r0
1000af1a:	bd70      	pop	{r4, r5, r6, pc}
1000af1c:	7802      	ldrb	r2, [r0, #0]
1000af1e:	780b      	ldrb	r3, [r1, #0]
1000af20:	3001      	adds	r0, #1
1000af22:	3101      	adds	r1, #1
1000af24:	2a00      	cmp	r2, #0
1000af26:	d009      	beq.n	1000af3c <strcmp+0x80>
1000af28:	429a      	cmp	r2, r3
1000af2a:	d107      	bne.n	1000af3c <strcmp+0x80>
1000af2c:	7802      	ldrb	r2, [r0, #0]
1000af2e:	780b      	ldrb	r3, [r1, #0]
1000af30:	3001      	adds	r0, #1
1000af32:	3101      	adds	r1, #1
1000af34:	2a00      	cmp	r2, #0
1000af36:	d001      	beq.n	1000af3c <strcmp+0x80>
1000af38:	429a      	cmp	r2, r3
1000af3a:	d0ef      	beq.n	1000af1c <strcmp+0x60>
1000af3c:	1ad0      	subs	r0, r2, r3
1000af3e:	bd70      	pop	{r4, r5, r6, pc}
1000af40:	01010101 	.word	0x01010101

1000af44 <strlen>:
1000af44:	b510      	push	{r4, lr}
1000af46:	0783      	lsls	r3, r0, #30
1000af48:	d00a      	beq.n	1000af60 <strlen+0x1c>
1000af4a:	0003      	movs	r3, r0
1000af4c:	2103      	movs	r1, #3
1000af4e:	e002      	b.n	1000af56 <strlen+0x12>
1000af50:	3301      	adds	r3, #1
1000af52:	420b      	tst	r3, r1
1000af54:	d005      	beq.n	1000af62 <strlen+0x1e>
1000af56:	781a      	ldrb	r2, [r3, #0]
1000af58:	2a00      	cmp	r2, #0
1000af5a:	d1f9      	bne.n	1000af50 <strlen+0xc>
1000af5c:	1a18      	subs	r0, r3, r0
1000af5e:	bd10      	pop	{r4, pc}
1000af60:	0003      	movs	r3, r0
1000af62:	6819      	ldr	r1, [r3, #0]
1000af64:	4a0c      	ldr	r2, [pc, #48]	; (1000af98 <strlen+0x54>)
1000af66:	4c0d      	ldr	r4, [pc, #52]	; (1000af9c <strlen+0x58>)
1000af68:	188a      	adds	r2, r1, r2
1000af6a:	438a      	bics	r2, r1
1000af6c:	4222      	tst	r2, r4
1000af6e:	d10f      	bne.n	1000af90 <strlen+0x4c>
1000af70:	6859      	ldr	r1, [r3, #4]
1000af72:	4a09      	ldr	r2, [pc, #36]	; (1000af98 <strlen+0x54>)
1000af74:	3304      	adds	r3, #4
1000af76:	188a      	adds	r2, r1, r2
1000af78:	438a      	bics	r2, r1
1000af7a:	4222      	tst	r2, r4
1000af7c:	d108      	bne.n	1000af90 <strlen+0x4c>
1000af7e:	6859      	ldr	r1, [r3, #4]
1000af80:	4a05      	ldr	r2, [pc, #20]	; (1000af98 <strlen+0x54>)
1000af82:	3304      	adds	r3, #4
1000af84:	188a      	adds	r2, r1, r2
1000af86:	438a      	bics	r2, r1
1000af88:	4222      	tst	r2, r4
1000af8a:	d0f1      	beq.n	1000af70 <strlen+0x2c>
1000af8c:	e000      	b.n	1000af90 <strlen+0x4c>
1000af8e:	3301      	adds	r3, #1
1000af90:	781a      	ldrb	r2, [r3, #0]
1000af92:	2a00      	cmp	r2, #0
1000af94:	d1fb      	bne.n	1000af8e <strlen+0x4a>
1000af96:	e7e1      	b.n	1000af5c <strlen+0x18>
1000af98:	fefefeff 	.word	0xfefefeff
1000af9c:	80808080 	.word	0x80808080

1000afa0 <__sflush_r>:
1000afa0:	b5f0      	push	{r4, r5, r6, r7, lr}
1000afa2:	46c6      	mov	lr, r8
1000afa4:	000c      	movs	r4, r1
1000afa6:	b500      	push	{lr}
1000afa8:	89a2      	ldrh	r2, [r4, #12]
1000afaa:	4680      	mov	r8, r0
1000afac:	230c      	movs	r3, #12
1000afae:	5ec9      	ldrsh	r1, [r1, r3]
1000afb0:	0713      	lsls	r3, r2, #28
1000afb2:	d44c      	bmi.n	1000b04e <__sflush_r+0xae>
1000afb4:	2380      	movs	r3, #128	; 0x80
1000afb6:	6862      	ldr	r2, [r4, #4]
1000afb8:	011b      	lsls	r3, r3, #4
1000afba:	430b      	orrs	r3, r1
1000afbc:	81a3      	strh	r3, [r4, #12]
1000afbe:	2a00      	cmp	r2, #0
1000afc0:	dd66      	ble.n	1000b090 <__sflush_r+0xf0>
1000afc2:	6aa6      	ldr	r6, [r4, #40]	; 0x28
1000afc4:	2e00      	cmp	r6, #0
1000afc6:	d03e      	beq.n	1000b046 <__sflush_r+0xa6>
1000afc8:	4642      	mov	r2, r8
1000afca:	4641      	mov	r1, r8
1000afcc:	6815      	ldr	r5, [r2, #0]
1000afce:	2200      	movs	r2, #0
1000afd0:	600a      	str	r2, [r1, #0]
1000afd2:	b29a      	uxth	r2, r3
1000afd4:	04db      	lsls	r3, r3, #19
1000afd6:	d460      	bmi.n	1000b09a <__sflush_r+0xfa>
1000afd8:	2301      	movs	r3, #1
1000afda:	2200      	movs	r2, #0
1000afdc:	4640      	mov	r0, r8
1000afde:	69e1      	ldr	r1, [r4, #28]
1000afe0:	47b0      	blx	r6
1000afe2:	1c43      	adds	r3, r0, #1
1000afe4:	d068      	beq.n	1000b0b8 <__sflush_r+0x118>
1000afe6:	89a2      	ldrh	r2, [r4, #12]
1000afe8:	6aa6      	ldr	r6, [r4, #40]	; 0x28
1000afea:	0753      	lsls	r3, r2, #29
1000afec:	d506      	bpl.n	1000affc <__sflush_r+0x5c>
1000afee:	6863      	ldr	r3, [r4, #4]
1000aff0:	1ac0      	subs	r0, r0, r3
1000aff2:	6b23      	ldr	r3, [r4, #48]	; 0x30
1000aff4:	2b00      	cmp	r3, #0
1000aff6:	d001      	beq.n	1000affc <__sflush_r+0x5c>
1000aff8:	6be3      	ldr	r3, [r4, #60]	; 0x3c
1000affa:	1ac0      	subs	r0, r0, r3
1000affc:	2300      	movs	r3, #0
1000affe:	0002      	movs	r2, r0
1000b000:	69e1      	ldr	r1, [r4, #28]
1000b002:	4640      	mov	r0, r8
1000b004:	47b0      	blx	r6
1000b006:	1c43      	adds	r3, r0, #1
1000b008:	d149      	bne.n	1000b09e <__sflush_r+0xfe>
1000b00a:	4643      	mov	r3, r8
1000b00c:	681b      	ldr	r3, [r3, #0]
1000b00e:	2b00      	cmp	r3, #0
1000b010:	d045      	beq.n	1000b09e <__sflush_r+0xfe>
1000b012:	2b1d      	cmp	r3, #29
1000b014:	d001      	beq.n	1000b01a <__sflush_r+0x7a>
1000b016:	2b16      	cmp	r3, #22
1000b018:	d157      	bne.n	1000b0ca <__sflush_r+0x12a>
1000b01a:	89a3      	ldrh	r3, [r4, #12]
1000b01c:	4a2f      	ldr	r2, [pc, #188]	; (1000b0dc <__sflush_r+0x13c>)
1000b01e:	4013      	ands	r3, r2
1000b020:	81a3      	strh	r3, [r4, #12]
1000b022:	2300      	movs	r3, #0
1000b024:	6063      	str	r3, [r4, #4]
1000b026:	6923      	ldr	r3, [r4, #16]
1000b028:	6023      	str	r3, [r4, #0]
1000b02a:	4643      	mov	r3, r8
1000b02c:	6b21      	ldr	r1, [r4, #48]	; 0x30
1000b02e:	601d      	str	r5, [r3, #0]
1000b030:	2900      	cmp	r1, #0
1000b032:	d008      	beq.n	1000b046 <__sflush_r+0xa6>
1000b034:	0023      	movs	r3, r4
1000b036:	3340      	adds	r3, #64	; 0x40
1000b038:	4299      	cmp	r1, r3
1000b03a:	d002      	beq.n	1000b042 <__sflush_r+0xa2>
1000b03c:	4640      	mov	r0, r8
1000b03e:	f000 fa01 	bl	1000b444 <_free_r>
1000b042:	2300      	movs	r3, #0
1000b044:	6323      	str	r3, [r4, #48]	; 0x30
1000b046:	2000      	movs	r0, #0
1000b048:	bc80      	pop	{r7}
1000b04a:	46b8      	mov	r8, r7
1000b04c:	bdf0      	pop	{r4, r5, r6, r7, pc}
1000b04e:	6926      	ldr	r6, [r4, #16]
1000b050:	2e00      	cmp	r6, #0
1000b052:	d0f8      	beq.n	1000b046 <__sflush_r+0xa6>
1000b054:	6823      	ldr	r3, [r4, #0]
1000b056:	6026      	str	r6, [r4, #0]
1000b058:	1b9d      	subs	r5, r3, r6
1000b05a:	2300      	movs	r3, #0
1000b05c:	0792      	lsls	r2, r2, #30
1000b05e:	d100      	bne.n	1000b062 <__sflush_r+0xc2>
1000b060:	6963      	ldr	r3, [r4, #20]
1000b062:	60a3      	str	r3, [r4, #8]
1000b064:	2d00      	cmp	r5, #0
1000b066:	dc04      	bgt.n	1000b072 <__sflush_r+0xd2>
1000b068:	e7ed      	b.n	1000b046 <__sflush_r+0xa6>
1000b06a:	1836      	adds	r6, r6, r0
1000b06c:	1a2d      	subs	r5, r5, r0
1000b06e:	2d00      	cmp	r5, #0
1000b070:	dde9      	ble.n	1000b046 <__sflush_r+0xa6>
1000b072:	002b      	movs	r3, r5
1000b074:	0032      	movs	r2, r6
1000b076:	4640      	mov	r0, r8
1000b078:	69e1      	ldr	r1, [r4, #28]
1000b07a:	6a67      	ldr	r7, [r4, #36]	; 0x24
1000b07c:	47b8      	blx	r7
1000b07e:	2800      	cmp	r0, #0
1000b080:	dcf3      	bgt.n	1000b06a <__sflush_r+0xca>
1000b082:	2240      	movs	r2, #64	; 0x40
1000b084:	2001      	movs	r0, #1
1000b086:	89a3      	ldrh	r3, [r4, #12]
1000b088:	4240      	negs	r0, r0
1000b08a:	4313      	orrs	r3, r2
1000b08c:	81a3      	strh	r3, [r4, #12]
1000b08e:	e7db      	b.n	1000b048 <__sflush_r+0xa8>
1000b090:	6be2      	ldr	r2, [r4, #60]	; 0x3c
1000b092:	2a00      	cmp	r2, #0
1000b094:	dd00      	ble.n	1000b098 <__sflush_r+0xf8>
1000b096:	e794      	b.n	1000afc2 <__sflush_r+0x22>
1000b098:	e7d5      	b.n	1000b046 <__sflush_r+0xa6>
1000b09a:	6d20      	ldr	r0, [r4, #80]	; 0x50
1000b09c:	e7a5      	b.n	1000afea <__sflush_r+0x4a>
1000b09e:	89a3      	ldrh	r3, [r4, #12]
1000b0a0:	4a0e      	ldr	r2, [pc, #56]	; (1000b0dc <__sflush_r+0x13c>)
1000b0a2:	4013      	ands	r3, r2
1000b0a4:	2200      	movs	r2, #0
1000b0a6:	6062      	str	r2, [r4, #4]
1000b0a8:	6922      	ldr	r2, [r4, #16]
1000b0aa:	b21b      	sxth	r3, r3
1000b0ac:	81a3      	strh	r3, [r4, #12]
1000b0ae:	6022      	str	r2, [r4, #0]
1000b0b0:	04db      	lsls	r3, r3, #19
1000b0b2:	d5ba      	bpl.n	1000b02a <__sflush_r+0x8a>
1000b0b4:	6520      	str	r0, [r4, #80]	; 0x50
1000b0b6:	e7b8      	b.n	1000b02a <__sflush_r+0x8a>
1000b0b8:	4643      	mov	r3, r8
1000b0ba:	681b      	ldr	r3, [r3, #0]
1000b0bc:	2b00      	cmp	r3, #0
1000b0be:	d100      	bne.n	1000b0c2 <__sflush_r+0x122>
1000b0c0:	e791      	b.n	1000afe6 <__sflush_r+0x46>
1000b0c2:	2b1d      	cmp	r3, #29
1000b0c4:	d006      	beq.n	1000b0d4 <__sflush_r+0x134>
1000b0c6:	2b16      	cmp	r3, #22
1000b0c8:	d004      	beq.n	1000b0d4 <__sflush_r+0x134>
1000b0ca:	2240      	movs	r2, #64	; 0x40
1000b0cc:	89a3      	ldrh	r3, [r4, #12]
1000b0ce:	4313      	orrs	r3, r2
1000b0d0:	81a3      	strh	r3, [r4, #12]
1000b0d2:	e7b9      	b.n	1000b048 <__sflush_r+0xa8>
1000b0d4:	4643      	mov	r3, r8
1000b0d6:	2000      	movs	r0, #0
1000b0d8:	601d      	str	r5, [r3, #0]
1000b0da:	e7b5      	b.n	1000b048 <__sflush_r+0xa8>
1000b0dc:	fffff7ff 	.word	0xfffff7ff

1000b0e0 <_fflush_r>:
1000b0e0:	b570      	push	{r4, r5, r6, lr}
1000b0e2:	0004      	movs	r4, r0
1000b0e4:	000d      	movs	r5, r1
1000b0e6:	2800      	cmp	r0, #0
1000b0e8:	d002      	beq.n	1000b0f0 <_fflush_r+0x10>
1000b0ea:	6b83      	ldr	r3, [r0, #56]	; 0x38
1000b0ec:	2b00      	cmp	r3, #0
1000b0ee:	d009      	beq.n	1000b104 <_fflush_r+0x24>
1000b0f0:	220c      	movs	r2, #12
1000b0f2:	5eab      	ldrsh	r3, [r5, r2]
1000b0f4:	2000      	movs	r0, #0
1000b0f6:	2b00      	cmp	r3, #0
1000b0f8:	d003      	beq.n	1000b102 <_fflush_r+0x22>
1000b0fa:	0029      	movs	r1, r5
1000b0fc:	0020      	movs	r0, r4
1000b0fe:	f7ff ff4f 	bl	1000afa0 <__sflush_r>
1000b102:	bd70      	pop	{r4, r5, r6, pc}
1000b104:	f000 f928 	bl	1000b358 <__sinit>
1000b108:	e7f2      	b.n	1000b0f0 <_fflush_r+0x10>
1000b10a:	46c0      	nop			; (mov r8, r8)

1000b10c <fflush>:
1000b10c:	b570      	push	{r4, r5, r6, lr}
1000b10e:	1e04      	subs	r4, r0, #0
1000b110:	d01a      	beq.n	1000b148 <fflush+0x3c>
1000b112:	4b10      	ldr	r3, [pc, #64]	; (1000b154 <fflush+0x48>)
1000b114:	681d      	ldr	r5, [r3, #0]
1000b116:	2d00      	cmp	r5, #0
1000b118:	d002      	beq.n	1000b120 <fflush+0x14>
1000b11a:	6bab      	ldr	r3, [r5, #56]	; 0x38
1000b11c:	2b00      	cmp	r3, #0
1000b11e:	d00a      	beq.n	1000b136 <fflush+0x2a>
1000b120:	220c      	movs	r2, #12
1000b122:	5ea3      	ldrsh	r3, [r4, r2]
1000b124:	2000      	movs	r0, #0
1000b126:	2b00      	cmp	r3, #0
1000b128:	d100      	bne.n	1000b12c <fflush+0x20>
1000b12a:	bd70      	pop	{r4, r5, r6, pc}
1000b12c:	0021      	movs	r1, r4
1000b12e:	0028      	movs	r0, r5
1000b130:	f7ff ff36 	bl	1000afa0 <__sflush_r>
1000b134:	e7f9      	b.n	1000b12a <fflush+0x1e>
1000b136:	0028      	movs	r0, r5
1000b138:	f000 f90e 	bl	1000b358 <__sinit>
1000b13c:	220c      	movs	r2, #12
1000b13e:	5ea3      	ldrsh	r3, [r4, r2]
1000b140:	2000      	movs	r0, #0
1000b142:	2b00      	cmp	r3, #0
1000b144:	d0f1      	beq.n	1000b12a <fflush+0x1e>
1000b146:	e7f1      	b.n	1000b12c <fflush+0x20>
1000b148:	4b03      	ldr	r3, [pc, #12]	; (1000b158 <fflush+0x4c>)
1000b14a:	4904      	ldr	r1, [pc, #16]	; (1000b15c <fflush+0x50>)
1000b14c:	6818      	ldr	r0, [r3, #0]
1000b14e:	f000 fa7b 	bl	1000b648 <_fwalk_reent>
1000b152:	e7ea      	b.n	1000b12a <fflush+0x1e>
1000b154:	20000a28 	.word	0x20000a28
1000b158:	1000da20 	.word	0x1000da20
1000b15c:	1000b0e1 	.word	0x1000b0e1

1000b160 <__fp_lock>:
1000b160:	2000      	movs	r0, #0
1000b162:	4770      	bx	lr

1000b164 <_cleanup_r>:
1000b164:	b510      	push	{r4, lr}
1000b166:	4902      	ldr	r1, [pc, #8]	; (1000b170 <_cleanup_r+0xc>)
1000b168:	f000 fa6e 	bl	1000b648 <_fwalk_reent>
1000b16c:	bd10      	pop	{r4, pc}
1000b16e:	46c0      	nop			; (mov r8, r8)
1000b170:	1000b935 	.word	0x1000b935

1000b174 <__fp_unlock>:
1000b174:	2000      	movs	r0, #0
1000b176:	4770      	bx	lr

1000b178 <__sinit.part.0>:
1000b178:	b5f0      	push	{r4, r5, r6, r7, lr}
1000b17a:	46d6      	mov	lr, sl
1000b17c:	464f      	mov	r7, r9
1000b17e:	4646      	mov	r6, r8
1000b180:	4b30      	ldr	r3, [pc, #192]	; (1000b244 <__sinit.part.0+0xcc>)
1000b182:	b5c0      	push	{r6, r7, lr}
1000b184:	63c3      	str	r3, [r0, #60]	; 0x3c
1000b186:	23b8      	movs	r3, #184	; 0xb8
1000b188:	2400      	movs	r4, #0
1000b18a:	2203      	movs	r2, #3
1000b18c:	009b      	lsls	r3, r3, #2
1000b18e:	50c4      	str	r4, [r0, r3]
1000b190:	3304      	adds	r3, #4
1000b192:	6845      	ldr	r5, [r0, #4]
1000b194:	50c2      	str	r2, [r0, r3]
1000b196:	3308      	adds	r3, #8
1000b198:	18c2      	adds	r2, r0, r3
1000b19a:	3b04      	subs	r3, #4
1000b19c:	50c2      	str	r2, [r0, r3]
1000b19e:	0006      	movs	r6, r0
1000b1a0:	2304      	movs	r3, #4
1000b1a2:	0028      	movs	r0, r5
1000b1a4:	666c      	str	r4, [r5, #100]	; 0x64
1000b1a6:	602c      	str	r4, [r5, #0]
1000b1a8:	606c      	str	r4, [r5, #4]
1000b1aa:	60ac      	str	r4, [r5, #8]
1000b1ac:	60eb      	str	r3, [r5, #12]
1000b1ae:	612c      	str	r4, [r5, #16]
1000b1b0:	616c      	str	r4, [r5, #20]
1000b1b2:	61ac      	str	r4, [r5, #24]
1000b1b4:	2208      	movs	r2, #8
1000b1b6:	2100      	movs	r1, #0
1000b1b8:	305c      	adds	r0, #92	; 0x5c
1000b1ba:	f7fa ffd5 	bl	10006168 <__wrap_memset>
1000b1be:	4b22      	ldr	r3, [pc, #136]	; (1000b248 <__sinit.part.0+0xd0>)
1000b1c0:	4f22      	ldr	r7, [pc, #136]	; (1000b24c <__sinit.part.0+0xd4>)
1000b1c2:	469a      	mov	sl, r3
1000b1c4:	622b      	str	r3, [r5, #32]
1000b1c6:	4b22      	ldr	r3, [pc, #136]	; (1000b250 <__sinit.part.0+0xd8>)
1000b1c8:	62ef      	str	r7, [r5, #44]	; 0x2c
1000b1ca:	4699      	mov	r9, r3
1000b1cc:	626b      	str	r3, [r5, #36]	; 0x24
1000b1ce:	4b21      	ldr	r3, [pc, #132]	; (1000b254 <__sinit.part.0+0xdc>)
1000b1d0:	61ed      	str	r5, [r5, #28]
1000b1d2:	62ab      	str	r3, [r5, #40]	; 0x28
1000b1d4:	68b5      	ldr	r5, [r6, #8]
1000b1d6:	4698      	mov	r8, r3
1000b1d8:	0028      	movs	r0, r5
1000b1da:	4b1f      	ldr	r3, [pc, #124]	; (1000b258 <__sinit.part.0+0xe0>)
1000b1dc:	666c      	str	r4, [r5, #100]	; 0x64
1000b1de:	602c      	str	r4, [r5, #0]
1000b1e0:	606c      	str	r4, [r5, #4]
1000b1e2:	60ac      	str	r4, [r5, #8]
1000b1e4:	60eb      	str	r3, [r5, #12]
1000b1e6:	612c      	str	r4, [r5, #16]
1000b1e8:	616c      	str	r4, [r5, #20]
1000b1ea:	61ac      	str	r4, [r5, #24]
1000b1ec:	2208      	movs	r2, #8
1000b1ee:	2100      	movs	r1, #0
1000b1f0:	305c      	adds	r0, #92	; 0x5c
1000b1f2:	f7fa ffb9 	bl	10006168 <__wrap_memset>
1000b1f6:	4653      	mov	r3, sl
1000b1f8:	622b      	str	r3, [r5, #32]
1000b1fa:	464b      	mov	r3, r9
1000b1fc:	626b      	str	r3, [r5, #36]	; 0x24
1000b1fe:	4643      	mov	r3, r8
1000b200:	62ef      	str	r7, [r5, #44]	; 0x2c
1000b202:	62ab      	str	r3, [r5, #40]	; 0x28
1000b204:	61ed      	str	r5, [r5, #28]
1000b206:	68f5      	ldr	r5, [r6, #12]
1000b208:	4b14      	ldr	r3, [pc, #80]	; (1000b25c <__sinit.part.0+0xe4>)
1000b20a:	0028      	movs	r0, r5
1000b20c:	60eb      	str	r3, [r5, #12]
1000b20e:	666c      	str	r4, [r5, #100]	; 0x64
1000b210:	602c      	str	r4, [r5, #0]
1000b212:	606c      	str	r4, [r5, #4]
1000b214:	60ac      	str	r4, [r5, #8]
1000b216:	612c      	str	r4, [r5, #16]
1000b218:	616c      	str	r4, [r5, #20]
1000b21a:	61ac      	str	r4, [r5, #24]
1000b21c:	2208      	movs	r2, #8
1000b21e:	2100      	movs	r1, #0
1000b220:	305c      	adds	r0, #92	; 0x5c
1000b222:	f7fa ffa1 	bl	10006168 <__wrap_memset>
1000b226:	4653      	mov	r3, sl
1000b228:	622b      	str	r3, [r5, #32]
1000b22a:	464b      	mov	r3, r9
1000b22c:	626b      	str	r3, [r5, #36]	; 0x24
1000b22e:	4643      	mov	r3, r8
1000b230:	62ab      	str	r3, [r5, #40]	; 0x28
1000b232:	2301      	movs	r3, #1
1000b234:	62ef      	str	r7, [r5, #44]	; 0x2c
1000b236:	61ed      	str	r5, [r5, #28]
1000b238:	63b3      	str	r3, [r6, #56]	; 0x38
1000b23a:	bce0      	pop	{r5, r6, r7}
1000b23c:	46ba      	mov	sl, r7
1000b23e:	46b1      	mov	r9, r6
1000b240:	46a8      	mov	r8, r5
1000b242:	bdf0      	pop	{r4, r5, r6, r7, pc}
1000b244:	1000b165 	.word	0x1000b165
1000b248:	1000b7d5 	.word	0x1000b7d5
1000b24c:	1000b86d 	.word	0x1000b86d
1000b250:	1000b801 	.word	0x1000b801
1000b254:	1000b841 	.word	0x1000b841
1000b258:	00010009 	.word	0x00010009
1000b25c:	00020012 	.word	0x00020012

1000b260 <__sfmoreglue>:
1000b260:	b570      	push	{r4, r5, r6, lr}
1000b262:	2568      	movs	r5, #104	; 0x68
1000b264:	1e4a      	subs	r2, r1, #1
1000b266:	4355      	muls	r5, r2
1000b268:	000e      	movs	r6, r1
1000b26a:	0029      	movs	r1, r5
1000b26c:	3174      	adds	r1, #116	; 0x74
1000b26e:	f7ff f9b7 	bl	1000a5e0 <_malloc_r>
1000b272:	1e04      	subs	r4, r0, #0
1000b274:	d009      	beq.n	1000b28a <__sfmoreglue+0x2a>
1000b276:	2300      	movs	r3, #0
1000b278:	002a      	movs	r2, r5
1000b27a:	6003      	str	r3, [r0, #0]
1000b27c:	6046      	str	r6, [r0, #4]
1000b27e:	300c      	adds	r0, #12
1000b280:	2100      	movs	r1, #0
1000b282:	60a0      	str	r0, [r4, #8]
1000b284:	3268      	adds	r2, #104	; 0x68
1000b286:	f7fa ff6f 	bl	10006168 <__wrap_memset>
1000b28a:	0020      	movs	r0, r4
1000b28c:	bd70      	pop	{r4, r5, r6, pc}
1000b28e:	46c0      	nop			; (mov r8, r8)

1000b290 <__sfp>:
1000b290:	b5f0      	push	{r4, r5, r6, r7, lr}
1000b292:	46c6      	mov	lr, r8
1000b294:	4b28      	ldr	r3, [pc, #160]	; (1000b338 <__sfp+0xa8>)
1000b296:	0007      	movs	r7, r0
1000b298:	681e      	ldr	r6, [r3, #0]
1000b29a:	b500      	push	{lr}
1000b29c:	6bb3      	ldr	r3, [r6, #56]	; 0x38
1000b29e:	2b00      	cmp	r3, #0
1000b2a0:	d02d      	beq.n	1000b2fe <__sfp+0x6e>
1000b2a2:	23b8      	movs	r3, #184	; 0xb8
1000b2a4:	009b      	lsls	r3, r3, #2
1000b2a6:	469c      	mov	ip, r3
1000b2a8:	2304      	movs	r3, #4
1000b2aa:	4698      	mov	r8, r3
1000b2ac:	4466      	add	r6, ip
1000b2ae:	6873      	ldr	r3, [r6, #4]
1000b2b0:	68b4      	ldr	r4, [r6, #8]
1000b2b2:	3b01      	subs	r3, #1
1000b2b4:	d503      	bpl.n	1000b2be <__sfp+0x2e>
1000b2b6:	e01d      	b.n	1000b2f4 <__sfp+0x64>
1000b2b8:	3468      	adds	r4, #104	; 0x68
1000b2ba:	3b01      	subs	r3, #1
1000b2bc:	d31a      	bcc.n	1000b2f4 <__sfp+0x64>
1000b2be:	220c      	movs	r2, #12
1000b2c0:	5ea5      	ldrsh	r5, [r4, r2]
1000b2c2:	2d00      	cmp	r5, #0
1000b2c4:	d1f8      	bne.n	1000b2b8 <__sfp+0x28>
1000b2c6:	0020      	movs	r0, r4
1000b2c8:	4b1c      	ldr	r3, [pc, #112]	; (1000b33c <__sfp+0xac>)
1000b2ca:	2208      	movs	r2, #8
1000b2cc:	2100      	movs	r1, #0
1000b2ce:	6665      	str	r5, [r4, #100]	; 0x64
1000b2d0:	6025      	str	r5, [r4, #0]
1000b2d2:	6065      	str	r5, [r4, #4]
1000b2d4:	60a5      	str	r5, [r4, #8]
1000b2d6:	60e3      	str	r3, [r4, #12]
1000b2d8:	6125      	str	r5, [r4, #16]
1000b2da:	6165      	str	r5, [r4, #20]
1000b2dc:	61a5      	str	r5, [r4, #24]
1000b2de:	305c      	adds	r0, #92	; 0x5c
1000b2e0:	f7fa ff42 	bl	10006168 <__wrap_memset>
1000b2e4:	6325      	str	r5, [r4, #48]	; 0x30
1000b2e6:	6365      	str	r5, [r4, #52]	; 0x34
1000b2e8:	6465      	str	r5, [r4, #68]	; 0x44
1000b2ea:	64a5      	str	r5, [r4, #72]	; 0x48
1000b2ec:	0020      	movs	r0, r4
1000b2ee:	bc80      	pop	{r7}
1000b2f0:	46b8      	mov	r8, r7
1000b2f2:	bdf0      	pop	{r4, r5, r6, r7, pc}
1000b2f4:	6835      	ldr	r5, [r6, #0]
1000b2f6:	2d00      	cmp	r5, #0
1000b2f8:	d005      	beq.n	1000b306 <__sfp+0x76>
1000b2fa:	002e      	movs	r6, r5
1000b2fc:	e7d7      	b.n	1000b2ae <__sfp+0x1e>
1000b2fe:	0030      	movs	r0, r6
1000b300:	f7ff ff3a 	bl	1000b178 <__sinit.part.0>
1000b304:	e7cd      	b.n	1000b2a2 <__sfp+0x12>
1000b306:	21d6      	movs	r1, #214	; 0xd6
1000b308:	0038      	movs	r0, r7
1000b30a:	0049      	lsls	r1, r1, #1
1000b30c:	f7ff f968 	bl	1000a5e0 <_malloc_r>
1000b310:	1e04      	subs	r4, r0, #0
1000b312:	d00d      	beq.n	1000b330 <__sfp+0xa0>
1000b314:	4643      	mov	r3, r8
1000b316:	22d0      	movs	r2, #208	; 0xd0
1000b318:	6005      	str	r5, [r0, #0]
1000b31a:	0025      	movs	r5, r4
1000b31c:	6043      	str	r3, [r0, #4]
1000b31e:	300c      	adds	r0, #12
1000b320:	2100      	movs	r1, #0
1000b322:	60a0      	str	r0, [r4, #8]
1000b324:	0052      	lsls	r2, r2, #1
1000b326:	f7fa ff1f 	bl	10006168 <__wrap_memset>
1000b32a:	6034      	str	r4, [r6, #0]
1000b32c:	002e      	movs	r6, r5
1000b32e:	e7be      	b.n	1000b2ae <__sfp+0x1e>
1000b330:	230c      	movs	r3, #12
1000b332:	6030      	str	r0, [r6, #0]
1000b334:	603b      	str	r3, [r7, #0]
1000b336:	e7d9      	b.n	1000b2ec <__sfp+0x5c>
1000b338:	1000da20 	.word	0x1000da20
1000b33c:	ffff0001 	.word	0xffff0001

1000b340 <_cleanup>:
1000b340:	b510      	push	{r4, lr}
1000b342:	4b03      	ldr	r3, [pc, #12]	; (1000b350 <_cleanup+0x10>)
1000b344:	4903      	ldr	r1, [pc, #12]	; (1000b354 <_cleanup+0x14>)
1000b346:	6818      	ldr	r0, [r3, #0]
1000b348:	f000 f97e 	bl	1000b648 <_fwalk_reent>
1000b34c:	bd10      	pop	{r4, pc}
1000b34e:	46c0      	nop			; (mov r8, r8)
1000b350:	1000da20 	.word	0x1000da20
1000b354:	1000b935 	.word	0x1000b935

1000b358 <__sinit>:
1000b358:	6b83      	ldr	r3, [r0, #56]	; 0x38
1000b35a:	b510      	push	{r4, lr}
1000b35c:	2b00      	cmp	r3, #0
1000b35e:	d101      	bne.n	1000b364 <__sinit+0xc>
1000b360:	f7ff ff0a 	bl	1000b178 <__sinit.part.0>
1000b364:	bd10      	pop	{r4, pc}
1000b366:	46c0      	nop			; (mov r8, r8)

1000b368 <__sfp_lock_acquire>:
1000b368:	4770      	bx	lr
1000b36a:	46c0      	nop			; (mov r8, r8)

1000b36c <__sfp_lock_release>:
1000b36c:	4770      	bx	lr
1000b36e:	46c0      	nop			; (mov r8, r8)

1000b370 <__sinit_lock_acquire>:
1000b370:	4770      	bx	lr
1000b372:	46c0      	nop			; (mov r8, r8)

1000b374 <__sinit_lock_release>:
1000b374:	4770      	bx	lr
1000b376:	46c0      	nop			; (mov r8, r8)

1000b378 <__fp_lock_all>:
1000b378:	b510      	push	{r4, lr}
1000b37a:	4b03      	ldr	r3, [pc, #12]	; (1000b388 <__fp_lock_all+0x10>)
1000b37c:	4903      	ldr	r1, [pc, #12]	; (1000b38c <__fp_lock_all+0x14>)
1000b37e:	6818      	ldr	r0, [r3, #0]
1000b380:	f000 f942 	bl	1000b608 <_fwalk>
1000b384:	bd10      	pop	{r4, pc}
1000b386:	46c0      	nop			; (mov r8, r8)
1000b388:	20000a28 	.word	0x20000a28
1000b38c:	1000b161 	.word	0x1000b161

1000b390 <__fp_unlock_all>:
1000b390:	b510      	push	{r4, lr}
1000b392:	4b03      	ldr	r3, [pc, #12]	; (1000b3a0 <__fp_unlock_all+0x10>)
1000b394:	4903      	ldr	r1, [pc, #12]	; (1000b3a4 <__fp_unlock_all+0x14>)
1000b396:	6818      	ldr	r0, [r3, #0]
1000b398:	f000 f936 	bl	1000b608 <_fwalk>
1000b39c:	bd10      	pop	{r4, pc}
1000b39e:	46c0      	nop			; (mov r8, r8)
1000b3a0:	20000a28 	.word	0x20000a28
1000b3a4:	1000b175 	.word	0x1000b175

1000b3a8 <_malloc_trim_r>:
1000b3a8:	b5f8      	push	{r3, r4, r5, r6, r7, lr}
1000b3aa:	000c      	movs	r4, r1
1000b3ac:	0005      	movs	r5, r0
1000b3ae:	f7ff fc4b 	bl	1000ac48 <__malloc_lock>
1000b3b2:	4f20      	ldr	r7, [pc, #128]	; (1000b434 <_malloc_trim_r+0x8c>)
1000b3b4:	68bb      	ldr	r3, [r7, #8]
1000b3b6:	685e      	ldr	r6, [r3, #4]
1000b3b8:	2303      	movs	r3, #3
1000b3ba:	439e      	bics	r6, r3
1000b3bc:	4b1e      	ldr	r3, [pc, #120]	; (1000b438 <_malloc_trim_r+0x90>)
1000b3be:	1b34      	subs	r4, r6, r4
1000b3c0:	469c      	mov	ip, r3
1000b3c2:	4464      	add	r4, ip
1000b3c4:	0b24      	lsrs	r4, r4, #12
1000b3c6:	3c01      	subs	r4, #1
1000b3c8:	3311      	adds	r3, #17
1000b3ca:	0324      	lsls	r4, r4, #12
1000b3cc:	429c      	cmp	r4, r3
1000b3ce:	db07      	blt.n	1000b3e0 <_malloc_trim_r+0x38>
1000b3d0:	2100      	movs	r1, #0
1000b3d2:	0028      	movs	r0, r5
1000b3d4:	f7ff fc3c 	bl	1000ac50 <_sbrk_r>
1000b3d8:	68bb      	ldr	r3, [r7, #8]
1000b3da:	199b      	adds	r3, r3, r6
1000b3dc:	4298      	cmp	r0, r3
1000b3de:	d004      	beq.n	1000b3ea <_malloc_trim_r+0x42>
1000b3e0:	0028      	movs	r0, r5
1000b3e2:	f7ff fc33 	bl	1000ac4c <__malloc_unlock>
1000b3e6:	2000      	movs	r0, #0
1000b3e8:	bdf8      	pop	{r3, r4, r5, r6, r7, pc}
1000b3ea:	0028      	movs	r0, r5
1000b3ec:	4261      	negs	r1, r4
1000b3ee:	f7ff fc2f 	bl	1000ac50 <_sbrk_r>
1000b3f2:	1c43      	adds	r3, r0, #1
1000b3f4:	d00d      	beq.n	1000b412 <_malloc_trim_r+0x6a>
1000b3f6:	2201      	movs	r2, #1
1000b3f8:	68bb      	ldr	r3, [r7, #8]
1000b3fa:	1b36      	subs	r6, r6, r4
1000b3fc:	4316      	orrs	r6, r2
1000b3fe:	605e      	str	r6, [r3, #4]
1000b400:	4b0e      	ldr	r3, [pc, #56]	; (1000b43c <_malloc_trim_r+0x94>)
1000b402:	0028      	movs	r0, r5
1000b404:	681a      	ldr	r2, [r3, #0]
1000b406:	1b14      	subs	r4, r2, r4
1000b408:	601c      	str	r4, [r3, #0]
1000b40a:	f7ff fc1f 	bl	1000ac4c <__malloc_unlock>
1000b40e:	2001      	movs	r0, #1
1000b410:	e7ea      	b.n	1000b3e8 <_malloc_trim_r+0x40>
1000b412:	2100      	movs	r1, #0
1000b414:	0028      	movs	r0, r5
1000b416:	f7ff fc1b 	bl	1000ac50 <_sbrk_r>
1000b41a:	68ba      	ldr	r2, [r7, #8]
1000b41c:	1a83      	subs	r3, r0, r2
1000b41e:	2b0f      	cmp	r3, #15
1000b420:	ddde      	ble.n	1000b3e0 <_malloc_trim_r+0x38>
1000b422:	4907      	ldr	r1, [pc, #28]	; (1000b440 <_malloc_trim_r+0x98>)
1000b424:	6809      	ldr	r1, [r1, #0]
1000b426:	1a40      	subs	r0, r0, r1
1000b428:	4904      	ldr	r1, [pc, #16]	; (1000b43c <_malloc_trim_r+0x94>)
1000b42a:	6008      	str	r0, [r1, #0]
1000b42c:	2101      	movs	r1, #1
1000b42e:	430b      	orrs	r3, r1
1000b430:	6053      	str	r3, [r2, #4]
1000b432:	e7d5      	b.n	1000b3e0 <_malloc_trim_r+0x38>
1000b434:	20000e60 	.word	0x20000e60
1000b438:	00000fef 	.word	0x00000fef
1000b43c:	20001410 	.word	0x20001410
1000b440:	20000e58 	.word	0x20000e58

1000b444 <_free_r>:
1000b444:	b5f0      	push	{r4, r5, r6, r7, lr}
1000b446:	46c6      	mov	lr, r8
1000b448:	0005      	movs	r5, r0
1000b44a:	000c      	movs	r4, r1
1000b44c:	b500      	push	{lr}
1000b44e:	2900      	cmp	r1, #0
1000b450:	d04f      	beq.n	1000b4f2 <_free_r+0xae>
1000b452:	f7ff fbf9 	bl	1000ac48 <__malloc_lock>
1000b456:	0021      	movs	r1, r4
1000b458:	3908      	subs	r1, #8
1000b45a:	684c      	ldr	r4, [r1, #4]
1000b45c:	2601      	movs	r6, #1
1000b45e:	0022      	movs	r2, r4
1000b460:	2003      	movs	r0, #3
1000b462:	43b2      	bics	r2, r6
1000b464:	188f      	adds	r7, r1, r2
1000b466:	687b      	ldr	r3, [r7, #4]
1000b468:	4383      	bics	r3, r0
1000b46a:	4862      	ldr	r0, [pc, #392]	; (1000b5f4 <_free_r+0x1b0>)
1000b46c:	4698      	mov	r8, r3
1000b46e:	6883      	ldr	r3, [r0, #8]
1000b470:	42bb      	cmp	r3, r7
1000b472:	d06a      	beq.n	1000b54a <_free_r+0x106>
1000b474:	4643      	mov	r3, r8
1000b476:	607b      	str	r3, [r7, #4]
1000b478:	4226      	tst	r6, r4
1000b47a:	d11e      	bne.n	1000b4ba <_free_r+0x76>
1000b47c:	2308      	movs	r3, #8
1000b47e:	469c      	mov	ip, r3
1000b480:	680c      	ldr	r4, [r1, #0]
1000b482:	4484      	add	ip, r0
1000b484:	1b09      	subs	r1, r1, r4
1000b486:	1912      	adds	r2, r2, r4
1000b488:	688c      	ldr	r4, [r1, #8]
1000b48a:	4564      	cmp	r4, ip
1000b48c:	d04f      	beq.n	1000b52e <_free_r+0xea>
1000b48e:	68cb      	ldr	r3, [r1, #12]
1000b490:	60e3      	str	r3, [r4, #12]
1000b492:	609c      	str	r4, [r3, #8]
1000b494:	4643      	mov	r3, r8
1000b496:	18fc      	adds	r4, r7, r3
1000b498:	6864      	ldr	r4, [r4, #4]
1000b49a:	4234      	tst	r4, r6
1000b49c:	d111      	bne.n	1000b4c2 <_free_r+0x7e>
1000b49e:	68bb      	ldr	r3, [r7, #8]
1000b4a0:	4c55      	ldr	r4, [pc, #340]	; (1000b5f8 <_free_r+0x1b4>)
1000b4a2:	4442      	add	r2, r8
1000b4a4:	42a3      	cmp	r3, r4
1000b4a6:	d100      	bne.n	1000b4aa <_free_r+0x66>
1000b4a8:	e07e      	b.n	1000b5a8 <_free_r+0x164>
1000b4aa:	68fc      	ldr	r4, [r7, #12]
1000b4ac:	60dc      	str	r4, [r3, #12]
1000b4ae:	60a3      	str	r3, [r4, #8]
1000b4b0:	2301      	movs	r3, #1
1000b4b2:	4313      	orrs	r3, r2
1000b4b4:	604b      	str	r3, [r1, #4]
1000b4b6:	508a      	str	r2, [r1, r2]
1000b4b8:	e006      	b.n	1000b4c8 <_free_r+0x84>
1000b4ba:	18fc      	adds	r4, r7, r3
1000b4bc:	6864      	ldr	r4, [r4, #4]
1000b4be:	4234      	tst	r4, r6
1000b4c0:	d0ed      	beq.n	1000b49e <_free_r+0x5a>
1000b4c2:	4316      	orrs	r6, r2
1000b4c4:	604e      	str	r6, [r1, #4]
1000b4c6:	603a      	str	r2, [r7, #0]
1000b4c8:	2380      	movs	r3, #128	; 0x80
1000b4ca:	009b      	lsls	r3, r3, #2
1000b4cc:	429a      	cmp	r2, r3
1000b4ce:	d213      	bcs.n	1000b4f8 <_free_r+0xb4>
1000b4d0:	0954      	lsrs	r4, r2, #5
1000b4d2:	08d3      	lsrs	r3, r2, #3
1000b4d4:	2201      	movs	r2, #1
1000b4d6:	40a2      	lsls	r2, r4
1000b4d8:	6844      	ldr	r4, [r0, #4]
1000b4da:	00db      	lsls	r3, r3, #3
1000b4dc:	4322      	orrs	r2, r4
1000b4de:	6042      	str	r2, [r0, #4]
1000b4e0:	1818      	adds	r0, r3, r0
1000b4e2:	6883      	ldr	r3, [r0, #8]
1000b4e4:	60c8      	str	r0, [r1, #12]
1000b4e6:	608b      	str	r3, [r1, #8]
1000b4e8:	6081      	str	r1, [r0, #8]
1000b4ea:	60d9      	str	r1, [r3, #12]
1000b4ec:	0028      	movs	r0, r5
1000b4ee:	f7ff fbad 	bl	1000ac4c <__malloc_unlock>
1000b4f2:	bc80      	pop	{r7}
1000b4f4:	46b8      	mov	r8, r7
1000b4f6:	bdf0      	pop	{r4, r5, r6, r7, pc}
1000b4f8:	0a53      	lsrs	r3, r2, #9
1000b4fa:	2b04      	cmp	r3, #4
1000b4fc:	d83e      	bhi.n	1000b57c <_free_r+0x138>
1000b4fe:	0994      	lsrs	r4, r2, #6
1000b500:	0026      	movs	r6, r4
1000b502:	3439      	adds	r4, #57	; 0x39
1000b504:	3638      	adds	r6, #56	; 0x38
1000b506:	00e4      	lsls	r4, r4, #3
1000b508:	1904      	adds	r4, r0, r4
1000b50a:	6823      	ldr	r3, [r4, #0]
1000b50c:	3c08      	subs	r4, #8
1000b50e:	2703      	movs	r7, #3
1000b510:	429c      	cmp	r4, r3
1000b512:	d042      	beq.n	1000b59a <_free_r+0x156>
1000b514:	6858      	ldr	r0, [r3, #4]
1000b516:	43b8      	bics	r0, r7
1000b518:	4290      	cmp	r0, r2
1000b51a:	d902      	bls.n	1000b522 <_free_r+0xde>
1000b51c:	689b      	ldr	r3, [r3, #8]
1000b51e:	429c      	cmp	r4, r3
1000b520:	d1f8      	bne.n	1000b514 <_free_r+0xd0>
1000b522:	68dc      	ldr	r4, [r3, #12]
1000b524:	60cc      	str	r4, [r1, #12]
1000b526:	608b      	str	r3, [r1, #8]
1000b528:	60a1      	str	r1, [r4, #8]
1000b52a:	60d9      	str	r1, [r3, #12]
1000b52c:	e7de      	b.n	1000b4ec <_free_r+0xa8>
1000b52e:	4643      	mov	r3, r8
1000b530:	18f8      	adds	r0, r7, r3
1000b532:	6840      	ldr	r0, [r0, #4]
1000b534:	4230      	tst	r0, r6
1000b536:	d157      	bne.n	1000b5e8 <_free_r+0x1a4>
1000b538:	68fb      	ldr	r3, [r7, #12]
1000b53a:	68b8      	ldr	r0, [r7, #8]
1000b53c:	4442      	add	r2, r8
1000b53e:	4316      	orrs	r6, r2
1000b540:	60c3      	str	r3, [r0, #12]
1000b542:	6098      	str	r0, [r3, #8]
1000b544:	604e      	str	r6, [r1, #4]
1000b546:	508a      	str	r2, [r1, r2]
1000b548:	e7d0      	b.n	1000b4ec <_free_r+0xa8>
1000b54a:	0013      	movs	r3, r2
1000b54c:	4443      	add	r3, r8
1000b54e:	4226      	tst	r6, r4
1000b550:	d106      	bne.n	1000b560 <_free_r+0x11c>
1000b552:	680a      	ldr	r2, [r1, #0]
1000b554:	1a89      	subs	r1, r1, r2
1000b556:	688c      	ldr	r4, [r1, #8]
1000b558:	189b      	adds	r3, r3, r2
1000b55a:	68ca      	ldr	r2, [r1, #12]
1000b55c:	60e2      	str	r2, [r4, #12]
1000b55e:	6094      	str	r4, [r2, #8]
1000b560:	2201      	movs	r2, #1
1000b562:	431a      	orrs	r2, r3
1000b564:	604a      	str	r2, [r1, #4]
1000b566:	4a25      	ldr	r2, [pc, #148]	; (1000b5fc <_free_r+0x1b8>)
1000b568:	6081      	str	r1, [r0, #8]
1000b56a:	6812      	ldr	r2, [r2, #0]
1000b56c:	429a      	cmp	r2, r3
1000b56e:	d8bd      	bhi.n	1000b4ec <_free_r+0xa8>
1000b570:	4b23      	ldr	r3, [pc, #140]	; (1000b600 <_free_r+0x1bc>)
1000b572:	0028      	movs	r0, r5
1000b574:	6819      	ldr	r1, [r3, #0]
1000b576:	f7ff ff17 	bl	1000b3a8 <_malloc_trim_r>
1000b57a:	e7b7      	b.n	1000b4ec <_free_r+0xa8>
1000b57c:	2b14      	cmp	r3, #20
1000b57e:	d907      	bls.n	1000b590 <_free_r+0x14c>
1000b580:	2b54      	cmp	r3, #84	; 0x54
1000b582:	d81a      	bhi.n	1000b5ba <_free_r+0x176>
1000b584:	0b14      	lsrs	r4, r2, #12
1000b586:	0026      	movs	r6, r4
1000b588:	346f      	adds	r4, #111	; 0x6f
1000b58a:	366e      	adds	r6, #110	; 0x6e
1000b58c:	00e4      	lsls	r4, r4, #3
1000b58e:	e7bb      	b.n	1000b508 <_free_r+0xc4>
1000b590:	001e      	movs	r6, r3
1000b592:	335c      	adds	r3, #92	; 0x5c
1000b594:	365b      	adds	r6, #91	; 0x5b
1000b596:	00dc      	lsls	r4, r3, #3
1000b598:	e7b6      	b.n	1000b508 <_free_r+0xc4>
1000b59a:	2201      	movs	r2, #1
1000b59c:	10b6      	asrs	r6, r6, #2
1000b59e:	40b2      	lsls	r2, r6
1000b5a0:	6846      	ldr	r6, [r0, #4]
1000b5a2:	4332      	orrs	r2, r6
1000b5a4:	6042      	str	r2, [r0, #4]
1000b5a6:	e7bd      	b.n	1000b524 <_free_r+0xe0>
1000b5a8:	60d9      	str	r1, [r3, #12]
1000b5aa:	6099      	str	r1, [r3, #8]
1000b5ac:	60cb      	str	r3, [r1, #12]
1000b5ae:	608b      	str	r3, [r1, #8]
1000b5b0:	2301      	movs	r3, #1
1000b5b2:	4313      	orrs	r3, r2
1000b5b4:	604b      	str	r3, [r1, #4]
1000b5b6:	508a      	str	r2, [r1, r2]
1000b5b8:	e798      	b.n	1000b4ec <_free_r+0xa8>
1000b5ba:	24aa      	movs	r4, #170	; 0xaa
1000b5bc:	0064      	lsls	r4, r4, #1
1000b5be:	42a3      	cmp	r3, r4
1000b5c0:	d805      	bhi.n	1000b5ce <_free_r+0x18a>
1000b5c2:	0bd4      	lsrs	r4, r2, #15
1000b5c4:	0026      	movs	r6, r4
1000b5c6:	3478      	adds	r4, #120	; 0x78
1000b5c8:	3677      	adds	r6, #119	; 0x77
1000b5ca:	00e4      	lsls	r4, r4, #3
1000b5cc:	e79c      	b.n	1000b508 <_free_r+0xc4>
1000b5ce:	4c0d      	ldr	r4, [pc, #52]	; (1000b604 <_free_r+0x1c0>)
1000b5d0:	42a3      	cmp	r3, r4
1000b5d2:	d805      	bhi.n	1000b5e0 <_free_r+0x19c>
1000b5d4:	0c94      	lsrs	r4, r2, #18
1000b5d6:	0026      	movs	r6, r4
1000b5d8:	347d      	adds	r4, #125	; 0x7d
1000b5da:	367c      	adds	r6, #124	; 0x7c
1000b5dc:	00e4      	lsls	r4, r4, #3
1000b5de:	e793      	b.n	1000b508 <_free_r+0xc4>
1000b5e0:	24fe      	movs	r4, #254	; 0xfe
1000b5e2:	267e      	movs	r6, #126	; 0x7e
1000b5e4:	00a4      	lsls	r4, r4, #2
1000b5e6:	e78f      	b.n	1000b508 <_free_r+0xc4>
1000b5e8:	0033      	movs	r3, r6
1000b5ea:	4313      	orrs	r3, r2
1000b5ec:	604b      	str	r3, [r1, #4]
1000b5ee:	603a      	str	r2, [r7, #0]
1000b5f0:	e77c      	b.n	1000b4ec <_free_r+0xa8>
1000b5f2:	46c0      	nop			; (mov r8, r8)
1000b5f4:	20000e60 	.word	0x20000e60
1000b5f8:	20000e68 	.word	0x20000e68
1000b5fc:	20000e5c 	.word	0x20000e5c
1000b600:	2000140c 	.word	0x2000140c
1000b604:	00000554 	.word	0x00000554

1000b608 <_fwalk>:
1000b608:	b5f0      	push	{r4, r5, r6, r7, lr}
1000b60a:	46c6      	mov	lr, r8
1000b60c:	23b8      	movs	r3, #184	; 0xb8
1000b60e:	4688      	mov	r8, r1
1000b610:	2600      	movs	r6, #0
1000b612:	b500      	push	{lr}
1000b614:	009b      	lsls	r3, r3, #2
1000b616:	18c7      	adds	r7, r0, r3
1000b618:	687b      	ldr	r3, [r7, #4]
1000b61a:	68bc      	ldr	r4, [r7, #8]
1000b61c:	1e5d      	subs	r5, r3, #1
1000b61e:	d40c      	bmi.n	1000b63a <_fwalk+0x32>
1000b620:	89a3      	ldrh	r3, [r4, #12]
1000b622:	2b01      	cmp	r3, #1
1000b624:	d906      	bls.n	1000b634 <_fwalk+0x2c>
1000b626:	220e      	movs	r2, #14
1000b628:	5ea3      	ldrsh	r3, [r4, r2]
1000b62a:	3301      	adds	r3, #1
1000b62c:	d002      	beq.n	1000b634 <_fwalk+0x2c>
1000b62e:	0020      	movs	r0, r4
1000b630:	47c0      	blx	r8
1000b632:	4306      	orrs	r6, r0
1000b634:	3468      	adds	r4, #104	; 0x68
1000b636:	3d01      	subs	r5, #1
1000b638:	d2f2      	bcs.n	1000b620 <_fwalk+0x18>
1000b63a:	683f      	ldr	r7, [r7, #0]
1000b63c:	2f00      	cmp	r7, #0
1000b63e:	d1eb      	bne.n	1000b618 <_fwalk+0x10>
1000b640:	0030      	movs	r0, r6
1000b642:	bc80      	pop	{r7}
1000b644:	46b8      	mov	r8, r7
1000b646:	bdf0      	pop	{r4, r5, r6, r7, pc}

1000b648 <_fwalk_reent>:
1000b648:	b5f8      	push	{r3, r4, r5, r6, r7, lr}
1000b64a:	4647      	mov	r7, r8
1000b64c:	46ce      	mov	lr, r9
1000b64e:	b580      	push	{r7, lr}
1000b650:	27b8      	movs	r7, #184	; 0xb8
1000b652:	4680      	mov	r8, r0
1000b654:	4689      	mov	r9, r1
1000b656:	2600      	movs	r6, #0
1000b658:	00bf      	lsls	r7, r7, #2
1000b65a:	4447      	add	r7, r8
1000b65c:	687b      	ldr	r3, [r7, #4]
1000b65e:	68bc      	ldr	r4, [r7, #8]
1000b660:	1e5d      	subs	r5, r3, #1
1000b662:	d40d      	bmi.n	1000b680 <_fwalk_reent+0x38>
1000b664:	89a3      	ldrh	r3, [r4, #12]
1000b666:	2b01      	cmp	r3, #1
1000b668:	d907      	bls.n	1000b67a <_fwalk_reent+0x32>
1000b66a:	220e      	movs	r2, #14
1000b66c:	5ea3      	ldrsh	r3, [r4, r2]
1000b66e:	3301      	adds	r3, #1
1000b670:	d003      	beq.n	1000b67a <_fwalk_reent+0x32>
1000b672:	0021      	movs	r1, r4
1000b674:	4640      	mov	r0, r8
1000b676:	47c8      	blx	r9
1000b678:	4306      	orrs	r6, r0
1000b67a:	3468      	adds	r4, #104	; 0x68
1000b67c:	3d01      	subs	r5, #1
1000b67e:	d2f1      	bcs.n	1000b664 <_fwalk_reent+0x1c>
1000b680:	683f      	ldr	r7, [r7, #0]
1000b682:	2f00      	cmp	r7, #0
1000b684:	d1ea      	bne.n	1000b65c <_fwalk_reent+0x14>
1000b686:	0030      	movs	r0, r6
1000b688:	bcc0      	pop	{r6, r7}
1000b68a:	46b9      	mov	r9, r7
1000b68c:	46b0      	mov	r8, r6
1000b68e:	bdf8      	pop	{r3, r4, r5, r6, r7, pc}

1000b690 <__smakebuf_r>:
1000b690:	b5f0      	push	{r4, r5, r6, r7, lr}
1000b692:	46c6      	mov	lr, r8
1000b694:	b500      	push	{lr}
1000b696:	898b      	ldrh	r3, [r1, #12]
1000b698:	0005      	movs	r5, r0
1000b69a:	000c      	movs	r4, r1
1000b69c:	b096      	sub	sp, #88	; 0x58
1000b69e:	079a      	lsls	r2, r3, #30
1000b6a0:	d509      	bpl.n	1000b6b6 <__smakebuf_r+0x26>
1000b6a2:	0023      	movs	r3, r4
1000b6a4:	3343      	adds	r3, #67	; 0x43
1000b6a6:	6023      	str	r3, [r4, #0]
1000b6a8:	6123      	str	r3, [r4, #16]
1000b6aa:	2301      	movs	r3, #1
1000b6ac:	6163      	str	r3, [r4, #20]
1000b6ae:	b016      	add	sp, #88	; 0x58
1000b6b0:	bc80      	pop	{r7}
1000b6b2:	46b8      	mov	r8, r7
1000b6b4:	bdf0      	pop	{r4, r5, r6, r7, pc}
1000b6b6:	220e      	movs	r2, #14
1000b6b8:	5e89      	ldrsh	r1, [r1, r2]
1000b6ba:	2900      	cmp	r1, #0
1000b6bc:	db29      	blt.n	1000b712 <__smakebuf_r+0x82>
1000b6be:	466a      	mov	r2, sp
1000b6c0:	f000 f974 	bl	1000b9ac <_fstat_r>
1000b6c4:	2800      	cmp	r0, #0
1000b6c6:	db23      	blt.n	1000b710 <__smakebuf_r+0x80>
1000b6c8:	23f0      	movs	r3, #240	; 0xf0
1000b6ca:	9f01      	ldr	r7, [sp, #4]
1000b6cc:	021b      	lsls	r3, r3, #8
1000b6ce:	401f      	ands	r7, r3
1000b6d0:	4b26      	ldr	r3, [pc, #152]	; (1000b76c <__smakebuf_r+0xdc>)
1000b6d2:	2680      	movs	r6, #128	; 0x80
1000b6d4:	469c      	mov	ip, r3
1000b6d6:	4467      	add	r7, ip
1000b6d8:	427b      	negs	r3, r7
1000b6da:	415f      	adcs	r7, r3
1000b6dc:	2380      	movs	r3, #128	; 0x80
1000b6de:	00db      	lsls	r3, r3, #3
1000b6e0:	4698      	mov	r8, r3
1000b6e2:	0136      	lsls	r6, r6, #4
1000b6e4:	4641      	mov	r1, r8
1000b6e6:	0028      	movs	r0, r5
1000b6e8:	f7fe ff7a 	bl	1000a5e0 <_malloc_r>
1000b6ec:	2800      	cmp	r0, #0
1000b6ee:	d01c      	beq.n	1000b72a <__smakebuf_r+0x9a>
1000b6f0:	2280      	movs	r2, #128	; 0x80
1000b6f2:	4b1f      	ldr	r3, [pc, #124]	; (1000b770 <__smakebuf_r+0xe0>)
1000b6f4:	63eb      	str	r3, [r5, #60]	; 0x3c
1000b6f6:	89a3      	ldrh	r3, [r4, #12]
1000b6f8:	6020      	str	r0, [r4, #0]
1000b6fa:	4313      	orrs	r3, r2
1000b6fc:	4642      	mov	r2, r8
1000b6fe:	b21b      	sxth	r3, r3
1000b700:	81a3      	strh	r3, [r4, #12]
1000b702:	6120      	str	r0, [r4, #16]
1000b704:	6162      	str	r2, [r4, #20]
1000b706:	2f00      	cmp	r7, #0
1000b708:	d11e      	bne.n	1000b748 <__smakebuf_r+0xb8>
1000b70a:	4333      	orrs	r3, r6
1000b70c:	81a3      	strh	r3, [r4, #12]
1000b70e:	e7ce      	b.n	1000b6ae <__smakebuf_r+0x1e>
1000b710:	89a3      	ldrh	r3, [r4, #12]
1000b712:	2700      	movs	r7, #0
1000b714:	061b      	lsls	r3, r3, #24
1000b716:	d512      	bpl.n	1000b73e <__smakebuf_r+0xae>
1000b718:	2340      	movs	r3, #64	; 0x40
1000b71a:	4698      	mov	r8, r3
1000b71c:	0028      	movs	r0, r5
1000b71e:	4641      	mov	r1, r8
1000b720:	2600      	movs	r6, #0
1000b722:	f7fe ff5d 	bl	1000a5e0 <_malloc_r>
1000b726:	2800      	cmp	r0, #0
1000b728:	d1e2      	bne.n	1000b6f0 <__smakebuf_r+0x60>
1000b72a:	220c      	movs	r2, #12
1000b72c:	5ea3      	ldrsh	r3, [r4, r2]
1000b72e:	059a      	lsls	r2, r3, #22
1000b730:	d4bd      	bmi.n	1000b6ae <__smakebuf_r+0x1e>
1000b732:	2203      	movs	r2, #3
1000b734:	4393      	bics	r3, r2
1000b736:	2202      	movs	r2, #2
1000b738:	4313      	orrs	r3, r2
1000b73a:	81a3      	strh	r3, [r4, #12]
1000b73c:	e7b1      	b.n	1000b6a2 <__smakebuf_r+0x12>
1000b73e:	2380      	movs	r3, #128	; 0x80
1000b740:	00db      	lsls	r3, r3, #3
1000b742:	4698      	mov	r8, r3
1000b744:	2600      	movs	r6, #0
1000b746:	e7cd      	b.n	1000b6e4 <__smakebuf_r+0x54>
1000b748:	0028      	movs	r0, r5
1000b74a:	230e      	movs	r3, #14
1000b74c:	5ee1      	ldrsh	r1, [r4, r3]
1000b74e:	f000 f941 	bl	1000b9d4 <_isatty_r>
1000b752:	2800      	cmp	r0, #0
1000b754:	d102      	bne.n	1000b75c <__smakebuf_r+0xcc>
1000b756:	220c      	movs	r2, #12
1000b758:	5ea3      	ldrsh	r3, [r4, r2]
1000b75a:	e7d6      	b.n	1000b70a <__smakebuf_r+0x7a>
1000b75c:	2203      	movs	r2, #3
1000b75e:	89a3      	ldrh	r3, [r4, #12]
1000b760:	4393      	bics	r3, r2
1000b762:	2201      	movs	r2, #1
1000b764:	4313      	orrs	r3, r2
1000b766:	b21b      	sxth	r3, r3
1000b768:	e7cf      	b.n	1000b70a <__smakebuf_r+0x7a>
1000b76a:	46c0      	nop			; (mov r8, r8)
1000b76c:	ffffe000 	.word	0xffffe000
1000b770:	1000b165 	.word	0x1000b165

1000b774 <__swhatbuf_r>:
1000b774:	b570      	push	{r4, r5, r6, lr}
1000b776:	000c      	movs	r4, r1
1000b778:	001e      	movs	r6, r3
1000b77a:	230e      	movs	r3, #14
1000b77c:	5ec9      	ldrsh	r1, [r1, r3]
1000b77e:	0015      	movs	r5, r2
1000b780:	b096      	sub	sp, #88	; 0x58
1000b782:	2900      	cmp	r1, #0
1000b784:	db15      	blt.n	1000b7b2 <__swhatbuf_r+0x3e>
1000b786:	466a      	mov	r2, sp
1000b788:	f000 f910 	bl	1000b9ac <_fstat_r>
1000b78c:	2800      	cmp	r0, #0
1000b78e:	db10      	blt.n	1000b7b2 <__swhatbuf_r+0x3e>
1000b790:	22f0      	movs	r2, #240	; 0xf0
1000b792:	9b01      	ldr	r3, [sp, #4]
1000b794:	0212      	lsls	r2, r2, #8
1000b796:	4013      	ands	r3, r2
1000b798:	4a0d      	ldr	r2, [pc, #52]	; (1000b7d0 <__swhatbuf_r+0x5c>)
1000b79a:	2080      	movs	r0, #128	; 0x80
1000b79c:	4694      	mov	ip, r2
1000b79e:	4463      	add	r3, ip
1000b7a0:	425a      	negs	r2, r3
1000b7a2:	4153      	adcs	r3, r2
1000b7a4:	6033      	str	r3, [r6, #0]
1000b7a6:	2380      	movs	r3, #128	; 0x80
1000b7a8:	00db      	lsls	r3, r3, #3
1000b7aa:	602b      	str	r3, [r5, #0]
1000b7ac:	0100      	lsls	r0, r0, #4
1000b7ae:	b016      	add	sp, #88	; 0x58
1000b7b0:	bd70      	pop	{r4, r5, r6, pc}
1000b7b2:	220c      	movs	r2, #12
1000b7b4:	5ea3      	ldrsh	r3, [r4, r2]
1000b7b6:	2200      	movs	r2, #0
1000b7b8:	6032      	str	r2, [r6, #0]
1000b7ba:	061b      	lsls	r3, r3, #24
1000b7bc:	d503      	bpl.n	1000b7c6 <__swhatbuf_r+0x52>
1000b7be:	2340      	movs	r3, #64	; 0x40
1000b7c0:	2000      	movs	r0, #0
1000b7c2:	602b      	str	r3, [r5, #0]
1000b7c4:	e7f3      	b.n	1000b7ae <__swhatbuf_r+0x3a>
1000b7c6:	2380      	movs	r3, #128	; 0x80
1000b7c8:	00db      	lsls	r3, r3, #3
1000b7ca:	2000      	movs	r0, #0
1000b7cc:	602b      	str	r3, [r5, #0]
1000b7ce:	e7ee      	b.n	1000b7ae <__swhatbuf_r+0x3a>
1000b7d0:	ffffe000 	.word	0xffffe000

1000b7d4 <__sread>:
1000b7d4:	b570      	push	{r4, r5, r6, lr}
1000b7d6:	000c      	movs	r4, r1
1000b7d8:	250e      	movs	r5, #14
1000b7da:	5f49      	ldrsh	r1, [r1, r5]
1000b7dc:	f000 f920 	bl	1000ba20 <_read_r>
1000b7e0:	2800      	cmp	r0, #0
1000b7e2:	db03      	blt.n	1000b7ec <__sread+0x18>
1000b7e4:	6d23      	ldr	r3, [r4, #80]	; 0x50
1000b7e6:	181b      	adds	r3, r3, r0
1000b7e8:	6523      	str	r3, [r4, #80]	; 0x50
1000b7ea:	bd70      	pop	{r4, r5, r6, pc}
1000b7ec:	89a3      	ldrh	r3, [r4, #12]
1000b7ee:	4a02      	ldr	r2, [pc, #8]	; (1000b7f8 <__sread+0x24>)
1000b7f0:	4013      	ands	r3, r2
1000b7f2:	81a3      	strh	r3, [r4, #12]
1000b7f4:	e7f9      	b.n	1000b7ea <__sread+0x16>
1000b7f6:	46c0      	nop			; (mov r8, r8)
1000b7f8:	ffffefff 	.word	0xffffefff

1000b7fc <__seofread>:
1000b7fc:	2000      	movs	r0, #0
1000b7fe:	4770      	bx	lr

1000b800 <__swrite>:
1000b800:	b5f8      	push	{r3, r4, r5, r6, r7, lr}
1000b802:	000c      	movs	r4, r1
1000b804:	001f      	movs	r7, r3
1000b806:	230c      	movs	r3, #12
1000b808:	5ec9      	ldrsh	r1, [r1, r3]
1000b80a:	0005      	movs	r5, r0
1000b80c:	0016      	movs	r6, r2
1000b80e:	05cb      	lsls	r3, r1, #23
1000b810:	d40a      	bmi.n	1000b828 <__swrite+0x28>
1000b812:	4b0a      	ldr	r3, [pc, #40]	; (1000b83c <__swrite+0x3c>)
1000b814:	0032      	movs	r2, r6
1000b816:	4019      	ands	r1, r3
1000b818:	0028      	movs	r0, r5
1000b81a:	81a1      	strh	r1, [r4, #12]
1000b81c:	230e      	movs	r3, #14
1000b81e:	5ee1      	ldrsh	r1, [r4, r3]
1000b820:	003b      	movs	r3, r7
1000b822:	f000 f829 	bl	1000b878 <_write_r>
1000b826:	bdf8      	pop	{r3, r4, r5, r6, r7, pc}
1000b828:	230e      	movs	r3, #14
1000b82a:	5ee1      	ldrsh	r1, [r4, r3]
1000b82c:	2200      	movs	r2, #0
1000b82e:	2302      	movs	r3, #2
1000b830:	f000 f8e2 	bl	1000b9f8 <_lseek_r>
1000b834:	230c      	movs	r3, #12
1000b836:	5ee1      	ldrsh	r1, [r4, r3]
1000b838:	e7eb      	b.n	1000b812 <__swrite+0x12>
1000b83a:	46c0      	nop			; (mov r8, r8)
1000b83c:	ffffefff 	.word	0xffffefff

1000b840 <__sseek>:
1000b840:	b570      	push	{r4, r5, r6, lr}
1000b842:	000c      	movs	r4, r1
1000b844:	250e      	movs	r5, #14
1000b846:	5f49      	ldrsh	r1, [r1, r5]
1000b848:	f000 f8d6 	bl	1000b9f8 <_lseek_r>
1000b84c:	1c43      	adds	r3, r0, #1
1000b84e:	d006      	beq.n	1000b85e <__sseek+0x1e>
1000b850:	2380      	movs	r3, #128	; 0x80
1000b852:	89a2      	ldrh	r2, [r4, #12]
1000b854:	015b      	lsls	r3, r3, #5
1000b856:	4313      	orrs	r3, r2
1000b858:	81a3      	strh	r3, [r4, #12]
1000b85a:	6520      	str	r0, [r4, #80]	; 0x50
1000b85c:	bd70      	pop	{r4, r5, r6, pc}
1000b85e:	89a3      	ldrh	r3, [r4, #12]
1000b860:	4a01      	ldr	r2, [pc, #4]	; (1000b868 <__sseek+0x28>)
1000b862:	4013      	ands	r3, r2
1000b864:	81a3      	strh	r3, [r4, #12]
1000b866:	e7f9      	b.n	1000b85c <__sseek+0x1c>
1000b868:	ffffefff 	.word	0xffffefff

1000b86c <__sclose>:
1000b86c:	b510      	push	{r4, lr}
1000b86e:	230e      	movs	r3, #14
1000b870:	5ec9      	ldrsh	r1, [r1, r3]
1000b872:	f000 f815 	bl	1000b8a0 <_close_r>
1000b876:	bd10      	pop	{r4, pc}

1000b878 <_write_r>:
1000b878:	b570      	push	{r4, r5, r6, lr}
1000b87a:	0004      	movs	r4, r0
1000b87c:	0008      	movs	r0, r1
1000b87e:	0011      	movs	r1, r2
1000b880:	001a      	movs	r2, r3
1000b882:	2300      	movs	r3, #0
1000b884:	4d05      	ldr	r5, [pc, #20]	; (1000b89c <_write_r+0x24>)
1000b886:	602b      	str	r3, [r5, #0]
1000b888:	f7fb fd4a 	bl	10007320 <_write>
1000b88c:	1c43      	adds	r3, r0, #1
1000b88e:	d000      	beq.n	1000b892 <_write_r+0x1a>
1000b890:	bd70      	pop	{r4, r5, r6, pc}
1000b892:	682b      	ldr	r3, [r5, #0]
1000b894:	2b00      	cmp	r3, #0
1000b896:	d0fb      	beq.n	1000b890 <_write_r+0x18>
1000b898:	6023      	str	r3, [r4, #0]
1000b89a:	e7f9      	b.n	1000b890 <_write_r+0x18>
1000b89c:	20001440 	.word	0x20001440

1000b8a0 <_close_r>:
1000b8a0:	2300      	movs	r3, #0
1000b8a2:	b570      	push	{r4, r5, r6, lr}
1000b8a4:	4d06      	ldr	r5, [pc, #24]	; (1000b8c0 <_close_r+0x20>)
1000b8a6:	0004      	movs	r4, r0
1000b8a8:	0008      	movs	r0, r1
1000b8aa:	602b      	str	r3, [r5, #0]
1000b8ac:	f7fb fd49 	bl	10007342 <_close>
1000b8b0:	1c43      	adds	r3, r0, #1
1000b8b2:	d000      	beq.n	1000b8b6 <_close_r+0x16>
1000b8b4:	bd70      	pop	{r4, r5, r6, pc}
1000b8b6:	682b      	ldr	r3, [r5, #0]
1000b8b8:	2b00      	cmp	r3, #0
1000b8ba:	d0fb      	beq.n	1000b8b4 <_close_r+0x14>
1000b8bc:	6023      	str	r3, [r4, #0]
1000b8be:	e7f9      	b.n	1000b8b4 <_close_r+0x14>
1000b8c0:	20001440 	.word	0x20001440

1000b8c4 <_fclose_r.part.0>:
1000b8c4:	b570      	push	{r4, r5, r6, lr}
1000b8c6:	000c      	movs	r4, r1
1000b8c8:	0005      	movs	r5, r0
1000b8ca:	f7ff fb69 	bl	1000afa0 <__sflush_r>
1000b8ce:	6ae3      	ldr	r3, [r4, #44]	; 0x2c
1000b8d0:	0006      	movs	r6, r0
1000b8d2:	2b00      	cmp	r3, #0
1000b8d4:	d004      	beq.n	1000b8e0 <_fclose_r.part.0+0x1c>
1000b8d6:	0028      	movs	r0, r5
1000b8d8:	69e1      	ldr	r1, [r4, #28]
1000b8da:	4798      	blx	r3
1000b8dc:	2800      	cmp	r0, #0
1000b8de:	db1e      	blt.n	1000b91e <_fclose_r.part.0+0x5a>
1000b8e0:	89a3      	ldrh	r3, [r4, #12]
1000b8e2:	061b      	lsls	r3, r3, #24
1000b8e4:	d420      	bmi.n	1000b928 <_fclose_r.part.0+0x64>
1000b8e6:	6b21      	ldr	r1, [r4, #48]	; 0x30
1000b8e8:	2900      	cmp	r1, #0
1000b8ea:	d008      	beq.n	1000b8fe <_fclose_r.part.0+0x3a>
1000b8ec:	0023      	movs	r3, r4
1000b8ee:	3340      	adds	r3, #64	; 0x40
1000b8f0:	4299      	cmp	r1, r3
1000b8f2:	d002      	beq.n	1000b8fa <_fclose_r.part.0+0x36>
1000b8f4:	0028      	movs	r0, r5
1000b8f6:	f7ff fda5 	bl	1000b444 <_free_r>
1000b8fa:	2300      	movs	r3, #0
1000b8fc:	6323      	str	r3, [r4, #48]	; 0x30
1000b8fe:	6c61      	ldr	r1, [r4, #68]	; 0x44
1000b900:	2900      	cmp	r1, #0
1000b902:	d004      	beq.n	1000b90e <_fclose_r.part.0+0x4a>
1000b904:	0028      	movs	r0, r5
1000b906:	f7ff fd9d 	bl	1000b444 <_free_r>
1000b90a:	2300      	movs	r3, #0
1000b90c:	6463      	str	r3, [r4, #68]	; 0x44
1000b90e:	f7ff fd2b 	bl	1000b368 <__sfp_lock_acquire>
1000b912:	2300      	movs	r3, #0
1000b914:	81a3      	strh	r3, [r4, #12]
1000b916:	f7ff fd29 	bl	1000b36c <__sfp_lock_release>
1000b91a:	0030      	movs	r0, r6
1000b91c:	bd70      	pop	{r4, r5, r6, pc}
1000b91e:	2601      	movs	r6, #1
1000b920:	89a3      	ldrh	r3, [r4, #12]
1000b922:	4276      	negs	r6, r6
1000b924:	061b      	lsls	r3, r3, #24
1000b926:	d5de      	bpl.n	1000b8e6 <_fclose_r.part.0+0x22>
1000b928:	0028      	movs	r0, r5
1000b92a:	6921      	ldr	r1, [r4, #16]
1000b92c:	f7ff fd8a 	bl	1000b444 <_free_r>
1000b930:	e7d9      	b.n	1000b8e6 <_fclose_r.part.0+0x22>
1000b932:	46c0      	nop			; (mov r8, r8)

1000b934 <_fclose_r>:
1000b934:	b570      	push	{r4, r5, r6, lr}
1000b936:	0005      	movs	r5, r0
1000b938:	1e0c      	subs	r4, r1, #0
1000b93a:	d008      	beq.n	1000b94e <_fclose_r+0x1a>
1000b93c:	2800      	cmp	r0, #0
1000b93e:	d002      	beq.n	1000b946 <_fclose_r+0x12>
1000b940:	6b83      	ldr	r3, [r0, #56]	; 0x38
1000b942:	2b00      	cmp	r3, #0
1000b944:	d00a      	beq.n	1000b95c <_fclose_r+0x28>
1000b946:	220c      	movs	r2, #12
1000b948:	5ea3      	ldrsh	r3, [r4, r2]
1000b94a:	2b00      	cmp	r3, #0
1000b94c:	d101      	bne.n	1000b952 <_fclose_r+0x1e>
1000b94e:	2000      	movs	r0, #0
1000b950:	bd70      	pop	{r4, r5, r6, pc}
1000b952:	0021      	movs	r1, r4
1000b954:	0028      	movs	r0, r5
1000b956:	f7ff ffb5 	bl	1000b8c4 <_fclose_r.part.0>
1000b95a:	e7f9      	b.n	1000b950 <_fclose_r+0x1c>
1000b95c:	f7ff fcfc 	bl	1000b358 <__sinit>
1000b960:	220c      	movs	r2, #12
1000b962:	5ea3      	ldrsh	r3, [r4, r2]
1000b964:	2b00      	cmp	r3, #0
1000b966:	d0f2      	beq.n	1000b94e <_fclose_r+0x1a>
1000b968:	e7f3      	b.n	1000b952 <_fclose_r+0x1e>
1000b96a:	46c0      	nop			; (mov r8, r8)

1000b96c <fclose>:
1000b96c:	b570      	push	{r4, r5, r6, lr}
1000b96e:	1e04      	subs	r4, r0, #0
1000b970:	d00a      	beq.n	1000b988 <fclose+0x1c>
1000b972:	4b0d      	ldr	r3, [pc, #52]	; (1000b9a8 <fclose+0x3c>)
1000b974:	681d      	ldr	r5, [r3, #0]
1000b976:	2d00      	cmp	r5, #0
1000b978:	d002      	beq.n	1000b980 <fclose+0x14>
1000b97a:	6bab      	ldr	r3, [r5, #56]	; 0x38
1000b97c:	2b00      	cmp	r3, #0
1000b97e:	d00a      	beq.n	1000b996 <fclose+0x2a>
1000b980:	220c      	movs	r2, #12
1000b982:	5ea3      	ldrsh	r3, [r4, r2]
1000b984:	2b00      	cmp	r3, #0
1000b986:	d101      	bne.n	1000b98c <fclose+0x20>
1000b988:	2000      	movs	r0, #0
1000b98a:	bd70      	pop	{r4, r5, r6, pc}
1000b98c:	0021      	movs	r1, r4
1000b98e:	0028      	movs	r0, r5
1000b990:	f7ff ff98 	bl	1000b8c4 <_fclose_r.part.0>
1000b994:	e7f9      	b.n	1000b98a <fclose+0x1e>
1000b996:	0028      	movs	r0, r5
1000b998:	f7ff fcde 	bl	1000b358 <__sinit>
1000b99c:	220c      	movs	r2, #12
1000b99e:	5ea3      	ldrsh	r3, [r4, r2]
1000b9a0:	2b00      	cmp	r3, #0
1000b9a2:	d0f1      	beq.n	1000b988 <fclose+0x1c>
1000b9a4:	e7f2      	b.n	1000b98c <fclose+0x20>
1000b9a6:	46c0      	nop			; (mov r8, r8)
1000b9a8:	20000a28 	.word	0x20000a28

1000b9ac <_fstat_r>:
1000b9ac:	2300      	movs	r3, #0
1000b9ae:	b570      	push	{r4, r5, r6, lr}
1000b9b0:	4d07      	ldr	r5, [pc, #28]	; (1000b9d0 <_fstat_r+0x24>)
1000b9b2:	0004      	movs	r4, r0
1000b9b4:	0008      	movs	r0, r1
1000b9b6:	0011      	movs	r1, r2
1000b9b8:	602b      	str	r3, [r5, #0]
1000b9ba:	f7fb fcc8 	bl	1000734e <_fstat>
1000b9be:	1c43      	adds	r3, r0, #1
1000b9c0:	d000      	beq.n	1000b9c4 <_fstat_r+0x18>
1000b9c2:	bd70      	pop	{r4, r5, r6, pc}
1000b9c4:	682b      	ldr	r3, [r5, #0]
1000b9c6:	2b00      	cmp	r3, #0
1000b9c8:	d0fb      	beq.n	1000b9c2 <_fstat_r+0x16>
1000b9ca:	6023      	str	r3, [r4, #0]
1000b9cc:	e7f9      	b.n	1000b9c2 <_fstat_r+0x16>
1000b9ce:	46c0      	nop			; (mov r8, r8)
1000b9d0:	20001440 	.word	0x20001440

1000b9d4 <_isatty_r>:
1000b9d4:	2300      	movs	r3, #0
1000b9d6:	b570      	push	{r4, r5, r6, lr}
1000b9d8:	4d06      	ldr	r5, [pc, #24]	; (1000b9f4 <_isatty_r+0x20>)
1000b9da:	0004      	movs	r4, r0
1000b9dc:	0008      	movs	r0, r1
1000b9de:	602b      	str	r3, [r5, #0]
1000b9e0:	f7fb fcb8 	bl	10007354 <_isatty>
1000b9e4:	1c43      	adds	r3, r0, #1
1000b9e6:	d000      	beq.n	1000b9ea <_isatty_r+0x16>
1000b9e8:	bd70      	pop	{r4, r5, r6, pc}
1000b9ea:	682b      	ldr	r3, [r5, #0]
1000b9ec:	2b00      	cmp	r3, #0
1000b9ee:	d0fb      	beq.n	1000b9e8 <_isatty_r+0x14>
1000b9f0:	6023      	str	r3, [r4, #0]
1000b9f2:	e7f9      	b.n	1000b9e8 <_isatty_r+0x14>
1000b9f4:	20001440 	.word	0x20001440

1000b9f8 <_lseek_r>:
1000b9f8:	b570      	push	{r4, r5, r6, lr}
1000b9fa:	0004      	movs	r4, r0
1000b9fc:	0008      	movs	r0, r1
1000b9fe:	0011      	movs	r1, r2
1000ba00:	001a      	movs	r2, r3
1000ba02:	2300      	movs	r3, #0
1000ba04:	4d05      	ldr	r5, [pc, #20]	; (1000ba1c <_lseek_r+0x24>)
1000ba06:	602b      	str	r3, [r5, #0]
1000ba08:	f7fb fc9e 	bl	10007348 <_lseek>
1000ba0c:	1c43      	adds	r3, r0, #1
1000ba0e:	d000      	beq.n	1000ba12 <_lseek_r+0x1a>
1000ba10:	bd70      	pop	{r4, r5, r6, pc}
1000ba12:	682b      	ldr	r3, [r5, #0]
1000ba14:	2b00      	cmp	r3, #0
1000ba16:	d0fb      	beq.n	1000ba10 <_lseek_r+0x18>
1000ba18:	6023      	str	r3, [r4, #0]
1000ba1a:	e7f9      	b.n	1000ba10 <_lseek_r+0x18>
1000ba1c:	20001440 	.word	0x20001440

1000ba20 <_read_r>:
1000ba20:	b570      	push	{r4, r5, r6, lr}
1000ba22:	0004      	movs	r4, r0
1000ba24:	0008      	movs	r0, r1
1000ba26:	0011      	movs	r1, r2
1000ba28:	001a      	movs	r2, r3
1000ba2a:	2300      	movs	r3, #0
1000ba2c:	4d05      	ldr	r5, [pc, #20]	; (1000ba44 <_read_r+0x24>)
1000ba2e:	602b      	str	r3, [r5, #0]
1000ba30:	f7fb fc64 	bl	100072fc <_read>
1000ba34:	1c43      	adds	r3, r0, #1
1000ba36:	d000      	beq.n	1000ba3a <_read_r+0x1a>
1000ba38:	bd70      	pop	{r4, r5, r6, pc}
1000ba3a:	682b      	ldr	r3, [r5, #0]
1000ba3c:	2b00      	cmp	r3, #0
1000ba3e:	d0fb      	beq.n	1000ba38 <_read_r+0x18>
1000ba40:	6023      	str	r3, [r4, #0]
1000ba42:	e7f9      	b.n	1000ba38 <_read_r+0x18>
1000ba44:	20001440 	.word	0x20001440

1000ba48 <_fini>:
1000ba48:	b5f8      	push	{r3, r4, r5, r6, r7, lr}
1000ba4a:	46c0      	nop			; (mov r8, r8)
1000ba4c:	0000      	movs	r0, r0
	...

1000ba50 <__flash_do_cmd_veneer>:
1000ba50:	b401      	push	{r0}
1000ba52:	4802      	ldr	r0, [pc, #8]	; (1000ba5c <__flash_do_cmd_veneer+0xc>)
1000ba54:	4684      	mov	ip, r0
1000ba56:	bc01      	pop	{r0}
1000ba58:	4760      	bx	ip
1000ba5a:	bf00      	nop
1000ba5c:	200002b9 	.word	0x200002b9

1000ba60 <__mutex_exit_veneer>:
1000ba60:	b401      	push	{r0}
1000ba62:	4802      	ldr	r0, [pc, #8]	; (1000ba6c <__mutex_exit_veneer+0xc>)
1000ba64:	4684      	mov	ip, r0
1000ba66:	bc01      	pop	{r0}
1000ba68:	4760      	bx	ip
1000ba6a:	bf00      	nop
1000ba6c:	20000205 	.word	0x20000205

1000ba70 <____aeabi_ldiv0_veneer>:
1000ba70:	b401      	push	{r0}
1000ba72:	4802      	ldr	r0, [pc, #8]	; (1000ba7c <____aeabi_ldiv0_veneer+0xc>)
1000ba74:	4684      	mov	ip, r0
1000ba76:	bc01      	pop	{r0}
1000ba78:	4760      	bx	ip
1000ba7a:	bf00      	nop
1000ba7c:	200008b9 	.word	0x200008b9

1000ba80 <__e15_is_bulkin_ep_veneer>:
1000ba80:	b401      	push	{r0}
1000ba82:	4802      	ldr	r0, [pc, #8]	; (1000ba8c <__e15_is_bulkin_ep_veneer+0xc>)
1000ba84:	4684      	mov	ip, r0
1000ba86:	bc01      	pop	{r0}
1000ba88:	4760      	bx	ip
1000ba8a:	bf00      	nop
1000ba8c:	20000601 	.word	0x20000601

1000ba90 <__e15_is_critical_frame_period_veneer>:
1000ba90:	b401      	push	{r0}
1000ba92:	4802      	ldr	r0, [pc, #8]	; (1000ba9c <__e15_is_critical_frame_period_veneer+0xc>)
1000ba94:	4684      	mov	ip, r0
1000ba96:	bc01      	pop	{r0}
1000ba98:	4760      	bx	ip
1000ba9a:	bf00      	nop
1000ba9c:	2000062d 	.word	0x2000062d

1000baa0 <____aeabi_idiv0_veneer>:
1000baa0:	b401      	push	{r0}
1000baa2:	4802      	ldr	r0, [pc, #8]	; (1000baac <____aeabi_idiv0_veneer+0xc>)
1000baa4:	4684      	mov	ip, r0
1000baa6:	bc01      	pop	{r0}
1000baa8:	4760      	bx	ip
1000baaa:	bf00      	nop
1000baac:	200008b9 	.word	0x200008b9

1000bab0 <__mutex_enter_timeout_ms_veneer>:
1000bab0:	b401      	push	{r0}
1000bab2:	4802      	ldr	r0, [pc, #8]	; (1000babc <__mutex_enter_timeout_ms_veneer+0xc>)
1000bab4:	4684      	mov	ip, r0
1000bab6:	bc01      	pop	{r0}
1000bab8:	4760      	bx	ip
1000baba:	bf00      	nop
1000babc:	200001c9 	.word	0x200001c9

1000bac0 <__mutex_try_enter_block_until_veneer>:
1000bac0:	b401      	push	{r0}
1000bac2:	4802      	ldr	r0, [pc, #8]	; (1000bacc <__mutex_try_enter_block_until_veneer+0xc>)
1000bac4:	4684      	mov	ip, r0
1000bac6:	bc01      	pop	{r0}
1000bac8:	4760      	bx	ip
1000baca:	bf00      	nop
1000bacc:	20000195 	.word	0x20000195

1000bad0 <__hcd_event_handler_veneer>:
1000bad0:	b401      	push	{r0}
1000bad2:	4802      	ldr	r0, [pc, #8]	; (1000badc <__hcd_event_handler_veneer+0xc>)
1000bad4:	4684      	mov	ip, r0
1000bad6:	bc01      	pop	{r0}
1000bad8:	4760      	bx	ip
1000bada:	bf00      	nop
1000badc:	20000821 	.word	0x20000821

1000bae0 <__hw_endpoint_start_next_buffer_veneer>:
1000bae0:	b401      	push	{r0}
1000bae2:	4802      	ldr	r0, [pc, #8]	; (1000baec <__hw_endpoint_start_next_buffer_veneer+0xc>)
1000bae4:	4684      	mov	ip, r0
1000bae6:	bc01      	pop	{r0}
1000bae8:	4760      	bx	ip
1000baea:	bf00      	nop
1000baec:	20000759 	.word	0x20000759

1000baf0 <__hw_endpoint_reset_transfer_veneer>:
1000baf0:	b401      	push	{r0}
1000baf2:	4802      	ldr	r0, [pc, #8]	; (1000bafc <__hw_endpoint_reset_transfer_veneer+0xc>)
1000baf4:	4684      	mov	ip, r0
1000baf6:	bc01      	pop	{r0}
1000baf8:	4760      	bx	ip
1000bafa:	bf00      	nop
1000bafc:	20000701 	.word	0x20000701

1000bb00 <__pre_init_runtime_init_early_resets>:
1000bb00:	10005111                                .Q..

1000bb04 <__pre_init_runtime_init_usb_power_down>:
1000bb04:	1000513d 100052a5 10006159 100059a1     =Q...R..Ya...Y..
1000bb14:	10006005                                .`..

1000bb18 <__pre_init_runtime_init_clocks>:
1000bb18:	100051d9                                .Q..

1000bb1c <__pre_init_runtime_init_post_clock_resets>:
1000bb1c:	10005159                                YQ..

1000bb20 <__pre_init_runtime_init_rp2040_gpio_ie_disable>:
1000bb20:	10005179                                yQ..

1000bb24 <__pre_init_runtime_init_spin_locks_reset>:
1000bb24:	1000518d                                .Q..

1000bb28 <__pre_init_runtime_init_mutex>:
1000bb28:	10004495                                .D..

1000bb2c <__pre_init_runtime_init_install_ram_vector_table>:
1000bb2c:	10005195                                .Q..

1000bb30 <__pre_init_runtime_init_default_alarm_pool>:
1000bb30:	10004c29                                )L..

1000bb34 <__pre_init_first_per_core_initializer>:
1000bb34:	100050fd                                .P..

1000bb38 <__pre_init_runtime_init_per_core_irq_priorities>:
1000bb38:	10003e1d                                .>..

1000bb3c <__frame_dummy_init_array_entry>:
1000bb3c:	100002fd 100079a9                       .....y..

Disassembly of section .data:

200000c0 <mutex_try_enter>:
200000c0:	0003      	movs	r3, r0
200000c2:	6800      	ldr	r0, [r0, #0]
200000c4:	f3ef 8c10 	mrs	ip, PRIMASK
200000c8:	b672      	cpsid	i
200000ca:	6802      	ldr	r2, [r0, #0]
200000cc:	2a00      	cmp	r2, #0
200000ce:	d0fc      	beq.n	200000ca <mutex_try_enter+0xa>
200000d0:	f3bf 8f5f 	dmb	sy
200000d4:	2204      	movs	r2, #4
200000d6:	569a      	ldrsb	r2, [r3, r2]
200000d8:	2a00      	cmp	r2, #0
200000da:	db0b      	blt.n	200000f4 <mutex_try_enter+0x34>
200000dc:	2900      	cmp	r1, #0
200000de:	d010      	beq.n	20000102 <mutex_try_enter+0x42>
200000e0:	600a      	str	r2, [r1, #0]
200000e2:	2000      	movs	r0, #0
200000e4:	681b      	ldr	r3, [r3, #0]
200000e6:	f3bf 8f5f 	dmb	sy
200000ea:	2200      	movs	r2, #0
200000ec:	601a      	str	r2, [r3, #0]
200000ee:	f38c 8810 	msr	PRIMASK, ip
200000f2:	4770      	bx	lr
200000f4:	22d0      	movs	r2, #208	; 0xd0
200000f6:	0612      	lsls	r2, r2, #24
200000f8:	7812      	ldrb	r2, [r2, #0]
200000fa:	b252      	sxtb	r2, r2
200000fc:	711a      	strb	r2, [r3, #4]
200000fe:	2001      	movs	r0, #1
20000100:	e7f0      	b.n	200000e4 <mutex_try_enter+0x24>
20000102:	2000      	movs	r0, #0
20000104:	e7ee      	b.n	200000e4 <mutex_try_enter+0x24>
	...

20000108 <mutex_enter_block_until>:
20000108:	b5f8      	push	{r3, r4, r5, r6, r7, lr}
2000010a:	46ce      	mov	lr, r9
2000010c:	4647      	mov	r7, r8
2000010e:	b580      	push	{r7, lr}
20000110:	0004      	movs	r4, r0
20000112:	0017      	movs	r7, r2
20000114:	4698      	mov	r8, r3
20000116:	6803      	ldr	r3, [r0, #0]
20000118:	2b00      	cmp	r3, #0
2000011a:	d020      	beq.n	2000015e <mutex_enter_block_until+0x56>
2000011c:	23d0      	movs	r3, #208	; 0xd0
2000011e:	061b      	lsls	r3, r3, #24
20000120:	781b      	ldrb	r3, [r3, #0]
20000122:	b25b      	sxtb	r3, r3
20000124:	4699      	mov	r9, r3
20000126:	6826      	ldr	r6, [r4, #0]
20000128:	f3ef 8c10 	mrs	ip, PRIMASK
2000012c:	b672      	cpsid	i
2000012e:	6835      	ldr	r5, [r6, #0]
20000130:	2d00      	cmp	r5, #0
20000132:	d0fc      	beq.n	2000012e <mutex_enter_block_until+0x26>
20000134:	f3bf 8f5f 	dmb	sy
20000138:	2504      	movs	r5, #4
2000013a:	5765      	ldrsb	r5, [r4, r5]
2000013c:	2d00      	cmp	r5, #0
2000013e:	db14      	blt.n	2000016a <mutex_enter_block_until+0x62>
20000140:	6823      	ldr	r3, [r4, #0]
20000142:	f3bf 8f5f 	dmb	sy
20000146:	2200      	movs	r2, #0
20000148:	601a      	str	r2, [r3, #0]
2000014a:	f38c 8810 	msr	PRIMASK, ip
2000014e:	0038      	movs	r0, r7
20000150:	4641      	mov	r1, r8
20000152:	f000 fbcd 	bl	200008f0 <__best_effort_wfe_or_timeout_veneer>
20000156:	2800      	cmp	r0, #0
20000158:	d0e5      	beq.n	20000126 <mutex_enter_block_until+0x1e>
2000015a:	2000      	movs	r0, #0
2000015c:	e00f      	b.n	2000017e <mutex_enter_block_until+0x76>
2000015e:	4b0a      	ldr	r3, [pc, #40]	; (20000188 <mutex_enter_block_until+0x80>)
20000160:	4a0a      	ldr	r2, [pc, #40]	; (2000018c <mutex_enter_block_until+0x84>)
20000162:	21a6      	movs	r1, #166	; 0xa6
20000164:	480a      	ldr	r0, [pc, #40]	; (20000190 <mutex_enter_block_until+0x88>)
20000166:	f000 fbf3 	bl	20000950 <____assert_func_veneer>
2000016a:	464b      	mov	r3, r9
2000016c:	7123      	strb	r3, [r4, #4]
2000016e:	6823      	ldr	r3, [r4, #0]
20000170:	f3bf 8f5f 	dmb	sy
20000174:	2200      	movs	r2, #0
20000176:	601a      	str	r2, [r3, #0]
20000178:	f38c 8810 	msr	PRIMASK, ip
2000017c:	2001      	movs	r0, #1
2000017e:	bcc0      	pop	{r6, r7}
20000180:	46b9      	mov	r9, r7
20000182:	46b0      	mov	r8, r6
20000184:	bdf8      	pop	{r3, r4, r5, r6, r7, pc}
20000186:	46c0      	nop			; (mov r8, r8)
20000188:	1000c900 	.word	0x1000c900
2000018c:	1000c958 	.word	0x1000c958
20000190:	1000c8bc 	.word	0x1000c8bc

20000194 <mutex_try_enter_block_until>:
20000194:	b570      	push	{r4, r5, r6, lr}
20000196:	b082      	sub	sp, #8
20000198:	0006      	movs	r6, r0
2000019a:	0015      	movs	r5, r2
2000019c:	001c      	movs	r4, r3
2000019e:	a901      	add	r1, sp, #4
200001a0:	f7ff ff8e 	bl	200000c0 <mutex_try_enter>
200001a4:	2800      	cmp	r0, #0
200001a6:	d107      	bne.n	200001b8 <mutex_try_enter_block_until+0x24>
200001a8:	9b01      	ldr	r3, [sp, #4]
200001aa:	b25b      	sxtb	r3, r3
200001ac:	22d0      	movs	r2, #208	; 0xd0
200001ae:	0612      	lsls	r2, r2, #24
200001b0:	7812      	ldrb	r2, [r2, #0]
200001b2:	b252      	sxtb	r2, r2
200001b4:	4293      	cmp	r3, r2
200001b6:	d101      	bne.n	200001bc <mutex_try_enter_block_until+0x28>
200001b8:	b002      	add	sp, #8
200001ba:	bd70      	pop	{r4, r5, r6, pc}
200001bc:	002a      	movs	r2, r5
200001be:	0023      	movs	r3, r4
200001c0:	0030      	movs	r0, r6
200001c2:	f7ff ffa1 	bl	20000108 <mutex_enter_block_until>
200001c6:	e7f7      	b.n	200001b8 <mutex_try_enter_block_until+0x24>

200001c8 <mutex_enter_timeout_ms>:
200001c8:	b5f8      	push	{r3, r4, r5, r6, r7, lr}
200001ca:	0006      	movs	r6, r0
200001cc:	000f      	movs	r7, r1
200001ce:	f000 fb7f 	bl	200008d0 <__time_us_64_veneer>
200001d2:	0004      	movs	r4, r0
200001d4:	000d      	movs	r5, r1
200001d6:	22fa      	movs	r2, #250	; 0xfa
200001d8:	0092      	lsls	r2, r2, #2
200001da:	2300      	movs	r3, #0
200001dc:	0038      	movs	r0, r7
200001de:	2100      	movs	r1, #0
200001e0:	f000 fba6 	bl	20000930 <____wrap___aeabi_lmul_veneer>
200001e4:	0022      	movs	r2, r4
200001e6:	002b      	movs	r3, r5
200001e8:	1812      	adds	r2, r2, r0
200001ea:	414b      	adcs	r3, r1
200001ec:	2b00      	cmp	r3, #0
200001ee:	db03      	blt.n	200001f8 <mutex_enter_timeout_ms+0x30>
200001f0:	0030      	movs	r0, r6
200001f2:	f7ff ff89 	bl	20000108 <mutex_enter_block_until>
200001f6:	bdf8      	pop	{r3, r4, r5, r6, r7, pc}
200001f8:	2201      	movs	r2, #1
200001fa:	4252      	negs	r2, r2
200001fc:	4b00      	ldr	r3, [pc, #0]	; (20000200 <mutex_enter_timeout_ms+0x38>)
200001fe:	e7f7      	b.n	200001f0 <mutex_enter_timeout_ms+0x28>
20000200:	7fffffff 	.word	0x7fffffff

20000204 <mutex_exit>:
20000204:	b510      	push	{r4, lr}
20000206:	6802      	ldr	r2, [r0, #0]
20000208:	f3ef 8110 	mrs	r1, PRIMASK
2000020c:	b672      	cpsid	i
2000020e:	6813      	ldr	r3, [r2, #0]
20000210:	2b00      	cmp	r3, #0
20000212:	d0fc      	beq.n	2000020e <mutex_exit+0xa>
20000214:	f3bf 8f5f 	dmb	sy
20000218:	2304      	movs	r3, #4
2000021a:	56c3      	ldrsb	r3, [r0, r3]
2000021c:	2b00      	cmp	r3, #0
2000021e:	db0a      	blt.n	20000236 <mutex_exit+0x32>
20000220:	23ff      	movs	r3, #255	; 0xff
20000222:	7103      	strb	r3, [r0, #4]
20000224:	6803      	ldr	r3, [r0, #0]
20000226:	f3bf 8f5f 	dmb	sy
2000022a:	2200      	movs	r2, #0
2000022c:	601a      	str	r2, [r3, #0]
2000022e:	f381 8810 	msr	PRIMASK, r1
20000232:	bf40      	sev
20000234:	bd10      	pop	{r4, pc}
20000236:	4b03      	ldr	r3, [pc, #12]	; (20000244 <mutex_exit+0x40>)
20000238:	4a03      	ldr	r2, [pc, #12]	; (20000248 <mutex_exit+0x44>)
2000023a:	21d5      	movs	r1, #213	; 0xd5
2000023c:	4803      	ldr	r0, [pc, #12]	; (2000024c <mutex_exit+0x48>)
2000023e:	f000 fb87 	bl	20000950 <____assert_func_veneer>
20000242:	46c0      	nop			; (mov r8, r8)
20000244:	1000c914 	.word	0x1000c914
20000248:	1000c94c 	.word	0x1000c94c
2000024c:	1000c8bc 	.word	0x1000c8bc

20000250 <flash_init_boot2_copyout>:
20000250:	4b09      	ldr	r3, [pc, #36]	; (20000278 <flash_init_boot2_copyout+0x28>)
20000252:	781b      	ldrb	r3, [r3, #0]
20000254:	2b00      	cmp	r3, #0
20000256:	d008      	beq.n	2000026a <flash_init_boot2_copyout+0x1a>
20000258:	e00c      	b.n	20000274 <flash_init_boot2_copyout+0x24>
2000025a:	009a      	lsls	r2, r3, #2
2000025c:	2180      	movs	r1, #128	; 0x80
2000025e:	0549      	lsls	r1, r1, #21
20000260:	1851      	adds	r1, r2, r1
20000262:	6808      	ldr	r0, [r1, #0]
20000264:	4905      	ldr	r1, [pc, #20]	; (2000027c <flash_init_boot2_copyout+0x2c>)
20000266:	5050      	str	r0, [r2, r1]
20000268:	3301      	adds	r3, #1
2000026a:	2b3f      	cmp	r3, #63	; 0x3f
2000026c:	ddf5      	ble.n	2000025a <flash_init_boot2_copyout+0xa>
2000026e:	4b02      	ldr	r3, [pc, #8]	; (20000278 <flash_init_boot2_copyout+0x28>)
20000270:	2201      	movs	r2, #1
20000272:	701a      	strb	r2, [r3, #0]
20000274:	4770      	bx	lr
20000276:	46c0      	nop			; (mov r8, r8)
20000278:	20002c6c 	.word	0x20002c6c
2000027c:	20001bcc 	.word	0x20001bcc

20000280 <flash_enable_xip_via_boot2>:
20000280:	b510      	push	{r4, lr}
20000282:	4b02      	ldr	r3, [pc, #8]	; (2000028c <flash_enable_xip_via_boot2+0xc>)
20000284:	3301      	adds	r3, #1
20000286:	4798      	blx	r3
20000288:	bd10      	pop	{r4, pc}
2000028a:	46c0      	nop			; (mov r8, r8)
2000028c:	20001bcc 	.word	0x20001bcc

20000290 <flash_cs_force>:
20000290:	2800      	cmp	r0, #0
20000292:	d00a      	beq.n	200002aa <flash_cs_force+0x1a>
20000294:	2303      	movs	r3, #3
20000296:	021b      	lsls	r3, r3, #8
20000298:	4a05      	ldr	r2, [pc, #20]	; (200002b0 <flash_cs_force+0x20>)
2000029a:	6812      	ldr	r2, [r2, #0]
2000029c:	4053      	eors	r3, r2
2000029e:	22c0      	movs	r2, #192	; 0xc0
200002a0:	0092      	lsls	r2, r2, #2
200002a2:	4013      	ands	r3, r2
200002a4:	4a03      	ldr	r2, [pc, #12]	; (200002b4 <flash_cs_force+0x24>)
200002a6:	6013      	str	r3, [r2, #0]
200002a8:	4770      	bx	lr
200002aa:	2302      	movs	r3, #2
200002ac:	e7f3      	b.n	20000296 <flash_cs_force+0x6>
200002ae:	46c0      	nop			; (mov r8, r8)
200002b0:	4001800c 	.word	0x4001800c
200002b4:	4001900c 	.word	0x4001900c

200002b8 <flash_do_cmd>:
200002b8:	b5f0      	push	{r4, r5, r6, r7, lr}
200002ba:	46d6      	mov	lr, sl
200002bc:	464f      	mov	r7, r9
200002be:	4646      	mov	r6, r8
200002c0:	b5c0      	push	{r6, r7, lr}
200002c2:	0007      	movs	r7, r0
200002c4:	000e      	movs	r6, r1
200002c6:	0015      	movs	r5, r2
200002c8:	2318      	movs	r3, #24
200002ca:	469a      	mov	sl, r3
200002cc:	881b      	ldrh	r3, [r3, #0]
200002ce:	2214      	movs	r2, #20
200002d0:	4690      	mov	r8, r2
200002d2:	8810      	ldrh	r0, [r2, #0]
200002d4:	4928      	ldr	r1, [pc, #160]	; (20000378 <flash_do_cmd+0xc0>)
200002d6:	4798      	blx	r3
200002d8:	4681      	mov	r9, r0
200002da:	4653      	mov	r3, sl
200002dc:	881b      	ldrh	r3, [r3, #0]
200002de:	4642      	mov	r2, r8
200002e0:	8810      	ldrh	r0, [r2, #0]
200002e2:	4926      	ldr	r1, [pc, #152]	; (2000037c <flash_do_cmd+0xc4>)
200002e4:	4798      	blx	r3
200002e6:	0004      	movs	r4, r0
200002e8:	4653      	mov	r3, sl
200002ea:	881b      	ldrh	r3, [r3, #0]
200002ec:	4642      	mov	r2, r8
200002ee:	8810      	ldrh	r0, [r2, #0]
200002f0:	4923      	ldr	r1, [pc, #140]	; (20000380 <flash_do_cmd+0xc8>)
200002f2:	4798      	blx	r3
200002f4:	4680      	mov	r8, r0
200002f6:	464b      	mov	r3, r9
200002f8:	2b00      	cmp	r3, #0
200002fa:	d00c      	beq.n	20000316 <flash_do_cmd+0x5e>
200002fc:	2c00      	cmp	r4, #0
200002fe:	d00a      	beq.n	20000316 <flash_do_cmd+0x5e>
20000300:	2800      	cmp	r0, #0
20000302:	d008      	beq.n	20000316 <flash_do_cmd+0x5e>
20000304:	f7ff ffa4 	bl	20000250 <flash_init_boot2_copyout>
20000308:	47c8      	blx	r9
2000030a:	47a0      	blx	r4
2000030c:	2000      	movs	r0, #0
2000030e:	f7ff ffbf 	bl	20000290 <flash_cs_force>
20000312:	002a      	movs	r2, r5
20000314:	e00f      	b.n	20000336 <flash_do_cmd+0x7e>
20000316:	4b1b      	ldr	r3, [pc, #108]	; (20000384 <flash_do_cmd+0xcc>)
20000318:	4a1b      	ldr	r2, [pc, #108]	; (20000388 <flash_do_cmd+0xd0>)
2000031a:	2199      	movs	r1, #153	; 0x99
2000031c:	481b      	ldr	r0, [pc, #108]	; (2000038c <flash_do_cmd+0xd4>)
2000031e:	f000 fb17 	bl	20000950 <____assert_func_veneer>
20000322:	2b00      	cmp	r3, #0
20000324:	d007      	beq.n	20000336 <flash_do_cmd+0x7e>
20000326:	2a00      	cmp	r2, #0
20000328:	d005      	beq.n	20000336 <flash_do_cmd+0x7e>
2000032a:	23c0      	movs	r3, #192	; 0xc0
2000032c:	055b      	lsls	r3, r3, #21
2000032e:	6e1b      	ldr	r3, [r3, #96]	; 0x60
20000330:	7033      	strb	r3, [r6, #0]
20000332:	3a01      	subs	r2, #1
20000334:	3601      	adds	r6, #1
20000336:	002b      	movs	r3, r5
20000338:	4313      	orrs	r3, r2
2000033a:	d012      	beq.n	20000362 <flash_do_cmd+0xaa>
2000033c:	23c0      	movs	r3, #192	; 0xc0
2000033e:	055b      	lsls	r3, r3, #21
20000340:	6a9c      	ldr	r4, [r3, #40]	; 0x28
20000342:	2308      	movs	r3, #8
20000344:	4023      	ands	r3, r4
20000346:	07a1      	lsls	r1, r4, #30
20000348:	d5eb      	bpl.n	20000322 <flash_do_cmd+0x6a>
2000034a:	2d00      	cmp	r5, #0
2000034c:	d0e9      	beq.n	20000322 <flash_do_cmd+0x6a>
2000034e:	1b51      	subs	r1, r2, r5
20000350:	290d      	cmp	r1, #13
20000352:	d8e6      	bhi.n	20000322 <flash_do_cmd+0x6a>
20000354:	7838      	ldrb	r0, [r7, #0]
20000356:	21c0      	movs	r1, #192	; 0xc0
20000358:	0549      	lsls	r1, r1, #21
2000035a:	6608      	str	r0, [r1, #96]	; 0x60
2000035c:	3d01      	subs	r5, #1
2000035e:	3701      	adds	r7, #1
20000360:	e7df      	b.n	20000322 <flash_do_cmd+0x6a>
20000362:	2001      	movs	r0, #1
20000364:	f7ff ff94 	bl	20000290 <flash_cs_force>
20000368:	47c0      	blx	r8
2000036a:	f7ff ff89 	bl	20000280 <flash_enable_xip_via_boot2>
2000036e:	bce0      	pop	{r5, r6, r7}
20000370:	46ba      	mov	sl, r7
20000372:	46b1      	mov	r9, r6
20000374:	46a8      	mov	r8, r5
20000376:	bdf0      	pop	{r4, r5, r6, r7, pc}
20000378:	00004649 	.word	0x00004649
2000037c:	00005845 	.word	0x00005845
20000380:	00004346 	.word	0x00004346
20000384:	1000d208 	.word	0x1000d208
20000388:	1000d258 	.word	0x1000d258
2000038c:	1000d0f0 	.word	0x1000d0f0

20000390 <hw_xfer_complete>:
20000390:	b5f0      	push	{r4, r5, r6, r7, lr}
20000392:	46c6      	mov	lr, r8
20000394:	b500      	push	{lr}
20000396:	b084      	sub	sp, #16
20000398:	000d      	movs	r5, r1
2000039a:	7f43      	ldrb	r3, [r0, #29]
2000039c:	4698      	mov	r8, r3
2000039e:	7887      	ldrb	r7, [r0, #2]
200003a0:	8ac6      	ldrh	r6, [r0, #22]
200003a2:	f000 f9ad 	bl	20000700 <hw_endpoint_reset_transfer>
200003a6:	ac01      	add	r4, sp, #4
200003a8:	220c      	movs	r2, #12
200003aa:	2100      	movs	r1, #0
200003ac:	0020      	movs	r0, r4
200003ae:	f000 fac7 	bl	20000940 <____wrap_memset_veneer>
200003b2:	2302      	movs	r3, #2
200003b4:	7063      	strb	r3, [r4, #1]
200003b6:	4643      	mov	r3, r8
200003b8:	70a3      	strb	r3, [r4, #2]
200003ba:	7127      	strb	r7, [r4, #4]
200003bc:	7165      	strb	r5, [r4, #5]
200003be:	9603      	str	r6, [sp, #12]
200003c0:	2101      	movs	r1, #1
200003c2:	0020      	movs	r0, r4
200003c4:	f000 fa2c 	bl	20000820 <hcd_event_handler>
200003c8:	b004      	add	sp, #16
200003ca:	bc80      	pop	{r7}
200003cc:	46b8      	mov	r8, r7
200003ce:	bdf0      	pop	{r4, r5, r6, r7, pc}

200003d0 <hw_trans_complete>:
200003d0:	b510      	push	{r4, lr}
200003d2:	4b0a      	ldr	r3, [pc, #40]	; (200003fc <hw_trans_complete+0x2c>)
200003d4:	6cdb      	ldr	r3, [r3, #76]	; 0x4c
200003d6:	079b      	lsls	r3, r3, #30
200003d8:	d509      	bpl.n	200003ee <hw_trans_complete+0x1e>
200003da:	4b09      	ldr	r3, [pc, #36]	; (20000400 <hw_trans_complete+0x30>)
200003dc:	7e9b      	ldrb	r3, [r3, #26]
200003de:	2b00      	cmp	r3, #0
200003e0:	d006      	beq.n	200003f0 <hw_trans_complete+0x20>
200003e2:	4807      	ldr	r0, [pc, #28]	; (20000400 <hw_trans_complete+0x30>)
200003e4:	2308      	movs	r3, #8
200003e6:	82c3      	strh	r3, [r0, #22]
200003e8:	2100      	movs	r1, #0
200003ea:	f7ff ffd1 	bl	20000390 <hw_xfer_complete>
200003ee:	bd10      	pop	{r4, pc}
200003f0:	4b04      	ldr	r3, [pc, #16]	; (20000404 <hw_trans_complete+0x34>)
200003f2:	4a05      	ldr	r2, [pc, #20]	; (20000408 <hw_trans_complete+0x38>)
200003f4:	21ad      	movs	r1, #173	; 0xad
200003f6:	4805      	ldr	r0, [pc, #20]	; (2000040c <hw_trans_complete+0x3c>)
200003f8:	f000 faaa 	bl	20000950 <____assert_func_veneer>
200003fc:	50110000 	.word	0x50110000
20000400:	20001f1c 	.word	0x20001f1c
20000404:	1000d268 	.word	0x1000d268
20000408:	1000d3d8 	.word	0x1000d3d8
2000040c:	1000d274 	.word	0x1000d274

20000410 <_handle_buff_status_bit>:
20000410:	b510      	push	{r4, lr}
20000412:	000c      	movs	r4, r1
20000414:	4b0a      	ldr	r3, [pc, #40]	; (20000440 <_handle_buff_status_bit+0x30>)
20000416:	6598      	str	r0, [r3, #88]	; 0x58
20000418:	7e8b      	ldrb	r3, [r1, #26]
2000041a:	2b00      	cmp	r3, #0
2000041c:	d005      	beq.n	2000042a <_handle_buff_status_bit+0x1a>
2000041e:	0008      	movs	r0, r1
20000420:	f000 f9de 	bl	200007e0 <hw_endpoint_xfer_continue>
20000424:	2800      	cmp	r0, #0
20000426:	d106      	bne.n	20000436 <_handle_buff_status_bit+0x26>
20000428:	bd10      	pop	{r4, pc}
2000042a:	4b06      	ldr	r3, [pc, #24]	; (20000444 <_handle_buff_status_bit+0x34>)
2000042c:	4a06      	ldr	r2, [pc, #24]	; (20000448 <_handle_buff_status_bit+0x38>)
2000042e:	2169      	movs	r1, #105	; 0x69
20000430:	4806      	ldr	r0, [pc, #24]	; (2000044c <_handle_buff_status_bit+0x3c>)
20000432:	f000 fa8d 	bl	20000950 <____assert_func_veneer>
20000436:	2100      	movs	r1, #0
20000438:	0020      	movs	r0, r4
2000043a:	f7ff ffa9 	bl	20000390 <hw_xfer_complete>
2000043e:	e7f3      	b.n	20000428 <_handle_buff_status_bit+0x18>
20000440:	50113000 	.word	0x50113000
20000444:	1000d268 	.word	0x1000d268
20000448:	1000d3ec 	.word	0x1000d3ec
2000044c:	1000d274 	.word	0x1000d274

20000450 <hw_handle_buff_status>:
20000450:	b570      	push	{r4, r5, r6, lr}
20000452:	4b16      	ldr	r3, [pc, #88]	; (200004ac <hw_handle_buff_status+0x5c>)
20000454:	6d9e      	ldr	r6, [r3, #88]	; 0x58
20000456:	07f3      	lsls	r3, r6, #31
20000458:	d401      	bmi.n	2000045e <hw_handle_buff_status+0xe>
2000045a:	2501      	movs	r5, #1
2000045c:	e019      	b.n	20000492 <hw_handle_buff_status+0x42>
2000045e:	2301      	movs	r3, #1
20000460:	439e      	bics	r6, r3
20000462:	4913      	ldr	r1, [pc, #76]	; (200004b0 <hw_handle_buff_status+0x60>)
20000464:	684b      	ldr	r3, [r1, #4]
20000466:	681b      	ldr	r3, [r3, #0]
20000468:	2001      	movs	r0, #1
2000046a:	f7ff ffd1 	bl	20000410 <_handle_buff_status_bit>
2000046e:	e7f4      	b.n	2000045a <hw_handle_buff_status+0xa>
20000470:	3401      	adds	r4, #1
20000472:	2c01      	cmp	r4, #1
20000474:	d80c      	bhi.n	20000490 <hw_handle_buff_status+0x40>
20000476:	006b      	lsls	r3, r5, #1
20000478:	191b      	adds	r3, r3, r4
2000047a:	2001      	movs	r0, #1
2000047c:	4098      	lsls	r0, r3
2000047e:	4230      	tst	r0, r6
20000480:	d0f6      	beq.n	20000470 <hw_handle_buff_status+0x20>
20000482:	4386      	bics	r6, r0
20000484:	016b      	lsls	r3, r5, #5
20000486:	490a      	ldr	r1, [pc, #40]	; (200004b0 <hw_handle_buff_status+0x60>)
20000488:	1859      	adds	r1, r3, r1
2000048a:	f7ff ffc1 	bl	20000410 <_handle_buff_status_bit>
2000048e:	e7ef      	b.n	20000470 <hw_handle_buff_status+0x20>
20000490:	3501      	adds	r5, #1
20000492:	2d0f      	cmp	r5, #15
20000494:	d803      	bhi.n	2000049e <hw_handle_buff_status+0x4e>
20000496:	2e00      	cmp	r6, #0
20000498:	d001      	beq.n	2000049e <hw_handle_buff_status+0x4e>
2000049a:	2400      	movs	r4, #0
2000049c:	e7e9      	b.n	20000472 <hw_handle_buff_status+0x22>
2000049e:	2e00      	cmp	r6, #0
200004a0:	d100      	bne.n	200004a4 <hw_handle_buff_status+0x54>
200004a2:	bd70      	pop	{r4, r5, r6, pc}
200004a4:	0031      	movs	r1, r6
200004a6:	4803      	ldr	r0, [pc, #12]	; (200004b4 <hw_handle_buff_status+0x64>)
200004a8:	f000 fa32 	bl	20000910 <__panic_veneer>
200004ac:	50110000 	.word	0x50110000
200004b0:	20001f1c 	.word	0x20001f1c
200004b4:	1000d2cc 	.word	0x1000d2cc

200004b8 <hcd_rp2040_irq>:
200004b8:	b530      	push	{r4, r5, lr}
200004ba:	b085      	sub	sp, #20
200004bc:	4a2f      	ldr	r2, [pc, #188]	; (2000057c <hcd_rp2040_irq+0xc4>)
200004be:	2398      	movs	r3, #152	; 0x98
200004c0:	58d4      	ldr	r4, [r2, r3]
200004c2:	3b97      	subs	r3, #151	; 0x97
200004c4:	001d      	movs	r5, r3
200004c6:	4025      	ands	r5, r4
200004c8:	4223      	tst	r3, r4
200004ca:	d011      	beq.n	200004f0 <hcd_rp2040_irq+0x38>
200004cc:	6d13      	ldr	r3, [r2, #80]	; 0x50
200004ce:	0a1b      	lsrs	r3, r3, #8
200004d0:	079b      	lsls	r3, r3, #30
200004d2:	d021      	beq.n	20000518 <hcd_rp2040_irq+0x60>
200004d4:	a801      	add	r0, sp, #4
200004d6:	2300      	movs	r3, #0
200004d8:	7003      	strb	r3, [r0, #0]
200004da:	7043      	strb	r3, [r0, #1]
200004dc:	7103      	strb	r3, [r0, #4]
200004de:	7143      	strb	r3, [r0, #5]
200004e0:	2101      	movs	r1, #1
200004e2:	f000 f99d 	bl	20000820 <hcd_event_handler>
200004e6:	4b26      	ldr	r3, [pc, #152]	; (20000580 <hcd_rp2040_irq+0xc8>)
200004e8:	22c0      	movs	r2, #192	; 0xc0
200004ea:	0092      	lsls	r2, r2, #2
200004ec:	651a      	str	r2, [r3, #80]	; 0x50
200004ee:	2501      	movs	r5, #1
200004f0:	0563      	lsls	r3, r4, #21
200004f2:	d41c      	bmi.n	2000052e <hcd_rp2040_irq+0x76>
200004f4:	06e3      	lsls	r3, r4, #27
200004f6:	d426      	bmi.n	20000546 <hcd_rp2040_irq+0x8e>
200004f8:	0723      	lsls	r3, r4, #28
200004fa:	d429      	bmi.n	20000550 <hcd_rp2040_irq+0x98>
200004fc:	0663      	lsls	r3, r4, #25
200004fe:	d505      	bpl.n	2000050c <hcd_rp2040_irq+0x54>
20000500:	2340      	movs	r3, #64	; 0x40
20000502:	431d      	orrs	r5, r3
20000504:	4b1e      	ldr	r3, [pc, #120]	; (20000580 <hcd_rp2040_irq+0xc8>)
20000506:	2280      	movs	r2, #128	; 0x80
20000508:	0512      	lsls	r2, r2, #20
2000050a:	651a      	str	r2, [r3, #80]	; 0x50
2000050c:	06a3      	lsls	r3, r4, #26
2000050e:	d428      	bmi.n	20000562 <hcd_rp2040_irq+0xaa>
20000510:	42a5      	cmp	r5, r4
20000512:	d12d      	bne.n	20000570 <hcd_rp2040_irq+0xb8>
20000514:	b005      	add	sp, #20
20000516:	bd30      	pop	{r4, r5, pc}
20000518:	a801      	add	r0, sp, #4
2000051a:	2300      	movs	r3, #0
2000051c:	7003      	strb	r3, [r0, #0]
2000051e:	2201      	movs	r2, #1
20000520:	7042      	strb	r2, [r0, #1]
20000522:	7103      	strb	r3, [r0, #4]
20000524:	7143      	strb	r3, [r0, #5]
20000526:	2101      	movs	r1, #1
20000528:	f000 f97a 	bl	20000820 <hcd_event_handler>
2000052c:	e7db      	b.n	200004e6 <hcd_rp2040_irq+0x2e>
2000052e:	2380      	movs	r3, #128	; 0x80
20000530:	00db      	lsls	r3, r3, #3
20000532:	431d      	orrs	r5, r3
20000534:	4b12      	ldr	r3, [pc, #72]	; (20000580 <hcd_rp2040_irq+0xc8>)
20000536:	2280      	movs	r2, #128	; 0x80
20000538:	0592      	lsls	r2, r2, #22
2000053a:	651a      	str	r2, [r3, #80]	; 0x50
2000053c:	2102      	movs	r1, #2
2000053e:	4811      	ldr	r0, [pc, #68]	; (20000584 <hcd_rp2040_irq+0xcc>)
20000540:	f7ff ff26 	bl	20000390 <hw_xfer_complete>
20000544:	e7d6      	b.n	200004f4 <hcd_rp2040_irq+0x3c>
20000546:	2310      	movs	r3, #16
20000548:	431d      	orrs	r5, r3
2000054a:	f7ff ff81 	bl	20000450 <hw_handle_buff_status>
2000054e:	e7d3      	b.n	200004f8 <hcd_rp2040_irq+0x40>
20000550:	2308      	movs	r3, #8
20000552:	431d      	orrs	r5, r3
20000554:	4b0a      	ldr	r3, [pc, #40]	; (20000580 <hcd_rp2040_irq+0xc8>)
20000556:	2280      	movs	r2, #128	; 0x80
20000558:	02d2      	lsls	r2, r2, #11
2000055a:	651a      	str	r2, [r3, #80]	; 0x50
2000055c:	f7ff ff38 	bl	200003d0 <hw_trans_complete>
20000560:	e7cc      	b.n	200004fc <hcd_rp2040_irq+0x44>
20000562:	4b07      	ldr	r3, [pc, #28]	; (20000580 <hcd_rp2040_irq+0xc8>)
20000564:	2280      	movs	r2, #128	; 0x80
20000566:	0612      	lsls	r2, r2, #24
20000568:	651a      	str	r2, [r3, #80]	; 0x50
2000056a:	4807      	ldr	r0, [pc, #28]	; (20000588 <hcd_rp2040_irq+0xd0>)
2000056c:	f000 f9d0 	bl	20000910 <__panic_veneer>
20000570:	0029      	movs	r1, r5
20000572:	4061      	eors	r1, r4
20000574:	4805      	ldr	r0, [pc, #20]	; (2000058c <hcd_rp2040_irq+0xd4>)
20000576:	f000 f9cb 	bl	20000910 <__panic_veneer>
2000057a:	46c0      	nop			; (mov r8, r8)
2000057c:	50110000 	.word	0x50110000
20000580:	50113000 	.word	0x50113000
20000584:	20001f1c 	.word	0x20001f1c
20000588:	1000d2e4 	.word	0x1000d2e4
2000058c:	1000d2f8 	.word	0x1000d2f8

20000590 <prepare_ep_buffer>:
20000590:	b5f8      	push	{r3, r4, r5, r6, r7, lr}
20000592:	0004      	movs	r4, r0
20000594:	000f      	movs	r7, r1
20000596:	8a83      	ldrh	r3, [r0, #20]
20000598:	8b02      	ldrh	r2, [r0, #24]
2000059a:	1c1e      	adds	r6, r3, #0
2000059c:	4293      	cmp	r3, r2
2000059e:	d900      	bls.n	200005a2 <prepare_ep_buffer+0x12>
200005a0:	1c16      	adds	r6, r2, #0
200005a2:	b2b6      	uxth	r6, r6
200005a4:	1b9b      	subs	r3, r3, r6
200005a6:	82a3      	strh	r3, [r4, #20]
200005a8:	2580      	movs	r5, #128	; 0x80
200005aa:	00ed      	lsls	r5, r5, #3
200005ac:	4335      	orrs	r5, r6
200005ae:	78e3      	ldrb	r3, [r4, #3]
200005b0:	2b00      	cmp	r3, #0
200005b2:	d013      	beq.n	200005dc <prepare_ep_buffer+0x4c>
200005b4:	2280      	movs	r2, #128	; 0x80
200005b6:	0192      	lsls	r2, r2, #6
200005b8:	4315      	orrs	r5, r2
200005ba:	2201      	movs	r2, #1
200005bc:	4053      	eors	r3, r2
200005be:	70e3      	strb	r3, [r4, #3]
200005c0:	7863      	ldrb	r3, [r4, #1]
200005c2:	2b00      	cmp	r3, #0
200005c4:	d00c      	beq.n	200005e0 <prepare_ep_buffer+0x50>
200005c6:	8aa3      	ldrh	r3, [r4, #20]
200005c8:	2b00      	cmp	r3, #0
200005ca:	d102      	bne.n	200005d2 <prepare_ep_buffer+0x42>
200005cc:	2380      	movs	r3, #128	; 0x80
200005ce:	01db      	lsls	r3, r3, #7
200005d0:	431d      	orrs	r5, r3
200005d2:	2f00      	cmp	r7, #0
200005d4:	d000      	beq.n	200005d8 <prepare_ep_buffer+0x48>
200005d6:	042d      	lsls	r5, r5, #16
200005d8:	0028      	movs	r0, r5
200005da:	bdf8      	pop	{r3, r4, r5, r6, r7, pc}
200005dc:	2200      	movs	r2, #0
200005de:	e7eb      	b.n	200005b8 <prepare_ep_buffer+0x28>
200005e0:	01b8      	lsls	r0, r7, #6
200005e2:	68e3      	ldr	r3, [r4, #12]
200005e4:	469c      	mov	ip, r3
200005e6:	4460      	add	r0, ip
200005e8:	0032      	movs	r2, r6
200005ea:	6921      	ldr	r1, [r4, #16]
200005ec:	f000 f968 	bl	200008c0 <__unaligned_memcpy_veneer>
200005f0:	6923      	ldr	r3, [r4, #16]
200005f2:	469c      	mov	ip, r3
200005f4:	4466      	add	r6, ip
200005f6:	6126      	str	r6, [r4, #16]
200005f8:	2380      	movs	r3, #128	; 0x80
200005fa:	021b      	lsls	r3, r3, #8
200005fc:	431d      	orrs	r5, r3
200005fe:	e7e2      	b.n	200005c6 <prepare_ep_buffer+0x36>

20000600 <e15_is_bulkin_ep>:
20000600:	4b09      	ldr	r3, [pc, #36]	; (20000628 <e15_is_bulkin_ep+0x28>)
20000602:	6c1b      	ldr	r3, [r3, #64]	; 0x40
20000604:	079b      	lsls	r3, r3, #30
20000606:	d40c      	bmi.n	20000622 <e15_is_bulkin_ep+0x22>
20000608:	7883      	ldrb	r3, [r0, #2]
2000060a:	09db      	lsrs	r3, r3, #7
2000060c:	2b01      	cmp	r3, #1
2000060e:	d001      	beq.n	20000614 <e15_is_bulkin_ep+0x14>
20000610:	2000      	movs	r0, #0
20000612:	e007      	b.n	20000624 <e15_is_bulkin_ep+0x24>
20000614:	7ec3      	ldrb	r3, [r0, #27]
20000616:	2b02      	cmp	r3, #2
20000618:	d001      	beq.n	2000061e <e15_is_bulkin_ep+0x1e>
2000061a:	2000      	movs	r0, #0
2000061c:	e002      	b.n	20000624 <e15_is_bulkin_ep+0x24>
2000061e:	2001      	movs	r0, #1
20000620:	e000      	b.n	20000624 <e15_is_bulkin_ep+0x24>
20000622:	2000      	movs	r0, #0
20000624:	4770      	bx	lr
20000626:	46c0      	nop			; (mov r8, r8)
20000628:	50110000 	.word	0x50110000

2000062c <e15_is_critical_frame_period>:
2000062c:	b510      	push	{r4, lr}
2000062e:	f7ff ffe7 	bl	20000600 <e15_is_bulkin_ep>
20000632:	2800      	cmp	r0, #0
20000634:	d009      	beq.n	2000064a <e15_is_critical_frame_period+0x1e>
20000636:	4b06      	ldr	r3, [pc, #24]	; (20000650 <e15_is_critical_frame_period+0x24>)
20000638:	6a9b      	ldr	r3, [r3, #40]	; 0x28
2000063a:	4a06      	ldr	r2, [pc, #24]	; (20000654 <e15_is_critical_frame_period+0x28>)
2000063c:	6812      	ldr	r2, [r2, #0]
2000063e:	1a9b      	subs	r3, r3, r2
20000640:	4a05      	ldr	r2, [pc, #20]	; (20000658 <e15_is_critical_frame_period+0x2c>)
20000642:	4694      	mov	ip, r2
20000644:	4463      	add	r3, ip
20000646:	2bc6      	cmp	r3, #198	; 0xc6
20000648:	d800      	bhi.n	2000064c <e15_is_critical_frame_period+0x20>
2000064a:	bd10      	pop	{r4, pc}
2000064c:	2000      	movs	r0, #0
2000064e:	e7fc      	b.n	2000064a <e15_is_critical_frame_period+0x1e>
20000650:	40054000 	.word	0x40054000
20000654:	20001f18 	.word	0x20001f18
20000658:	fffffce0 	.word	0xfffffce0

2000065c <sync_ep_buffer>:
2000065c:	b570      	push	{r4, r5, r6, lr}
2000065e:	0004      	movs	r4, r0
20000660:	6883      	ldr	r3, [r0, #8]
20000662:	681b      	ldr	r3, [r3, #0]
20000664:	2900      	cmp	r1, #0
20000666:	d000      	beq.n	2000066a <sync_ep_buffer+0xe>
20000668:	0c1b      	lsrs	r3, r3, #16
2000066a:	059d      	lsls	r5, r3, #22
2000066c:	0dad      	lsrs	r5, r5, #22
2000066e:	7862      	ldrb	r2, [r4, #1]
20000670:	2a00      	cmp	r2, #0
20000672:	d111      	bne.n	20000698 <sync_ep_buffer+0x3c>
20000674:	041b      	lsls	r3, r3, #16
20000676:	d409      	bmi.n	2000068c <sync_ep_buffer+0x30>
20000678:	8ae3      	ldrh	r3, [r4, #22]
2000067a:	195b      	adds	r3, r3, r5
2000067c:	82e3      	strh	r3, [r4, #22]
2000067e:	8b23      	ldrh	r3, [r4, #24]
20000680:	42ab      	cmp	r3, r5
20000682:	d901      	bls.n	20000688 <sync_ep_buffer+0x2c>
20000684:	2300      	movs	r3, #0
20000686:	82a3      	strh	r3, [r4, #20]
20000688:	0028      	movs	r0, r5
2000068a:	bd70      	pop	{r4, r5, r6, pc}
2000068c:	4b0e      	ldr	r3, [pc, #56]	; (200006c8 <sync_ep_buffer+0x6c>)
2000068e:	4a0f      	ldr	r2, [pc, #60]	; (200006cc <sync_ep_buffer+0x70>)
20000690:	21e8      	movs	r1, #232	; 0xe8
20000692:	480f      	ldr	r0, [pc, #60]	; (200006d0 <sync_ep_buffer+0x74>)
20000694:	f000 f95c 	bl	20000950 <____assert_func_veneer>
20000698:	041b      	lsls	r3, r3, #16
2000069a:	d50e      	bpl.n	200006ba <sync_ep_buffer+0x5e>
2000069c:	0189      	lsls	r1, r1, #6
2000069e:	68e3      	ldr	r3, [r4, #12]
200006a0:	469c      	mov	ip, r3
200006a2:	4461      	add	r1, ip
200006a4:	002a      	movs	r2, r5
200006a6:	6920      	ldr	r0, [r4, #16]
200006a8:	f000 f90a 	bl	200008c0 <__unaligned_memcpy_veneer>
200006ac:	8ae3      	ldrh	r3, [r4, #22]
200006ae:	195b      	adds	r3, r3, r5
200006b0:	82e3      	strh	r3, [r4, #22]
200006b2:	6923      	ldr	r3, [r4, #16]
200006b4:	195b      	adds	r3, r3, r5
200006b6:	6123      	str	r3, [r4, #16]
200006b8:	e7e1      	b.n	2000067e <sync_ep_buffer+0x22>
200006ba:	4b06      	ldr	r3, [pc, #24]	; (200006d4 <sync_ep_buffer+0x78>)
200006bc:	4a03      	ldr	r2, [pc, #12]	; (200006cc <sync_ep_buffer+0x70>)
200006be:	21ee      	movs	r1, #238	; 0xee
200006c0:	4803      	ldr	r0, [pc, #12]	; (200006d0 <sync_ep_buffer+0x74>)
200006c2:	f000 f945 	bl	20000950 <____assert_func_veneer>
200006c6:	46c0      	nop			; (mov r8, r8)
200006c8:	1000d48c 	.word	0x1000d48c
200006cc:	1000d5a4 	.word	0x1000d5a4
200006d0:	1000d4ac 	.word	0x1000d4ac
200006d4:	1000d504 	.word	0x1000d504

200006d8 <_hw_endpoint_xfer_sync>:
200006d8:	b510      	push	{r4, lr}
200006da:	0004      	movs	r4, r0
200006dc:	6883      	ldr	r3, [r0, #8]
200006de:	681b      	ldr	r3, [r3, #0]
200006e0:	2100      	movs	r1, #0
200006e2:	f7ff ffbb 	bl	2000065c <sync_ep_buffer>
200006e6:	6863      	ldr	r3, [r4, #4]
200006e8:	681b      	ldr	r3, [r3, #0]
200006ea:	005b      	lsls	r3, r3, #1
200006ec:	d502      	bpl.n	200006f4 <_hw_endpoint_xfer_sync+0x1c>
200006ee:	8b23      	ldrh	r3, [r4, #24]
200006f0:	4283      	cmp	r3, r0
200006f2:	d000      	beq.n	200006f6 <_hw_endpoint_xfer_sync+0x1e>
200006f4:	bd10      	pop	{r4, pc}
200006f6:	2101      	movs	r1, #1
200006f8:	0020      	movs	r0, r4
200006fa:	f7ff ffaf 	bl	2000065c <sync_ep_buffer>
200006fe:	e7f9      	b.n	200006f4 <_hw_endpoint_xfer_sync+0x1c>

20000700 <hw_endpoint_reset_transfer>:
20000700:	2300      	movs	r3, #0
20000702:	7683      	strb	r3, [r0, #26]
20000704:	8283      	strh	r3, [r0, #20]
20000706:	82c3      	strh	r3, [r0, #22]
20000708:	6103      	str	r3, [r0, #16]
2000070a:	4770      	bx	lr

2000070c <_hw_endpoint_buffer_control_update32>:
2000070c:	b510      	push	{r4, lr}
2000070e:	2900      	cmp	r1, #0
20000710:	d002      	beq.n	20000718 <_hw_endpoint_buffer_control_update32+0xc>
20000712:	6883      	ldr	r3, [r0, #8]
20000714:	681b      	ldr	r3, [r3, #0]
20000716:	4019      	ands	r1, r3
20000718:	2a00      	cmp	r2, #0
2000071a:	d010      	beq.n	2000073e <_hw_endpoint_buffer_control_update32+0x32>
2000071c:	4311      	orrs	r1, r2
2000071e:	0553      	lsls	r3, r2, #21
20000720:	d50d      	bpl.n	2000073e <_hw_endpoint_buffer_control_update32+0x32>
20000722:	6882      	ldr	r2, [r0, #8]
20000724:	6813      	ldr	r3, [r2, #0]
20000726:	055b      	lsls	r3, r3, #21
20000728:	d40c      	bmi.n	20000744 <_hw_endpoint_buffer_control_update32+0x38>
2000072a:	4b08      	ldr	r3, [pc, #32]	; (2000074c <_hw_endpoint_buffer_control_update32+0x40>)
2000072c:	400b      	ands	r3, r1
2000072e:	6013      	str	r3, [r2, #0]
20000730:	4b07      	ldr	r3, [pc, #28]	; (20000750 <_hw_endpoint_buffer_control_update32+0x44>)
20000732:	6c1b      	ldr	r3, [r3, #64]	; 0x40
20000734:	079b      	lsls	r3, r3, #30
20000736:	d402      	bmi.n	2000073e <_hw_endpoint_buffer_control_update32+0x32>
20000738:	230c      	movs	r3, #12
2000073a:	3b03      	subs	r3, #3
2000073c:	d2fd      	bcs.n	2000073a <_hw_endpoint_buffer_control_update32+0x2e>
2000073e:	6883      	ldr	r3, [r0, #8]
20000740:	6019      	str	r1, [r3, #0]
20000742:	bd10      	pop	{r4, pc}
20000744:	7881      	ldrb	r1, [r0, #2]
20000746:	4803      	ldr	r0, [pc, #12]	; (20000754 <_hw_endpoint_buffer_control_update32+0x48>)
20000748:	f000 f8e2 	bl	20000910 <__panic_veneer>
2000074c:	fffffbff 	.word	0xfffffbff
20000750:	50110000 	.word	0x50110000
20000754:	1000d524 	.word	0x1000d524

20000758 <hw_endpoint_start_next_buffer>:
20000758:	b570      	push	{r4, r5, r6, lr}
2000075a:	0004      	movs	r4, r0
2000075c:	6843      	ldr	r3, [r0, #4]
2000075e:	681e      	ldr	r6, [r3, #0]
20000760:	2100      	movs	r1, #0
20000762:	f7ff ff15 	bl	20000590 <prepare_ep_buffer>
20000766:	2580      	movs	r5, #128	; 0x80
20000768:	016d      	lsls	r5, r5, #5
2000076a:	4305      	orrs	r5, r0
2000076c:	4b19      	ldr	r3, [pc, #100]	; (200007d4 <hw_endpoint_start_next_buffer+0x7c>)
2000076e:	6c1b      	ldr	r3, [r3, #64]	; 0x40
20000770:	2202      	movs	r2, #2
20000772:	0011      	movs	r1, r2
20000774:	4019      	ands	r1, r3
20000776:	421a      	tst	r2, r3
20000778:	d102      	bne.n	20000780 <hw_endpoint_start_next_buffer+0x28>
2000077a:	78a3      	ldrb	r3, [r4, #2]
2000077c:	09db      	lsrs	r3, r3, #7
2000077e:	d006      	beq.n	2000078e <hw_endpoint_start_next_buffer+0x36>
20000780:	2900      	cmp	r1, #0
20000782:	d006      	beq.n	20000792 <hw_endpoint_start_next_buffer+0x3a>
20000784:	78a3      	ldrb	r3, [r4, #2]
20000786:	065b      	lsls	r3, r3, #25
20000788:	d116      	bne.n	200007b8 <hw_endpoint_start_next_buffer+0x60>
2000078a:	2300      	movs	r3, #0
2000078c:	e002      	b.n	20000794 <hw_endpoint_start_next_buffer+0x3c>
2000078e:	2301      	movs	r3, #1
20000790:	e000      	b.n	20000794 <hw_endpoint_start_next_buffer+0x3c>
20000792:	2300      	movs	r3, #0
20000794:	8aa2      	ldrh	r2, [r4, #20]
20000796:	2a00      	cmp	r2, #0
20000798:	d001      	beq.n	2000079e <hw_endpoint_start_next_buffer+0x46>
2000079a:	2b00      	cmp	r3, #0
2000079c:	d00e      	beq.n	200007bc <hw_endpoint_start_next_buffer+0x64>
2000079e:	4b0e      	ldr	r3, [pc, #56]	; (200007d8 <hw_endpoint_start_next_buffer+0x80>)
200007a0:	401e      	ands	r6, r3
200007a2:	2380      	movs	r3, #128	; 0x80
200007a4:	059b      	lsls	r3, r3, #22
200007a6:	4333      	orrs	r3, r6
200007a8:	6862      	ldr	r2, [r4, #4]
200007aa:	6013      	str	r3, [r2, #0]
200007ac:	002a      	movs	r2, r5
200007ae:	2100      	movs	r1, #0
200007b0:	0020      	movs	r0, r4
200007b2:	f7ff ffab 	bl	2000070c <_hw_endpoint_buffer_control_update32>
200007b6:	bd70      	pop	{r4, r5, r6, pc}
200007b8:	2301      	movs	r3, #1
200007ba:	e7eb      	b.n	20000794 <hw_endpoint_start_next_buffer+0x3c>
200007bc:	2101      	movs	r1, #1
200007be:	0020      	movs	r0, r4
200007c0:	f7ff fee6 	bl	20000590 <prepare_ep_buffer>
200007c4:	4305      	orrs	r5, r0
200007c6:	4b05      	ldr	r3, [pc, #20]	; (200007dc <hw_endpoint_start_next_buffer+0x84>)
200007c8:	401e      	ands	r6, r3
200007ca:	23a0      	movs	r3, #160	; 0xa0
200007cc:	05db      	lsls	r3, r3, #23
200007ce:	4333      	orrs	r3, r6
200007d0:	e7ea      	b.n	200007a8 <hw_endpoint_start_next_buffer+0x50>
200007d2:	46c0      	nop			; (mov r8, r8)
200007d4:	50110000 	.word	0x50110000
200007d8:	afffffff 	.word	0xafffffff
200007dc:	dfffffff 	.word	0xdfffffff

200007e0 <hw_endpoint_xfer_continue>:
200007e0:	b570      	push	{r4, r5, r6, lr}
200007e2:	0004      	movs	r4, r0
200007e4:	7e85      	ldrb	r5, [r0, #26]
200007e6:	2d00      	cmp	r5, #0
200007e8:	d006      	beq.n	200007f8 <hw_endpoint_xfer_continue+0x18>
200007ea:	f7ff ff75 	bl	200006d8 <_hw_endpoint_xfer_sync>
200007ee:	8aa3      	ldrh	r3, [r4, #20]
200007f0:	2b00      	cmp	r3, #0
200007f2:	d105      	bne.n	20000800 <hw_endpoint_xfer_continue+0x20>
200007f4:	0028      	movs	r0, r5
200007f6:	bd70      	pop	{r4, r5, r6, pc}
200007f8:	7881      	ldrb	r1, [r0, #2]
200007fa:	4808      	ldr	r0, [pc, #32]	; (2000081c <hw_endpoint_xfer_continue+0x3c>)
200007fc:	f000 f888 	bl	20000910 <__panic_veneer>
20000800:	0020      	movs	r0, r4
20000802:	f7ff ff13 	bl	2000062c <e15_is_critical_frame_period>
20000806:	1e05      	subs	r5, r0, #0
20000808:	d003      	beq.n	20000812 <hw_endpoint_xfer_continue+0x32>
2000080a:	2301      	movs	r3, #1
2000080c:	7723      	strb	r3, [r4, #28]
2000080e:	2500      	movs	r5, #0
20000810:	e7f0      	b.n	200007f4 <hw_endpoint_xfer_continue+0x14>
20000812:	0020      	movs	r0, r4
20000814:	f7ff ffa0 	bl	20000758 <hw_endpoint_start_next_buffer>
20000818:	e7ec      	b.n	200007f4 <hw_endpoint_xfer_continue+0x14>
2000081a:	46c0      	nop			; (mov r8, r8)
2000081c:	1000d544 	.word	0x1000d544

20000820 <hcd_event_handler>:
20000820:	b570      	push	{r4, r5, r6, lr}
20000822:	0004      	movs	r4, r0
20000824:	000e      	movs	r6, r1
20000826:	7843      	ldrb	r3, [r0, #1]
20000828:	2b01      	cmp	r3, #1
2000082a:	d021      	beq.n	20000870 <hcd_event_handler+0x50>
2000082c:	4b1e      	ldr	r3, [pc, #120]	; (200008a8 <hcd_event_handler+0x88>)
2000082e:	681d      	ldr	r5, [r3, #0]
20000830:	0029      	movs	r1, r5
20000832:	3114      	adds	r1, #20
20000834:	696a      	ldr	r2, [r5, #20]
20000836:	f3ef 8010 	mrs	r0, PRIMASK
2000083a:	b672      	cpsid	i
2000083c:	6813      	ldr	r3, [r2, #0]
2000083e:	2b00      	cmp	r3, #0
20000840:	d0fc      	beq.n	2000083c <hcd_event_handler+0x1c>
20000842:	f3bf 8f5f 	dmb	sy
20000846:	6048      	str	r0, [r1, #4]
20000848:	0021      	movs	r1, r4
2000084a:	0028      	movs	r0, r5
2000084c:	f000 f848 	bl	200008e0 <__tu_fifo_write_veneer>
20000850:	696a      	ldr	r2, [r5, #20]
20000852:	69ab      	ldr	r3, [r5, #24]
20000854:	f3bf 8f5f 	dmb	sy
20000858:	2100      	movs	r1, #0
2000085a:	6011      	str	r1, [r2, #0]
2000085c:	f383 8810 	msr	PRIMASK, r3
20000860:	2800      	cmp	r0, #0
20000862:	d01a      	beq.n	2000089a <hcd_event_handler+0x7a>
20000864:	7861      	ldrb	r1, [r4, #1]
20000866:	7820      	ldrb	r0, [r4, #0]
20000868:	0032      	movs	r2, r6
2000086a:	f000 f849 	bl	20000900 <__tuh_event_hook_cb_veneer>
2000086e:	bd70      	pop	{r4, r5, r6, pc}
20000870:	7802      	ldrb	r2, [r0, #0]
20000872:	4b0e      	ldr	r3, [pc, #56]	; (200008ac <hcd_event_handler+0x8c>)
20000874:	781b      	ldrb	r3, [r3, #0]
20000876:	429a      	cmp	r2, r3
20000878:	d1d8      	bne.n	2000082c <hcd_event_handler+0xc>
2000087a:	7902      	ldrb	r2, [r0, #4]
2000087c:	4b0b      	ldr	r3, [pc, #44]	; (200008ac <hcd_event_handler+0x8c>)
2000087e:	785b      	ldrb	r3, [r3, #1]
20000880:	429a      	cmp	r2, r3
20000882:	d1d3      	bne.n	2000082c <hcd_event_handler+0xc>
20000884:	7942      	ldrb	r2, [r0, #5]
20000886:	4b09      	ldr	r3, [pc, #36]	; (200008ac <hcd_event_handler+0x8c>)
20000888:	789b      	ldrb	r3, [r3, #2]
2000088a:	429a      	cmp	r2, r3
2000088c:	d1ce      	bne.n	2000082c <hcd_event_handler+0xc>
2000088e:	4a07      	ldr	r2, [pc, #28]	; (200008ac <hcd_event_handler+0x8c>)
20000890:	78d3      	ldrb	r3, [r2, #3]
20000892:	2110      	movs	r1, #16
20000894:	438b      	bics	r3, r1
20000896:	70d3      	strb	r3, [r2, #3]
20000898:	e7c8      	b.n	2000082c <hcd_event_handler+0xc>
2000089a:	2224      	movs	r2, #36	; 0x24
2000089c:	32ff      	adds	r2, #255	; 0xff
2000089e:	4904      	ldr	r1, [pc, #16]	; (200008b0 <hcd_event_handler+0x90>)
200008a0:	4804      	ldr	r0, [pc, #16]	; (200008b4 <hcd_event_handler+0x94>)
200008a2:	f000 f83d 	bl	20000920 <____wrap_printf_veneer>
200008a6:	e7e2      	b.n	2000086e <hcd_event_handler+0x4e>
200008a8:	20001b08 	.word	0x20001b08
200008ac:	20001674 	.word	0x20001674
200008b0:	1000d63c 	.word	0x1000d63c
200008b4:	1000c068 	.word	0x1000c068

200008b8 <__aeabi_idiv0>:
200008b8:	4770      	bx	lr
200008ba:	46c0      	nop			; (mov r8, r8)
200008bc:	0000      	movs	r0, r0
	...

200008c0 <__unaligned_memcpy_veneer>:
200008c0:	b401      	push	{r0}
200008c2:	4802      	ldr	r0, [pc, #8]	; (200008cc <__unaligned_memcpy_veneer+0xc>)
200008c4:	4684      	mov	ip, r0
200008c6:	bc01      	pop	{r0}
200008c8:	4760      	bx	ip
200008ca:	bf00      	nop
200008cc:	10007fd9 	.word	0x10007fd9

200008d0 <__time_us_64_veneer>:
200008d0:	b401      	push	{r0}
200008d2:	4802      	ldr	r0, [pc, #8]	; (200008dc <__time_us_64_veneer+0xc>)
200008d4:	4684      	mov	ip, r0
200008d6:	bc01      	pop	{r0}
200008d8:	4760      	bx	ip
200008da:	bf00      	nop
200008dc:	10004cd9 	.word	0x10004cd9

200008e0 <__tu_fifo_write_veneer>:
200008e0:	b401      	push	{r0}
200008e2:	4802      	ldr	r0, [pc, #8]	; (200008ec <__tu_fifo_write_veneer+0xc>)
200008e4:	4684      	mov	ip, r0
200008e6:	bc01      	pop	{r0}
200008e8:	4760      	bx	ip
200008ea:	bf00      	nop
200008ec:	1000a517 	.word	0x1000a517

200008f0 <__best_effort_wfe_or_timeout_veneer>:
200008f0:	b401      	push	{r0}
200008f2:	4802      	ldr	r0, [pc, #8]	; (200008fc <__best_effort_wfe_or_timeout_veneer+0xc>)
200008f4:	4684      	mov	ip, r0
200008f6:	bc01      	pop	{r0}
200008f8:	4760      	bx	ip
200008fa:	bf00      	nop
200008fc:	10004b49 	.word	0x10004b49

20000900 <__tuh_event_hook_cb_veneer>:
20000900:	b401      	push	{r0}
20000902:	4802      	ldr	r0, [pc, #8]	; (2000090c <__tuh_event_hook_cb_veneer+0xc>)
20000904:	4684      	mov	ip, r0
20000906:	bc01      	pop	{r0}
20000908:	4760      	bx	ip
2000090a:	bf00      	nop
2000090c:	10008409 	.word	0x10008409

20000910 <__panic_veneer>:
20000910:	b401      	push	{r0}
20000912:	4802      	ldr	r0, [pc, #8]	; (2000091c <__panic_veneer+0xc>)
20000914:	4684      	mov	ip, r0
20000916:	bc01      	pop	{r0}
20000918:	4760      	bx	ip
2000091a:	bf00      	nop
2000091c:	10003cb1 	.word	0x10003cb1

20000920 <____wrap_printf_veneer>:
20000920:	b401      	push	{r0}
20000922:	4802      	ldr	r0, [pc, #8]	; (2000092c <____wrap_printf_veneer+0xc>)
20000924:	4684      	mov	ip, r0
20000926:	bc01      	pop	{r0}
20000928:	4760      	bx	ip
2000092a:	bf00      	nop
2000092c:	10007739 	.word	0x10007739

20000930 <____wrap___aeabi_lmul_veneer>:
20000930:	b401      	push	{r0}
20000932:	4802      	ldr	r0, [pc, #8]	; (2000093c <____wrap___aeabi_lmul_veneer+0xc>)
20000934:	4684      	mov	ip, r0
20000936:	bc01      	pop	{r0}
20000938:	4760      	bx	ip
2000093a:	bf00      	nop
2000093c:	10005fd1 	.word	0x10005fd1

20000940 <____wrap_memset_veneer>:
20000940:	b401      	push	{r0}
20000942:	4802      	ldr	r0, [pc, #8]	; (2000094c <____wrap_memset_veneer+0xc>)
20000944:	4684      	mov	ip, r0
20000946:	bc01      	pop	{r0}
20000948:	4760      	bx	ip
2000094a:	bf00      	nop
2000094c:	10006169 	.word	0x10006169

20000950 <____assert_func_veneer>:
20000950:	b401      	push	{r0}
20000952:	4802      	ldr	r0, [pc, #8]	; (2000095c <____assert_func_veneer+0xc>)
20000954:	4684      	mov	ip, r0
20000956:	bc01      	pop	{r0}
20000958:	4760      	bx	ip
2000095a:	bf00      	nop
2000095c:	10007369 	.word	0x10007369

20000960 <striped_spin_lock_num>:
20000960:	00000010                                ....

20000964 <irq_handler_chain_slots>:
20000964:	00000000 	.word	0x00000000
20000968:	00010000 	.word	0x00010000
	...
20000974:	00020000 	.word	0x00020000
	...
20000980:	00030000 	.word	0x00030000
	...
2000098c:	00ff0000 	.word	0x00ff0000
20000990:	00000000 	.word	0x00000000

20000994 <irq_handler_chain_first_slot>:
20000994:	b501      	push	{r0, lr}
20000996:	6848      	ldr	r0, [r1, #4]
20000998:	3101      	adds	r1, #1
2000099a:	468e      	mov	lr, r1
2000099c:	4700      	bx	r0

2000099e <irq_handler_chain_remove_tail>:
2000099e:	4670      	mov	r0, lr
200009a0:	3809      	subs	r0, #9
200009a2:	4901      	ldr	r1, [pc, #4]	; (200009a8 <irq_handler_chain_remove_tail+0xa>)
200009a4:	4788      	blx	r1
200009a6:	bd01      	pop	{r0, pc}
200009a8:	10004359 	.word	0x10004359

200009ac <default_alarm_pool>:
	...
200009c0:	20001270 00000000 00000000 00000000     p.. ............

200009d0 <aeabi_bits_funcs>:
200009d0:	00003350 	.word	0x00003350
200009d4:	0000334c 	.word	0x0000334c
200009d8:	00003354 	.word	0x00003354
200009dc:	00003352 	.word	0x00003352

200009e0 <aeabi_bits_funcs_end>:
200009e0:	0000534d 	.word	0x0000534d
200009e4:	0000434d 	.word	0x0000434d
200009e8:	00003453 	.word	0x00003453
200009ec:	00003443 	.word	0x00003443

200009f0 <stdio_uart>:
200009f0:	10007751 1000786d 100077c5 1000787d     Qw..mx...w..}x..
20000a00:	00000000 00000100                       ........

20000a08 <_usbh_controller>:
20000a08:	000000ff                                ....

20000a0c <_usbh_qdef>:
20000a0c:	20001b0c 000c0010 00000000 00000000     ... ............
	...

20000a28 <_impure_ptr>:
20000a28:	20000a30 00000000                       0.. ....

20000a30 <impure_data>:
20000a30:	00000000 20000d1c 20000d84 20000dec     ....... ... ... 
	...
20000ad8:	00000001 00000000 abcd330e e66d1234     .........3..4.m.
20000ae8:	0005deec 0000000b 00000000 00000000     ................
	...

20000e58 <__malloc_sbrk_base>:
20000e58:	ffffffff                                ....

20000e5c <__malloc_trim_threshold>:
20000e5c:	00020000                                ....

20000e60 <__malloc_av_>:
	...
20000e68:	20000e60 20000e60 20000e68 20000e68     `.. `.. h.. h.. 
20000e78:	20000e70 20000e70 20000e78 20000e78     p.. p.. x.. x.. 
20000e88:	20000e80 20000e80 20000e88 20000e88     ... ... ... ... 
20000e98:	20000e90 20000e90 20000e98 20000e98     ... ... ... ... 
20000ea8:	20000ea0 20000ea0 20000ea8 20000ea8     ... ... ... ... 
20000eb8:	20000eb0 20000eb0 20000eb8 20000eb8     ... ... ... ... 
20000ec8:	20000ec0 20000ec0 20000ec8 20000ec8     ... ... ... ... 
20000ed8:	20000ed0 20000ed0 20000ed8 20000ed8     ... ... ... ... 
20000ee8:	20000ee0 20000ee0 20000ee8 20000ee8     ... ... ... ... 
20000ef8:	20000ef0 20000ef0 20000ef8 20000ef8     ... ... ... ... 
20000f08:	20000f00 20000f00 20000f08 20000f08     ... ... ... ... 
20000f18:	20000f10 20000f10 20000f18 20000f18     ... ... ... ... 
20000f28:	20000f20 20000f20 20000f28 20000f28      ..  .. (.. (.. 
20000f38:	20000f30 20000f30 20000f38 20000f38     0.. 0.. 8.. 8.. 
20000f48:	20000f40 20000f40 20000f48 20000f48     @.. @.. H.. H.. 
20000f58:	20000f50 20000f50 20000f58 20000f58     P.. P.. X.. X.. 
20000f68:	20000f60 20000f60 20000f68 20000f68     `.. `.. h.. h.. 
20000f78:	20000f70 20000f70 20000f78 20000f78     p.. p.. x.. x.. 
20000f88:	20000f80 20000f80 20000f88 20000f88     ... ... ... ... 
20000f98:	20000f90 20000f90 20000f98 20000f98     ... ... ... ... 
20000fa8:	20000fa0 20000fa0 20000fa8 20000fa8     ... ... ... ... 
20000fb8:	20000fb0 20000fb0 20000fb8 20000fb8     ... ... ... ... 
20000fc8:	20000fc0 20000fc0 20000fc8 20000fc8     ... ... ... ... 
20000fd8:	20000fd0 20000fd0 20000fd8 20000fd8     ... ... ... ... 
20000fe8:	20000fe0 20000fe0 20000fe8 20000fe8     ... ... ... ... 
20000ff8:	20000ff0 20000ff0 20000ff8 20000ff8     ... ... ... ... 
20001008:	20001000 20001000 20001008 20001008     ... ... ... ... 
20001018:	20001010 20001010 20001018 20001018     ... ... ... ... 
20001028:	20001020 20001020 20001028 20001028      ..  .. (.. (.. 
20001038:	20001030 20001030 20001038 20001038     0.. 0.. 8.. 8.. 
20001048:	20001040 20001040 20001048 20001048     @.. @.. H.. H.. 
20001058:	20001050 20001050 20001058 20001058     P.. P.. X.. X.. 
20001068:	20001060 20001060 20001068 20001068     `.. `.. h.. h.. 
20001078:	20001070 20001070 20001078 20001078     p.. p.. x.. x.. 
20001088:	20001080 20001080 20001088 20001088     ... ... ... ... 
20001098:	20001090 20001090 20001098 20001098     ... ... ... ... 
200010a8:	200010a0 200010a0 200010a8 200010a8     ... ... ... ... 
200010b8:	200010b0 200010b0 200010b8 200010b8     ... ... ... ... 
200010c8:	200010c0 200010c0 200010c8 200010c8     ... ... ... ... 
200010d8:	200010d0 200010d0 200010d8 200010d8     ... ... ... ... 
200010e8:	200010e0 200010e0 200010e8 200010e8     ... ... ... ... 
200010f8:	200010f0 200010f0 200010f8 200010f8     ... ... ... ... 
20001108:	20001100 20001100 20001108 20001108     ... ... ... ... 
20001118:	20001110 20001110 20001118 20001118     ... ... ... ... 
20001128:	20001120 20001120 20001128 20001128      ..  .. (.. (.. 
20001138:	20001130 20001130 20001138 20001138     0.. 0.. 8.. 8.. 
20001148:	20001140 20001140 20001148 20001148     @.. @.. H.. H.. 
20001158:	20001150 20001150 20001158 20001158     P.. P.. X.. X.. 
20001168:	20001160 20001160 20001168 20001168     `.. `.. h.. h.. 
20001178:	20001170 20001170 20001178 20001178     p.. p.. x.. x.. 
20001188:	20001180 20001180 20001188 20001188     ... ... ... ... 
20001198:	20001190 20001190 20001198 20001198     ... ... ... ... 
200011a8:	200011a0 200011a0 200011a8 200011a8     ... ... ... ... 
200011b8:	200011b0 200011b0 200011b8 200011b8     ... ... ... ... 
200011c8:	200011c0 200011c0 200011c8 200011c8     ... ... ... ... 
200011d8:	200011d0 200011d0 200011d8 200011d8     ... ... ... ... 
200011e8:	200011e0 200011e0 200011e8 200011e8     ... ... ... ... 
200011f8:	200011f0 200011f0 200011f8 200011f8     ... ... ... ... 
20001208:	20001200 20001200 20001208 20001208     ... ... ... ... 
20001218:	20001210 20001210 20001218 20001218     ... ... ... ... 
20001228:	20001220 20001220 20001228 20001228      ..  .. (.. (.. 
20001238:	20001230 20001230 20001238 20001238     0.. 0.. 8.. 8.. 
20001248:	20001240 20001240 20001248 20001248     @.. @.. H.. H.. 
20001258:	20001250 20001250 20001258 20001258     P.. P.. X.. X.. 

20001268 <print_mutex>:
	...
